TN:
SF:/home/runner/work/raccoon/raccoon/moose/framework/build/header_symlinks/MooseTypes.h
LF:0
LH:0
end_of_record
SF:/home/runner/micromamba/envs/moose/x86_64-conda-linux-gnu/include/c++/10.4.0/ext/atomicity.h
DA:50,80
DA:68,0
DA:69,0
DA:83,80
DA:84,80
DA:86,0
LF:6
LH:3
end_of_record
SF:/home/runner/micromamba/envs/moose/libmesh/include/libmesh/threads_pthread.h
FN:147,_ZN7libMesh7Threads10spin_mutexD2Ev
FNDA:0,_ZN7libMesh7Threads10spin_mutexD2Ev
FNF:1
FNH:0
DA:147,0
LF:1
LH:0
end_of_record
SF:/home/runner/micromamba/envs/moose/x86_64-conda-linux-gnu/include/c++/10.4.0/bits/basic_string.h
FN:533,_ZNSt7__cxx1112basic_stringIcSt11char_traitsIcESaIcEEC2IS3_EEPKcRKS3_
FNDA:40,_ZNSt7__cxx1112basic_stringIcSt11char_traitsIcESaIcEEC2IS3_EEPKcRKS3_
FNF:1
FNH:1
DA:164,40
DA:165,40
DA:187,0
DA:191,40
DA:195,80
DA:201,40
DA:219,0
DA:225,40
DA:401,0
DA:406,40
DA:533,40
DA:536,40
DA:539,40
DA:540,40
DA:671,11352544
DA:6292,16613738
LF:16
LH:13
end_of_record
SF:/home/runner/micromamba/envs/moose/x86_64-conda-linux-gnu/include/c++/10.4.0/bits/stl_tree.h
FN:613,_ZNSt8_Rb_treeINSt7__cxx1112basic_stringIcSt11char_traitsIcESaIcEEESt4pairIKS5_St10unique_ptrIN7libMesh10Parameters5ValueESt14default_deleteISB_EEESt10_Select1stISF_ESt4lessIvESaISF_EE17_M_construct_nodeIJRKSt21piecewise_construct_tSt5tupleIJRS7_EESQ_IJEEEEEvPSt13_Rb_tree_nodeISF_EDpOT_
FNDA:0,_ZNSt8_Rb_treeINSt7__cxx1112basic_stringIcSt11char_traitsIcESaIcEEESt4pairIKS5_St10unique_ptrIN7libMesh10Parameters5ValueESt14default_deleteISB_EEESt10_Select1stISF_ESt4lessIvESaISF_EE17_M_construct_nodeIJRKSt21piecewise_construct_tSt5tupleIJRS7_EESQ_IJEEEEEvPSt13_Rb_tree_nodeISF_EDpOT_
FN:632,_ZNSt8_Rb_treeINSt7__cxx1112basic_stringIcSt11char_traitsIcESaIcEEESt4pairIKS5_St10unique_ptrIN7libMesh10Parameters5ValueESt14default_deleteISB_EEESt10_Select1stISF_ESt4lessIvESaISF_EE14_M_create_nodeIJRKSt21piecewise_construct_tSt5tupleIJRS7_EESQ_IJEEEEEPSt13_Rb_tree_nodeISF_EDpOT_
FNDA:0,_ZNSt8_Rb_treeINSt7__cxx1112basic_stringIcSt11char_traitsIcESaIcEEESt4pairIKS5_St10unique_ptrIN7libMesh10Parameters5ValueESt14default_deleteISB_EEESt10_Select1stISF_ESt4lessIvESaISF_EE14_M_create_nodeIJRKSt21piecewise_construct_tSt5tupleIJRS7_EESQ_IJEEEEEPSt13_Rb_tree_nodeISF_EDpOT_
FN:652,_ZNSt8_Rb_treeINSt7__cxx1112basic_stringIcSt11char_traitsIcESaIcEEESt4pairIKS5_St10unique_ptrIN7libMesh10Parameters5ValueESt14default_deleteISB_EEESt10_Select1stISF_ESt4lessIvESaISF_EE12_M_drop_nodeEPSt13_Rb_tree_nodeISF_E
FNDA:11352464,_ZNSt8_Rb_treeINSt7__cxx1112basic_stringIcSt11char_traitsIcESaIcEEESt4pairIKS5_St10unique_ptrIN7libMesh10Parameters5ValueESt14default_deleteISB_EEESt10_Select1stISF_ESt4lessIvESaISF_EE12_M_drop_nodeEPSt13_Rb_tree_nodeISF_E
FN:1261,_ZNSt8_Rb_treeINSt7__cxx1112basic_stringIcSt11char_traitsIcESaIcEEESt4pairIKS5_St10unique_ptrIN7libMesh10Parameters5ValueESt14default_deleteISB_EEESt10_Select1stISF_ESt4lessIvESaISF_EE5clearEv
FNDA:0,_ZNSt8_Rb_treeINSt7__cxx1112basic_stringIcSt11char_traitsIcESaIcEEESt4pairIKS5_St10unique_ptrIN7libMesh10Parameters5ValueESt14default_deleteISB_EEESt10_Select1stISF_ESt4lessIvESaISF_EE5clearEv
FN:1918,_ZNSt8_Rb_treeIssSt9_IdentityIsESt4lessIsESaIsEE8_M_eraseEPSt13_Rb_tree_nodeIsE
FNDA:40,_ZNSt8_Rb_treeIssSt9_IdentityIsESt4lessIsESaIsEE8_M_eraseEPSt13_Rb_tree_nodeIsE
FN:1918,_ZNSt8_Rb_treeIttSt9_IdentityItESt4lessItESaItEE8_M_eraseEPSt13_Rb_tree_nodeItE
FNDA:40,_ZNSt8_Rb_treeIttSt9_IdentityItESt4lessItESaItEE8_M_eraseEPSt13_Rb_tree_nodeItE
FN:1918,_ZNSt8_Rb_treeINSt7__cxx1112basic_stringIcSt11char_traitsIcESaIcEEESt4pairIKS5_St10unique_ptrIN7libMesh10Parameters5ValueESt14default_deleteISB_EEESt10_Select1stISF_ESt4lessIvESaISF_EE8_M_eraseEPSt13_Rb_tree_nodeISF_E
FNDA:12911778,_ZNSt8_Rb_treeINSt7__cxx1112basic_stringIcSt11char_traitsIcESaIcEEESt4pairIKS5_St10unique_ptrIN7libMesh10Parameters5ValueESt14default_deleteISB_EEESt10_Select1stISF_ESt4lessIvESaISF_EE8_M_eraseEPSt13_Rb_tree_nodeISF_E
FN:1935,_ZNSt8_Rb_treeINSt7__cxx1112basic_stringIcSt11char_traitsIcESaIcEEESt4pairIKS5_St10unique_ptrIN7libMesh10Parameters5ValueESt14default_deleteISB_EEESt10_Select1stISF_ESt4lessIvESaISF_EE14_M_lower_boundEPSt13_Rb_tree_nodeISF_EPSt18_Rb_tree_node_baseRS7_
FNDA:0,_ZNSt8_Rb_treeINSt7__cxx1112basic_stringIcSt11char_traitsIcESaIcEEESt4pairIKS5_St10unique_ptrIN7libMesh10Parameters5ValueESt14default_deleteISB_EEESt10_Select1stISF_ESt4lessIvESaISF_EE14_M_lower_boundEPSt13_Rb_tree_nodeISF_EPSt18_Rb_tree_node_baseRS7_
FN:2096,_ZNSt8_Rb_treeINSt7__cxx1112basic_stringIcSt11char_traitsIcESaIcEEESt4pairIKS5_St10unique_ptrIN7libMesh10Parameters5ValueESt14default_deleteISB_EEESt10_Select1stISF_ESt4lessIvESaISF_EE24_M_get_insert_unique_posERS7_
FNDA:1295013,_ZNSt8_Rb_treeINSt7__cxx1112basic_stringIcSt11char_traitsIcESaIcEEESt4pairIKS5_St10unique_ptrIN7libMesh10Parameters5ValueESt14default_deleteISB_EEESt10_Select1stISF_ESt4lessIvESaISF_EE24_M_get_insert_unique_posERS7_
FN:2198,_ZNSt8_Rb_treeINSt7__cxx1112basic_stringIcSt11char_traitsIcESaIcEEESt4pairIKS5_St10unique_ptrIN7libMesh10Parameters5ValueESt14default_deleteISB_EEESt10_Select1stISF_ESt4lessIvESaISF_EE29_M_get_insert_hint_unique_posESt23_Rb_tree_const_iteratorISF_ERS7_
FNDA:11363078,_ZNSt8_Rb_treeINSt7__cxx1112basic_stringIcSt11char_traitsIcESaIcEEESt4pairIKS5_St10unique_ptrIN7libMesh10Parameters5ValueESt14default_deleteISB_EEESt10_Select1stISF_ESt4lessIvESaISF_EE29_M_get_insert_hint_unique_posESt23_Rb_tree_const_iteratorISF_ERS7_
FN:2365,_ZNSt8_Rb_treeINSt7__cxx1112basic_stringIcSt11char_traitsIcESaIcEEESt4pairIKS5_St10unique_ptrIN7libMesh10Parameters5ValueESt14default_deleteISB_EEESt10_Select1stISF_ESt4lessIvESaISF_EE14_M_insert_nodeEPSt18_Rb_tree_node_baseSN_PSt13_Rb_tree_nodeISF_E
FNDA:0,_ZNSt8_Rb_treeINSt7__cxx1112basic_stringIcSt11char_traitsIcESaIcEEESt4pairIKS5_St10unique_ptrIN7libMesh10Parameters5ValueESt14default_deleteISB_EEESt10_Select1stISF_ESt4lessIvESaISF_EE14_M_insert_nodeEPSt18_Rb_tree_node_baseSN_PSt13_Rb_tree_nodeISF_E
FN:2463,_ZNSt8_Rb_treeINSt7__cxx1112basic_stringIcSt11char_traitsIcESaIcEEESt4pairIKS5_St10unique_ptrIN7libMesh10Parameters5ValueESt14default_deleteISB_EEESt10_Select1stISF_ESt4lessIvESaISF_EE22_M_emplace_hint_uniqueIJRKSt21piecewise_construct_tSt5tupleIJRS7_EESQ_IJEEEEESt17_Rb_tree_iteratorISF_ESt23_Rb_tree_const_iteratorISF_EDpOT_
FNDA:0,_ZNSt8_Rb_treeINSt7__cxx1112basic_stringIcSt11char_traitsIcESaIcEEESt4pairIKS5_St10unique_ptrIN7libMesh10Parameters5ValueESt14default_deleteISB_EEESt10_Select1stISF_ESt4lessIvESaISF_EE22_M_emplace_hint_uniqueIJRKSt21piecewise_construct_tSt5tupleIJRS7_EESQ_IJEEEEESt17_Rb_tree_iteratorISF_ESt23_Rb_tree_const_iteratorISF_EDpOT_
FNF:12
FNH:6
DA:208,0
DA:209,0
DA:210,0
DA:211,0
DA:287,0
DA:302,6390885
DA:303,17778
DA:350,0
DA:351,0
DA:355,11363078
DA:368,0
DA:369,0
DA:613,0
DA:622,0
DA:624,0
DA:626,0
DA:628,0
DA:632,0
DA:635,0
DA:636,0
DA:647,11352464
DA:652,11352464
DA:656,11352464
DA:751,1295093
DA:762,12658091
DA:792,54729
DA:800,57831
DA:993,80
DA:1005,1291677
DA:1009,0
DA:1013,0
DA:1017,0
DA:1041,3053973
DA:1261,0
DA:1263,0
DA:1265,0
DA:1279,0
DA:1918,40
DA:1922,40
DA:1924,0
DA:1929,40
DA:1918,40
DA:1922,40
DA:1924,0
DA:1929,40
DA:1918,12911778
DA:1922,24264242
DA:1924,11352464
DA:1926,11352464
DA:1929,12911778
DA:1935,0
DA:1939,0
DA:1940,0
DA:1944,0
DA:2096,1295013
DA:2103,1407573
DA:2107,112560
DA:2110,1295013
DA:2112,1291677
DA:2113,1273899
DA:2117,21114
DA:2118,12368
DA:2119,8746
DA:2198,11363078
DA:2206,11363078
DA:2209,3053973
DA:2210,1780074
DA:2212,1273899
DA:2214,8309105
DA:2218,8309105
DA:2219,1918220
DA:2220,6390885
DA:2222,6390885
DA:2223,3960134
DA:2225,2430751
DA:2228,0
DA:2230,0
DA:2234,0
DA:2235,0
DA:2236,0
DA:2238,0
DA:2239,0
DA:2241,0
DA:2244,0
DA:2248,0
DA:2365,0
DA:2368,0
DA:2369,0
DA:2372,0
DA:2373,0
DA:2374,0
DA:2375,0
DA:2463,0
DA:2466,0
DA:2470,0
DA:2472,0
DA:2473,0
DA:2475,0
DA:2476,0
LF:99
LH:45
end_of_record
SF:/home/runner/work/raccoon/raccoon/moose/framework/build/header_symlinks/MooseInit.h
FN:27,_ZN9MooseInitD0Ev
FNDA:0,_ZN9MooseInitD0Ev
FN:27,_ZN9MooseInitD2Ev
FNDA:0,_ZN9MooseInitD2Ev
FNF:2
FNH:0
DA:27,0
DA:27,0
DA:27,40
LF:3
LH:1
end_of_record
SF:/home/runner/micromamba/envs/moose/x86_64-conda-linux-gnu/include/c++/10.4.0/bits/char_traits.h
DA:357,40
DA:399,40
LF:2
LH:2
end_of_record
SF:/home/runner/micromamba/envs/moose/x86_64-conda-linux-gnu/include/c++/10.4.0/bits/alloc_traits.h
DA:492,0
LF:1
LH:0
end_of_record
SF:/home/runner/micromamba/envs/moose/libmesh/include/libmesh/parameters.h
FN:85,_ZN7libMesh10ParametersD0Ev
FNDA:0,_ZN7libMesh10ParametersD0Ev
FN:85,_ZN7libMesh10ParametersD2Ev
FNDA:0,_ZN7libMesh10ParametersD2Ev
FN:138,_ZN7libMesh10Parameters14set_attributesERKNSt7__cxx1112basic_stringIcSt11char_traitsIcESaIcEEEb
FNDA:1590,_ZN7libMesh10Parameters14set_attributesERKNSt7__cxx1112basic_stringIcSt11char_traitsIcESaIcEEEb
FN:324,_ZN7libMesh10Parameters5clearEv
FNDA:0,_ZN7libMesh10Parameters5clearEv
FN:332,_ZN7libMesh10ParametersaSERKS0_
FNDA:0,_ZN7libMesh10ParametersaSERKS0_
FN:341,_ZN7libMesh10ParameterspLERKS0_
FNDA:0,_ZN7libMesh10ParameterspLERKS0_
FNF:6
FNH:1
DA:85,0
DA:85,0
DA:138,1590
DA:324,0
DA:327,0
DA:332,0
DA:335,0
DA:337,0
DA:341,0
DA:344,0
DA:345,0
DA:347,0
LF:12
LH:1
end_of_record
SF:/home/runner/micromamba/envs/moose/x86_64-conda-linux-gnu/include/c++/10.4.0/bits/shared_ptr.h
DA:121,40
LF:1
LH:1
end_of_record
SF:/home/runner/micromamba/envs/moose/x86_64-conda-linux-gnu/include/c++/10.4.0/tuple
DA:132,0
DA:133,0
DA:135,0
DA:136,0
DA:176,0
DA:1702,0
DA:1706,0
LF:7
LH:0
end_of_record
SF:/home/runner/micromamba/envs/moose/x86_64-conda-linux-gnu/include/c++/10.4.0/utility
DA:189,0
LF:1
LH:0
end_of_record
SF:/home/runner/work/raccoon/raccoon/moose/framework/build/header_symlinks/MooseUtils.h
FN:321,_ZN10MooseUtils13prettyCppTypeI14raccoonTestAppEENSt7__cxx1112basic_stringIcSt11char_traitsIcESaIcEEEPKT_
FNDA:40,_ZN10MooseUtils13prettyCppTypeI14raccoonTestAppEENSt7__cxx1112basic_stringIcSt11char_traitsIcESaIcEEEPKT_
FNF:1
FNH:1
DA:321,40
DA:323,80
LF:2
LH:2
end_of_record
SF:/home/runner/micromamba/envs/moose/x86_64-conda-linux-gnu/include/c++/10.4.0/bits/stl_set.h
FN:281,_ZNSt3setIsSt4lessIsESaIsEED2Ev
FNDA:40,_ZNSt3setIsSt4lessIsESaIsEED2Ev
FN:281,_ZNSt3setItSt4lessItESaItEED2Ev
FNDA:40,_ZNSt3setItSt4lessItESaItEED2Ev
FNF:2
FNH:2
DA:281,40
DA:281,40
LF:2
LH:2
end_of_record
SF:/home/runner/micromamba/envs/moose/x86_64-conda-linux-gnu/include/c++/10.4.0/bits/shared_ptr_base.h
FN:134,_ZNSt16_Sp_counted_baseILN9__gnu_cxx12_Lock_policyE2EE10_M_destroyEv
FNDA:0,_ZNSt16_Sp_counted_baseILN9__gnu_cxx12_Lock_policyE2EE10_M_destroyEv
FN:151,_ZNSt16_Sp_counted_baseILN9__gnu_cxx12_Lock_policyE2EE10_M_releaseEv
FNDA:40,_ZNSt16_Sp_counted_baseILN9__gnu_cxx12_Lock_policyE2EE10_M_releaseEv
FN:407,_ZNSt15_Sp_counted_ptrIDnLN9__gnu_cxx12_Lock_policyE2EE10_M_disposeEv
FNDA:0,_ZNSt15_Sp_counted_ptrIDnLN9__gnu_cxx12_Lock_policyE2EE10_M_disposeEv
FN:555,_ZNSt23_Sp_counted_ptr_inplaceISt5mutexSaIS0_ELN9__gnu_cxx12_Lock_policyE2EED0Ev
FNDA:0,_ZNSt23_Sp_counted_ptr_inplaceISt5mutexSaIS0_ELN9__gnu_cxx12_Lock_policyE2EED0Ev
FN:555,_ZNSt23_Sp_counted_ptr_inplaceISt5mutexSaIS0_ELN9__gnu_cxx12_Lock_policyE2EED2Ev
FNDA:0,_ZNSt23_Sp_counted_ptr_inplaceISt5mutexSaIS0_ELN9__gnu_cxx12_Lock_policyE2EED2Ev
FN:555,_ZNSt23_Sp_counted_ptr_inplaceINSt13__future_base13_State_baseV2ESaIS1_ELN9__gnu_cxx12_Lock_policyE2EED0Ev
FNDA:0,_ZNSt23_Sp_counted_ptr_inplaceINSt13__future_base13_State_baseV2ESaIS1_ELN9__gnu_cxx12_Lock_policyE2EED0Ev
FN:555,_ZNSt23_Sp_counted_ptr_inplaceINSt13__future_base13_State_baseV2ESaIS1_ELN9__gnu_cxx12_Lock_policyE2EED2Ev
FNDA:0,_ZNSt23_Sp_counted_ptr_inplaceINSt13__future_base13_State_baseV2ESaIS1_ELN9__gnu_cxx12_Lock_policyE2EED2Ev
FN:558,_ZNSt23_Sp_counted_ptr_inplaceISt5mutexSaIS0_ELN9__gnu_cxx12_Lock_policyE2EE10_M_disposeEv
FNDA:0,_ZNSt23_Sp_counted_ptr_inplaceISt5mutexSaIS0_ELN9__gnu_cxx12_Lock_policyE2EE10_M_disposeEv
FN:558,_ZNSt23_Sp_counted_ptr_inplaceINSt13__future_base13_State_baseV2ESaIS1_ELN9__gnu_cxx12_Lock_policyE2EE10_M_disposeEv
FNDA:0,_ZNSt23_Sp_counted_ptr_inplaceINSt13__future_base13_State_baseV2ESaIS1_ELN9__gnu_cxx12_Lock_policyE2EE10_M_disposeEv
FN:565,_ZNSt23_Sp_counted_ptr_inplaceISt5mutexSaIS0_ELN9__gnu_cxx12_Lock_policyE2EE10_M_destroyEv
FNDA:0,_ZNSt23_Sp_counted_ptr_inplaceISt5mutexSaIS0_ELN9__gnu_cxx12_Lock_policyE2EE10_M_destroyEv
FN:565,_ZNSt23_Sp_counted_ptr_inplaceINSt13__future_base13_State_baseV2ESaIS1_ELN9__gnu_cxx12_Lock_policyE2EE10_M_destroyEv
FNDA:0,_ZNSt23_Sp_counted_ptr_inplaceINSt13__future_base13_State_baseV2ESaIS1_ELN9__gnu_cxx12_Lock_policyE2EE10_M_destroyEv
FNF:11
FNH:1
DA:134,0
DA:135,0
DA:151,40
DA:155,80
DA:158,40
DA:170,80
DA:174,40
DA:177,40
DA:407,0
DA:555,0
DA:555,0
DA:555,0
DA:555,0
DA:555,0
DA:558,0
DA:561,0
DA:558,0
DA:561,0
DA:565,0
DA:568,0
DA:570,0
DA:565,0
DA:568,0
DA:570,0
DA:735,40
DA:736,40
DA:1330,40
LF:27
LH:9
end_of_record
SF:/home/runner/micromamba/envs/moose/x86_64-conda-linux-gnu/include/c++/10.4.0/ext/new_allocator.h
DA:121,0
DA:139,11352464
DA:162,0
LF:3
LH:1
end_of_record
SF:/home/runner/micromamba/envs/moose/x86_64-conda-linux-gnu/include/c++/10.4.0/bits/stl_iterator_base_funcs.h
DA:104,40
LF:1
LH:1
end_of_record
SF:/home/runner/micromamba/envs/moose/libmesh/include/timpi/message_tag.h
LF:0
LH:0
end_of_record
SF:/home/runner/work/raccoon/raccoon/src/main.C
FN:10,main
FNDA:40,main
FNF:1
FNH:1
DA:10,40
DA:12,40
LF:2
LH:2
end_of_record
SF:/home/runner/work/raccoon/raccoon/moose/framework/contrib/hit/include/hit/parse.h
LF:0
LH:0
end_of_record
SF:/home/runner/micromamba/envs/moose/x86_64-conda-linux-gnu/include/c++/10.4.0/bits/allocated_ptr.h
FN:70,_ZNSt15__allocated_ptrISaISt23_Sp_counted_ptr_inplaceINSt13__future_base13_State_baseV2ESaIS2_ELN9__gnu_cxx12_Lock_policyE2EEEED2Ev
FNDA:0,_ZNSt15__allocated_ptrISaISt23_Sp_counted_ptr_inplaceINSt13__future_base13_State_baseV2ESaIS2_ELN9__gnu_cxx12_Lock_policyE2EEEED2Ev
FN:70,_ZNSt15__allocated_ptrISaISt23_Sp_counted_ptr_inplaceISt5mutexSaIS1_ELN9__gnu_cxx12_Lock_policyE2EEEED2Ev
FNDA:0,_ZNSt15__allocated_ptrISaISt23_Sp_counted_ptr_inplaceISt5mutexSaIS1_ELN9__gnu_cxx12_Lock_policyE2EEEED2Ev
FNF:2
FNH:0
DA:52,0
DA:53,0
DA:70,0
DA:72,0
DA:74,0
DA:70,0
DA:72,0
DA:74,0
LF:8
LH:0
end_of_record
SF:/home/runner/micromamba/envs/moose/x86_64-conda-linux-gnu/include/c++/10.4.0/ext/aligned_buffer.h
DA:104,0
LF:1
LH:0
end_of_record
SF:/home/runner/micromamba/envs/moose/x86_64-conda-linux-gnu/include/c++/10.4.0/bits/stl_map.h
FN:492,_ZNSt3mapINSt7__cxx1112basic_stringIcSt11char_traitsIcESaIcEEESt10unique_ptrIN7libMesh10Parameters5ValueESt14default_deleteIS9_EESt4lessIvESaISt4pairIKS5_SC_EEEixERSG_
FNDA:0,_ZNSt3mapINSt7__cxx1112basic_stringIcSt11char_traitsIcESaIcEEESt10unique_ptrIN7libMesh10Parameters5ValueESt14default_deleteIS9_EESt4lessIvESaISt4pairIKS5_SC_EEEixERSG_
FN:1258,_ZNSt3mapINSt7__cxx1112basic_stringIcSt11char_traitsIcESaIcEEESt10unique_ptrIN7libMesh10Parameters5ValueESt14default_deleteIS9_EESt4lessIvESaISt4pairIKS5_SC_EEE11lower_boundERSG_
FNDA:0,_ZNSt3mapINSt7__cxx1112basic_stringIcSt11char_traitsIcESaIcEEESt10unique_ptrIN7libMesh10Parameters5ValueESt14default_deleteIS9_EESt4lessIvESaISt4pairIKS5_SC_EEE11lower_boundERSG_
FNF:2
FNH:0
DA:302,0
DA:492,0
DA:497,0
DA:499,0
DA:501,0
DA:502,0
DA:503,0
DA:507,0
DA:1134,0
DA:1258,0
DA:1259,0
LF:11
LH:0
end_of_record
SF:/home/runner/micromamba/envs/moose/x86_64-conda-linux-gnu/include/c++/10.4.0/bits/stl_function.h
DA:1156,16613738
LF:1
LH:1
end_of_record
SF:/home/runner/micromamba/envs/moose/x86_64-conda-linux-gnu/include/c++/10.4.0/future
FN:328,_ZNSt13__future_base13_State_baseV2D0Ev
FNDA:0,_ZNSt13__future_base13_State_baseV2D0Ev
FN:328,_ZNSt13__future_base13_State_baseV2D2Ev
FNDA:0,_ZNSt13__future_base13_State_baseV2D2Ev
FN:581,_ZNSt13__future_base13_State_baseV217_M_complete_asyncEv
FNDA:0,_ZNSt13__future_base13_State_baseV217_M_complete_asyncEv
FN:584,_ZNKSt13__future_base13_State_baseV221_M_is_deferred_futureEv
FNDA:0,_ZNKSt13__future_base13_State_baseV221_M_is_deferred_futureEv
FN:663,_ZNSt13__future_base7_ResultIvE10_M_destroyEv
FNDA:0,_ZNSt13__future_base7_ResultIvE10_M_destroyEv
FNF:5
FNH:0
DA:213,0
DA:328,0
DA:328,0
DA:581,0
DA:584,0
DA:663,0
LF:6
LH:0
end_of_record
SF:/home/runner/micromamba/envs/moose/x86_64-conda-linux-gnu/include/c++/10.4.0/bits/basic_string.tcc
FN:206,_ZNSt7__cxx1112basic_stringIcSt11char_traitsIcESaIcEE12_M_constructIPcEEvT_S7_St20forward_iterator_tag
FNDA:0,_ZNSt7__cxx1112basic_stringIcSt11char_traitsIcESaIcEE12_M_constructIPcEEvT_S7_St20forward_iterator_tag
FN:206,_ZNSt7__cxx1112basic_stringIcSt11char_traitsIcESaIcEE12_M_constructIPKcEEvT_S8_St20forward_iterator_tag
FNDA:40,_ZNSt7__cxx1112basic_stringIcSt11char_traitsIcESaIcEE12_M_constructIPKcEEvT_S8_St20forward_iterator_tag
FNF:2
FNH:1
DA:206,0
DA:211,0
DA:212,0
DA:215,0
DA:217,0
DA:219,0
DA:220,0
DA:232,0
DA:233,0
DA:206,40
DA:211,40
DA:212,0
DA:215,40
DA:217,40
DA:219,0
DA:220,0
DA:232,40
DA:233,40
LF:18
LH:6
end_of_record
SF:/home/runner/work/raccoon/raccoon/moose/framework/build/header_symlinks/MooseMain.h
FN:37,_ZN5Moose4mainI14raccoonTestAppEEviPPc
FNDA:40,_ZN5Moose4mainI14raccoonTestAppEEviPPc
FNF:1
FNH:1
DA:37,40
DA:39,40
DA:41,40
DA:43,40
DA:45,40
DA:47,40
DA:48,40
LF:7
LH:7
end_of_record
SF:/home/runner/micromamba/envs/moose/x86_64-conda-linux-gnu/include/c++/10.4.0/bits/unique_ptr.h
FN:165,_ZNSt15__uniq_ptr_implIN7libMesh10Parameters5ValueESt14default_deleteIS2_EEaSEOS5_
FNDA:0,_ZNSt15__uniq_ptr_implIN7libMesh10Parameters5ValueESt14default_deleteIS2_EEaSEOS5_
FN:355,_ZNSt10unique_ptrINSt13__future_base12_Result_baseENS1_8_DeleterEED2Ev
FNDA:0,_ZNSt10unique_ptrINSt13__future_base12_Result_baseENS1_8_DeleterEED2Ev
FN:355,_ZNSt10unique_ptrIN7libMesh10Parameters5ValueESt14default_deleteIS2_EED2Ev
FNDA:11352464,_ZNSt10unique_ptrIN7libMesh10Parameters5ValueESt14default_deleteIS2_EED2Ev
FNF:3
FNH:1
DA:85,11352464
DA:86,11352464
DA:165,0
DA:169,0
DA:173,0
DA:179,0
DA:180,0
DA:181,0
DA:187,0
DA:188,0
DA:212,0
DA:355,0
DA:360,0
DA:363,0
DA:355,11352464
DA:360,11352464
DA:363,11352464
LF:17
LH:5
end_of_record
SF:/home/runner/work/raccoon/raccoon/moose/framework/build/header_symlinks/MooseError.h
LF:0
LH:0
end_of_record
SF:/home/runner/micromamba/envs/moose/x86_64-conda-linux-gnu/include/c++/10.4.0/bits/stl_pair.h
DA:211,11352464
LF:1
LH:1
end_of_record
SF:/home/runner/micromamba/envs/moose/x86_64-conda-linux-gnu/include/c++/10.4.0/typeinfo
DA:100,40
LF:1
LH:1
end_of_record
SF:/home/runner/micromamba/envs/moose/x86_64-conda-linux-gnu/include/c++/10.4.0/iostream
LF:0
LH:0
end_of_record
TN:
SF:/home/runner/micromamba/envs/moose/x86_64-conda-linux-gnu/include/c++/10.4.0/bits/stl_construct.h
FN:149,_ZNSt12_Destroy_auxILb0EE9__destroyIPSt10shared_ptrI17RegistryEntryBaseEEEvT_S6_
FNDA:0,_ZNSt12_Destroy_auxILb0EE9__destroyIPSt10shared_ptrI17RegistryEntryBaseEEEvT_S6_
FN:149,_ZNSt12_Destroy_auxILb0EE9__destroyIPSt5tupleIJNSt7__cxx1112basic_stringIcSt11char_traitsIcESaIcEEEN5Moose23RelationshipManagerTypeESt8functionIFvRK15InputParametersRSC_EEEEEEvT_SK_
FNDA:0,_ZNSt12_Destroy_auxILb0EE9__destroyIPSt5tupleIJNSt7__cxx1112basic_stringIcSt11char_traitsIcESaIcEEEN5Moose23RelationshipManagerTypeESt8functionIFvRK15InputParametersRSC_EEEEEEvT_SK_
FN:149,_ZNSt12_Destroy_auxILb0EE9__destroyIPSt3setIP18MooseVariableFieldIdESt4lessIS5_ESaIS5_EEEEvT_SB_
FNDA:0,_ZNSt12_Destroy_auxILb0EE9__destroyIPSt3setIP18MooseVariableFieldIdESt4lessIS5_ESaIS5_EEEEvT_SB_
FNF:3
FNH:0
DA:140,0
DA:149,0
DA:151,0
DA:153,0
DA:149,0
DA:151,0
DA:153,0
DA:149,0
DA:151,0
DA:153,0
DA:151,0
DA:185,0
LF:12
LH:0
end_of_record
SF:/home/runner/work/raccoon/raccoon/moose/framework/build/header_symlinks/MooseObject.h
FN:45,_ZN11MooseObjectD0Ev
FNDA:0,_ZN11MooseObjectD0Ev
FN:45,_ZN11MooseObjectD2Ev
FNDA:0,_ZN11MooseObjectD2Ev
FN:50,_ZNK11MooseObject7enabledEv
FNDA:0,_ZNK11MooseObject7enabledEv
FNF:3
FNH:0
DA:45,0
DA:45,0
DA:50,0
LF:3
LH:0
end_of_record
SF:/home/runner/micromamba/envs/moose/x86_64-conda-linux-gnu/include/c++/10.4.0/bits/alloc_traits.h
FN:459,_ZNSt16allocator_traitsISaISt10shared_ptrI17RegistryEntryBaseEEE8allocateERS3_m
FNDA:0,_ZNSt16allocator_traitsISaISt10shared_ptrI17RegistryEntryBaseEEE8allocateERS3_m
FN:459,_ZNSt16allocator_traitsISaIdEE8allocateERS0_m
FNDA:0,_ZNSt16allocator_traitsISaIdEE8allocateERS0_m
FNF:2
FNH:0
DA:459,0
DA:460,0
DA:459,0
DA:460,0
DA:492,0
DA:512,0
DA:516,0
LF:7
LH:0
end_of_record
SF:/home/runner/work/raccoon/raccoon/moose/framework/build/header_symlinks/UserObjectInterface.h
FN:108,_ZNK19UserObjectInterface29addUserObjectDependencyHelperERK10UserObject
FNDA:0,_ZNK19UserObjectInterface29addUserObjectDependencyHelperERK10UserObject
FNF:1
FNH:0
DA:108,0
LF:1
LH:0
end_of_record
SF:/home/runner/work/raccoon/raccoon/build/header_symlinks/LoadingUnloadingDirichletBC.h
LF:0
LH:0
end_of_record
SF:/home/runner/work/raccoon/raccoon/moose/framework/build/header_symlinks/MooseBaseParameterInterface.h
DA:47,0
DA:206,0
LF:2
LH:0
end_of_record
SF:/home/runner/work/raccoon/raccoon/moose/framework/build/header_symlinks/VectorPostprocessorInterface.h
FN:311,_ZNK28VectorPostprocessorInterface38addVectorPostprocessorDependencyHelperERK23VectorPostprocessorName
FNDA:0,_ZNK28VectorPostprocessorInterface38addVectorPostprocessorDependencyHelperERK23VectorPostprocessorName
FNF:1
FNH:0
DA:311,0
DA:313,0
LF:2
LH:0
end_of_record
SF:/home/runner/micromamba/envs/moose/libmesh/include/libmesh/elem.h
FN:576,_ZNK7libMesh4Elem9is_remoteEv
FNDA:0,_ZNK7libMesh4Elem9is_remoteEv
FN:634,_ZNK7libMesh4Elem16n_nodes_in_childEj
FNDA:0,_ZNK7libMesh4Elem16n_nodes_in_childEj
FN:720,_ZNK7libMesh4Elem18is_vertex_on_childEjj
FNDA:0,_ZNK7libMesh4Elem18is_vertex_on_childEjj
FN:918,_ZNK7libMesh4Elem18default_side_orderEv
FNDA:0,_ZNK7libMesh4Elem18default_side_orderEv
FN:962,_ZNK7libMesh4Elem17quasicircumcenterEv
FNDA:0,_ZNK7libMesh4Elem17quasicircumcenterEv
FN:1010,_ZNK7libMesh4Elem11qual_boundsENS_11ElemQualityE
FNDA:0,_ZNK7libMesh4Elem11qual_boundsENS_11ElemQualityE
FN:1050,_ZNK7libMesh4Elem14has_affine_mapEv
FNDA:0,_ZNK7libMesh4Elem14has_affine_mapEv
FN:1066,_ZNK7libMesh4Elem9is_linearEv
FNDA:0,_ZNK7libMesh4Elem9is_linearEv
FN:1684,_ZNK7libMesh4Elem19local_singular_nodeERKNS_5PointEd
FNDA:0,_ZNK7libMesh4Elem19local_singular_nodeERKNS_5PointEd
FN:1691,_ZNK7libMesh4Elem16is_singular_nodeEj
FNDA:0,_ZNK7libMesh4Elem16is_singular_nodeEj
FN:1892,_ZNK7libMesh4Elem24embedding_matrix_versionEv
FNDA:0,_ZNK7libMesh4Elem24embedding_matrix_versionEv
FN:2051,_ZNK7libMesh4Elem26_get_bracketing_node_cacheEv
FNDA:0,_ZNK7libMesh4Elem26_get_bracketing_node_cacheEv
FN:2065,_ZNK7libMesh4Elem25_get_parent_indices_cacheEv
FNDA:0,_ZNK7libMesh4Elem25_get_parent_indices_cacheEv
FN:2381,_ZN7libMesh4Elem8set_nodeEj
FNDA:0,_ZN7libMesh4Elem8set_nodeEj
FNF:14
FNH:0
DA:576,0
DA:577,0
DA:634,0
DA:635,0
DA:720,0
DA:722,0
DA:918,0
DA:962,0
DA:963,0
DA:1010,0
DA:1011,0
DA:1050,0
DA:1066,0
DA:1684,0
DA:1685,0
DA:1691,0
DA:1892,0
DA:2051,0
DA:2053,0
DA:2054,0
DA:2065,0
DA:2067,0
DA:2068,0
DA:2381,0
DA:2385,0
LF:25
LH:0
end_of_record
SF:/home/runner/work/raccoon/raccoon/moose/framework/build/header_symlinks/MooseBase.h
FN:40,_ZN9MooseBaseD0Ev
FNDA:0,_ZN9MooseBaseD0Ev
FN:40,_ZN9MooseBaseD2Ev
FNDA:0,_ZN9MooseBaseD2Ev
FN:57,_ZNK9MooseBase4nameB5cxx11Ev
FNDA:0,_ZNK9MooseBase4nameB5cxx11Ev
FNF:3
FNH:0
DA:40,0
DA:40,0
DA:57,0
LF:3
LH:0
end_of_record
SF:/home/runner/micromamba/envs/moose/x86_64-conda-linux-gnu/include/c++/10.4.0/future
FN:328,_ZNSt13__future_base13_State_baseV2D0Ev
FNDA:0,_ZNSt13__future_base13_State_baseV2D0Ev
FN:328,_ZNSt13__future_base13_State_baseV2D2Ev
FNDA:0,_ZNSt13__future_base13_State_baseV2D2Ev
FN:581,_ZNSt13__future_base13_State_baseV217_M_complete_asyncEv
FNDA:0,_ZNSt13__future_base13_State_baseV217_M_complete_asyncEv
FN:584,_ZNKSt13__future_base13_State_baseV221_M_is_deferred_futureEv
FNDA:0,_ZNKSt13__future_base13_State_baseV221_M_is_deferred_futureEv
FN:663,_ZNSt13__future_base7_ResultIvE10_M_destroyEv
FNDA:0,_ZNSt13__future_base7_ResultIvE10_M_destroyEv
FNF:5
FNH:0
DA:213,0
DA:328,0
DA:328,0
DA:581,0
DA:584,0
DA:663,0
LF:6
LH:0
end_of_record
SF:/home/runner/micromamba/envs/moose/x86_64-conda-linux-gnu/include/c++/10.4.0/bits/std_function.h
FN:242,_ZNSt14_Function_baseD2Ev
FNDA:0,_ZNSt14_Function_baseD2Ev
FNF:1
FNH:0
DA:242,0
DA:243,0
DA:244,0
DA:245,0
DA:246,0
DA:303,0
LF:6
LH:0
end_of_record
SF:/home/runner/work/raccoon/raccoon/moose/framework/build/header_symlinks/Coupleable.h
FN:135,_ZNK10Coupleable15coupledCallbackERKNSt7__cxx1112basic_stringIcSt11char_traitsIcESaIcEEEb
FNDA:0,_ZNK10Coupleable15coupledCallbackERKNSt7__cxx1112basic_stringIcSt11char_traitsIcESaIcEEEb
FNF:1
FNH:0
DA:135,0
LF:1
LH:0
end_of_record
SF:/home/runner/work/raccoon/raccoon/moose/framework/build/header_symlinks/ResidualObject.h
FN:76,_ZN14ResidualObject22computeOffDiagJacobianEj
FNDA:0,_ZN14ResidualObject22computeOffDiagJacobianEj
FN:82,_ZN14ResidualObject28computeOffDiagJacobianScalarEj
FNDA:0,_ZN14ResidualObject28computeOffDiagJacobianScalarEj
FN:88,_ZN14ResidualObject23computeNonlocalJacobianEv
FNDA:0,_ZN14ResidualObject23computeNonlocalJacobianEv
FN:93,_ZN14ResidualObject30computeNonlocalOffDiagJacobianEj
FNDA:0,_ZN14ResidualObject30computeNonlocalOffDiagJacobianEj
FN:112,_ZN14ResidualObject20precalculateResidualEv
FNDA:0,_ZN14ResidualObject20precalculateResidualEv
FN:113,_ZN14ResidualObject20precalculateJacobianEv
FNDA:0,_ZN14ResidualObject20precalculateJacobianEv
FN:114,_ZN14ResidualObject27precalculateOffDiagJacobianEj
FNDA:0,_ZN14ResidualObject27precalculateOffDiagJacobianEj
FNF:7
FNH:0
DA:76,0
DA:82,0
DA:88,0
DA:93,0
DA:112,0
DA:113,0
DA:114,0
LF:7
LH:0
end_of_record
SF:/home/runner/micromamba/envs/moose/x86_64-conda-linux-gnu/include/c++/10.4.0/bits/stl_pair.h
DA:211,0
LF:1
LH:0
end_of_record
SF:/home/runner/micromamba/envs/moose/x86_64-conda-linux-gnu/include/c++/10.4.0/typeinfo
FN:120,_ZNKSt9type_infoeqERKS_
FNDA:0,_ZNKSt9type_infoeqERKS_
FNF:1
FNH:0
DA:100,0
DA:120,0
DA:122,0
DA:123,0
DA:124,0
LF:5
LH:0
end_of_record
SF:/home/runner/micromamba/envs/moose/x86_64-conda-linux-gnu/include/c++/10.4.0/bits/std_mutex.h
FN:98,_ZNSt5mutex4lockEv
FNDA:0,_ZNSt5mutex4lockEv
FNF:1
FNH:0
DA:98,0
DA:100,0
DA:103,0
DA:104,0
DA:105,0
DA:159,0
LF:6
LH:0
end_of_record
SF:/home/runner/micromamba/envs/moose/x86_64-conda-linux-gnu/include/c++/10.4.0/ext/new_allocator.h
FN:154,_ZN9__gnu_cxx13new_allocatorISt13_Rb_tree_nodeISt4pairIKNSt7__cxx1112basic_stringIcSt11char_traitsIcESaIcEEES8_EEE9constructISA_JRKSt21piecewise_construct_tSt5tupleIJOS8_EESH_IJEEEEEvPT_DpOT0_
FNDA:0,_ZN9__gnu_cxx13new_allocatorISt13_Rb_tree_nodeISt4pairIKNSt7__cxx1112basic_stringIcSt11char_traitsIcESaIcEEES8_EEE9constructISA_JRKSt21piecewise_construct_tSt5tupleIJOS8_EESH_IJEEEEEvPT_DpOT0_
FN:154,_ZN9__gnu_cxx13new_allocatorISt13_Rb_tree_nodeISt4pairIKNSt7__cxx1112basic_stringIcSt11char_traitsIcESaIcEEEN15InputParameters8MetadataEEEE9constructISC_JRKSt21piecewise_construct_tSt5tupleIJRS9_EESJ_IJEEEEEvPT_DpOT0_
FNDA:0,_ZN9__gnu_cxx13new_allocatorISt13_Rb_tree_nodeISt4pairIKNSt7__cxx1112basic_stringIcSt11char_traitsIcESaIcEEEN15InputParameters8MetadataEEEE9constructISC_JRKSt21piecewise_construct_tSt5tupleIJRS9_EESJ_IJEEEEEvPT_DpOT0_
FNF:2
FNH:0
DA:111,0
DA:112,0
DA:121,80
DA:139,0
DA:154,0
DA:156,0
DA:154,0
DA:156,0
DA:162,0
LF:9
LH:1
end_of_record
SF:/home/runner/micromamba/envs/moose/x86_64-conda-linux-gnu/include/c++/10.4.0/bits/stl_iterator_base_funcs.h
DA:104,3824
LF:1
LH:1
end_of_record
SF:/home/runner/work/raccoon/raccoon/src/bcs/LoadingUnloadingDirichletBC.C
FN:10,_ZN27LoadingUnloadingDirichletBC11validParamsEv
FNDA:126,_ZN27LoadingUnloadingDirichletBC11validParamsEv
FN:35,_ZN27LoadingUnloadingDirichletBCC2ERK15InputParameters
FNDA:0,_ZN27LoadingUnloadingDirichletBCC2ERK15InputParameters
FN:48,_ZN27LoadingUnloadingDirichletBC13timestepSetupEv
FNDA:0,_ZN27LoadingUnloadingDirichletBC13timestepSetupEv
FN:89,_ZN27LoadingUnloadingDirichletBC14computeQpValueEv
FNDA:0,_ZN27LoadingUnloadingDirichletBC14computeQpValueEv
FNF:4
FNH:1
DA:10,126
DA:12,126
DA:13,126
DA:19,252
DA:23,252
DA:25,252
DA:26,252
DA:28,252
DA:32,126
DA:35,0
DA:38,0
DA:39,0
DA:40,0
DA:41,0
DA:42,0
DA:43,0
DA:45,0
DA:48,0
DA:50,0
DA:51,0
DA:52,0
DA:54,0
DA:55,0
DA:56,0
DA:59,0
DA:61,0
DA:62,0
DA:64,0
DA:65,0
DA:66,0
DA:67,0
DA:68,0
DA:69,0
DA:70,0
DA:75,0
DA:78,0
DA:79,0
DA:80,0
DA:82,0
DA:83,0
DA:85,0
DA:86,0
DA:89,0
DA:91,0
LF:44
LH:9
end_of_record
SF:/home/runner/micromamba/envs/moose/libmesh/include/libmesh/libmesh_exceptions.h
FN:51,_ZN7libMesh14NotImplementedC2ENSt7__cxx1112basic_stringIcSt11char_traitsIcESaIcEEE
FNDA:0,_ZN7libMesh14NotImplementedC2ENSt7__cxx1112basic_stringIcSt11char_traitsIcESaIcEEE
FNF:1
FNH:0
DA:39,0
DA:51,0
LF:2
LH:0
end_of_record
SF:/home/runner/work/raccoon/raccoon/moose/framework/build/header_symlinks/MooseEnumItem.h
DA:24,0
LF:1
LH:0
end_of_record
SF:/home/runner/micromamba/envs/moose/x86_64-conda-linux-gnu/include/c++/10.4.0/string_view
FN:288,_ZNKSt17basic_string_viewIcSt11char_traitsIcEE7compareES2_
FNDA:0,_ZNKSt17basic_string_viewIcSt11char_traitsIcEE7compareES2_
FNF:1
FNH:0
DA:288,0
DA:290,0
DA:291,0
DA:292,0
DA:294,0
DA:463,0
DA:464,0
DA:466,0
DA:468,0
DA:552,0
DA:558,0
DA:623,0
LF:12
LH:0
end_of_record
SF:/home/runner/work/raccoon/raccoon/moose/framework/build/header_symlinks/BoundaryRestrictable.h
FN:179,_ZNK20BoundaryRestrictable30checkVariableBoundaryIntegrityEv
FNDA:0,_ZNK20BoundaryRestrictable30checkVariableBoundaryIntegrityEv
FNF:1
FNH:0
DA:179,0
LF:1
LH:0
end_of_record
SF:/home/runner/micromamba/envs/moose/x86_64-conda-linux-gnu/include/c++/10.4.0/bits/shared_ptr.h
FN:407,_ZNSt10shared_ptrI13RegistryEntryI23ModeISurfingDirichletBCEEC2ISaIS2_EJRK17RegistryEntryDataEEESt20_Sp_alloc_shared_tagIT_EDpOT0_
FNDA:40,_ZNSt10shared_ptrI13RegistryEntryI23ModeISurfingDirichletBCEEC2ISaIS2_EJRK17RegistryEntryDataEEESt20_Sp_alloc_shared_tagIT_EDpOT0_
FN:407,_ZNSt10shared_ptrI13RegistryEntryI27LoadingUnloadingDirichletBCEEC2ISaIS2_EJRK17RegistryEntryDataEEESt20_Sp_alloc_shared_tagIT_EDpOT0_
FNDA:40,_ZNSt10shared_ptrI13RegistryEntryI27LoadingUnloadingDirichletBCEEC2ISaIS2_EJRK17RegistryEntryDataEEESt20_Sp_alloc_shared_tagIT_EDpOT0_
FNF:2
FNH:2
DA:121,160
DA:407,40
DA:408,40
DA:409,40
DA:407,40
DA:408,40
DA:409,40
DA:802,0
DA:862,80
DA:877,80
LF:10
LH:9
end_of_record
SF:/home/runner/micromamba/envs/moose/x86_64-conda-linux-gnu/include/c++/10.4.0/tuple
FN:1702,_ZNSt4pairIKNSt7__cxx1112basic_stringIcSt11char_traitsIcESaIcEEES5_EC2IJOS5_EJLm0EEJEJEEERSt5tupleIJDpT_EERSA_IJDpT1_EESt12_Index_tupleIJXspT0_EEESJ_IJXspT2_EEE
FNDA:0,_ZNSt4pairIKNSt7__cxx1112basic_stringIcSt11char_traitsIcESaIcEEES5_EC2IJOS5_EJLm0EEJEJEEERSt5tupleIJDpT_EERSA_IJDpT1_EESt12_Index_tupleIJXspT0_EEESJ_IJXspT2_EEE
FN:1702,_ZNSt4pairIKNSt7__cxx1112basic_stringIcSt11char_traitsIcESaIcEEEN15InputParameters8MetadataEEC2IJRS6_EJLm0EEJEJEEERSt5tupleIJDpT_EERSC_IJDpT1_EESt12_Index_tupleIJXspT0_EEESL_IJXspT2_EEE
FNDA:0,_ZNSt4pairIKNSt7__cxx1112basic_stringIcSt11char_traitsIcESaIcEEEN15InputParameters8MetadataEEC2IJRS6_EJLm0EEJEJEEERSt5tupleIJDpT_EERSC_IJDpT1_EESt12_Index_tupleIJXspT0_EEESL_IJXspT2_EEE
FNF:2
FNH:0
DA:130,0
DA:132,0
DA:133,0
DA:135,0
DA:136,0
DA:142,0
DA:143,0
DA:176,0
DA:532,0
DA:1690,0
DA:1695,0
DA:1702,0
DA:1707,0
DA:1702,0
DA:1706,0
DA:1707,0
DA:1702,0
DA:1706,0
LF:18
LH:0
end_of_record
SF:/home/runner/micromamba/envs/moose/x86_64-conda-linux-gnu/include/c++/10.4.0/ostream
DA:132,0
DA:133,0
DA:196,0
DA:221,0
DA:246,0
DA:518,0
LF:6
LH:0
end_of_record
SF:/home/runner/micromamba/envs/moose/x86_64-conda-linux-gnu/include/c++/10.4.0/bits/stl_multimap.h
DA:297,0
LF:1
LH:0
end_of_record
SF:/home/runner/micromamba/envs/moose/x86_64-conda-linux-gnu/include/c++/10.4.0/bits/ios_base.h
FN:1079,_ZSt10scientificRSt8ios_base
FNDA:0,_ZSt10scientificRSt8ios_base
FNF:1
FNH:0
DA:84,0
DA:88,0
DA:100,0
DA:695,0
DA:1079,0
DA:1082,0
LF:6
LH:0
end_of_record
SF:/home/runner/micromamba/envs/moose/x86_64-conda-linux-gnu/include/c++/10.4.0/bits/shared_ptr_base.h
FN:134,_ZNSt16_Sp_counted_baseILN9__gnu_cxx12_Lock_policyE2EE10_M_destroyEv
FNDA:0,_ZNSt16_Sp_counted_baseILN9__gnu_cxx12_Lock_policyE2EE10_M_destroyEv
FN:141,_ZNSt16_Sp_counted_baseILN9__gnu_cxx12_Lock_policyE2EE15_M_add_ref_copyEv
FNDA:80,_ZNSt16_Sp_counted_baseILN9__gnu_cxx12_Lock_policyE2EE15_M_add_ref_copyEv
FN:151,_ZNSt16_Sp_counted_baseILN9__gnu_cxx12_Lock_policyE2EE10_M_releaseEv
FNDA:0,_ZNSt16_Sp_counted_baseILN9__gnu_cxx12_Lock_policyE2EE10_M_releaseEv
FN:184,_ZNSt16_Sp_counted_baseILN9__gnu_cxx12_Lock_policyE2EE15_M_weak_releaseEv
FNDA:0,_ZNSt16_Sp_counted_baseILN9__gnu_cxx12_Lock_policyE2EE15_M_weak_releaseEv
FN:407,_ZNSt15_Sp_counted_ptrIDnLN9__gnu_cxx12_Lock_policyE2EE10_M_disposeEv
FNDA:0,_ZNSt15_Sp_counted_ptrIDnLN9__gnu_cxx12_Lock_policyE2EE10_M_disposeEv
FN:555,_ZNSt23_Sp_counted_ptr_inplaceI13RegistryEntryI27LoadingUnloadingDirichletBCESaIS2_ELN9__gnu_cxx12_Lock_policyE2EED2Ev
FNDA:0,_ZNSt23_Sp_counted_ptr_inplaceI13RegistryEntryI27LoadingUnloadingDirichletBCESaIS2_ELN9__gnu_cxx12_Lock_policyE2EED2Ev
FN:555,_ZNSt23_Sp_counted_ptr_inplaceI13RegistryEntryI23ModeISurfingDirichletBCESaIS2_ELN9__gnu_cxx12_Lock_policyE2EED2Ev
FNDA:0,_ZNSt23_Sp_counted_ptr_inplaceI13RegistryEntryI23ModeISurfingDirichletBCESaIS2_ELN9__gnu_cxx12_Lock_policyE2EED2Ev
FN:555,_ZNSt23_Sp_counted_ptr_inplaceI13RegistryEntryI23ModeISurfingDirichletBCESaIS2_ELN9__gnu_cxx12_Lock_policyE2EED0Ev
FNDA:0,_ZNSt23_Sp_counted_ptr_inplaceI13RegistryEntryI23ModeISurfingDirichletBCESaIS2_ELN9__gnu_cxx12_Lock_policyE2EED0Ev
FN:555,_ZNSt23_Sp_counted_ptr_inplaceI13RegistryEntryI27LoadingUnloadingDirichletBCESaIS2_ELN9__gnu_cxx12_Lock_policyE2EED0Ev
FNDA:0,_ZNSt23_Sp_counted_ptr_inplaceI13RegistryEntryI27LoadingUnloadingDirichletBCESaIS2_ELN9__gnu_cxx12_Lock_policyE2EED0Ev
FN:555,_ZNSt23_Sp_counted_ptr_inplaceINSt13__future_base13_State_baseV2ESaIS1_ELN9__gnu_cxx12_Lock_policyE2EED2Ev
FNDA:0,_ZNSt23_Sp_counted_ptr_inplaceINSt13__future_base13_State_baseV2ESaIS1_ELN9__gnu_cxx12_Lock_policyE2EED2Ev
FN:555,_ZNSt23_Sp_counted_ptr_inplaceINSt13__future_base13_State_baseV2ESaIS1_ELN9__gnu_cxx12_Lock_policyE2EED0Ev
FNDA:0,_ZNSt23_Sp_counted_ptr_inplaceINSt13__future_base13_State_baseV2ESaIS1_ELN9__gnu_cxx12_Lock_policyE2EED0Ev
FN:555,_ZNSt23_Sp_counted_ptr_inplaceISt5mutexSaIS0_ELN9__gnu_cxx12_Lock_policyE2EED2Ev
FNDA:0,_ZNSt23_Sp_counted_ptr_inplaceISt5mutexSaIS0_ELN9__gnu_cxx12_Lock_policyE2EED2Ev
FN:555,_ZNSt23_Sp_counted_ptr_inplaceISt5mutexSaIS0_ELN9__gnu_cxx12_Lock_policyE2EED0Ev
FNDA:0,_ZNSt23_Sp_counted_ptr_inplaceISt5mutexSaIS0_ELN9__gnu_cxx12_Lock_policyE2EED0Ev
FN:558,_ZNSt23_Sp_counted_ptr_inplaceI13RegistryEntryI27LoadingUnloadingDirichletBCESaIS2_ELN9__gnu_cxx12_Lock_policyE2EE10_M_disposeEv
FNDA:0,_ZNSt23_Sp_counted_ptr_inplaceI13RegistryEntryI27LoadingUnloadingDirichletBCESaIS2_ELN9__gnu_cxx12_Lock_policyE2EE10_M_disposeEv
FN:558,_ZNSt23_Sp_counted_ptr_inplaceI13RegistryEntryI23ModeISurfingDirichletBCESaIS2_ELN9__gnu_cxx12_Lock_policyE2EE10_M_disposeEv
FNDA:0,_ZNSt23_Sp_counted_ptr_inplaceI13RegistryEntryI23ModeISurfingDirichletBCESaIS2_ELN9__gnu_cxx12_Lock_policyE2EE10_M_disposeEv
FN:558,_ZNSt23_Sp_counted_ptr_inplaceINSt13__future_base13_State_baseV2ESaIS1_ELN9__gnu_cxx12_Lock_policyE2EE10_M_disposeEv
FNDA:0,_ZNSt23_Sp_counted_ptr_inplaceINSt13__future_base13_State_baseV2ESaIS1_ELN9__gnu_cxx12_Lock_policyE2EE10_M_disposeEv
FN:558,_ZNSt23_Sp_counted_ptr_inplaceISt5mutexSaIS0_ELN9__gnu_cxx12_Lock_policyE2EE10_M_disposeEv
FNDA:0,_ZNSt23_Sp_counted_ptr_inplaceISt5mutexSaIS0_ELN9__gnu_cxx12_Lock_policyE2EE10_M_disposeEv
FN:565,_ZNSt23_Sp_counted_ptr_inplaceI13RegistryEntryI27LoadingUnloadingDirichletBCESaIS2_ELN9__gnu_cxx12_Lock_policyE2EE10_M_destroyEv
FNDA:0,_ZNSt23_Sp_counted_ptr_inplaceI13RegistryEntryI27LoadingUnloadingDirichletBCESaIS2_ELN9__gnu_cxx12_Lock_policyE2EE10_M_destroyEv
FN:565,_ZNSt23_Sp_counted_ptr_inplaceISt5mutexSaIS0_ELN9__gnu_cxx12_Lock_policyE2EE10_M_destroyEv
FNDA:0,_ZNSt23_Sp_counted_ptr_inplaceISt5mutexSaIS0_ELN9__gnu_cxx12_Lock_policyE2EE10_M_destroyEv
FN:565,_ZNSt23_Sp_counted_ptr_inplaceI13RegistryEntryI23ModeISurfingDirichletBCESaIS2_ELN9__gnu_cxx12_Lock_policyE2EE10_M_destroyEv
FNDA:0,_ZNSt23_Sp_counted_ptr_inplaceI13RegistryEntryI23ModeISurfingDirichletBCESaIS2_ELN9__gnu_cxx12_Lock_policyE2EE10_M_destroyEv
FN:565,_ZNSt23_Sp_counted_ptr_inplaceINSt13__future_base13_State_baseV2ESaIS1_ELN9__gnu_cxx12_Lock_policyE2EE10_M_destroyEv
FNDA:0,_ZNSt23_Sp_counted_ptr_inplaceINSt13__future_base13_State_baseV2ESaIS1_ELN9__gnu_cxx12_Lock_policyE2EE10_M_destroyEv
FN:578,_ZNSt23_Sp_counted_ptr_inplaceI13RegistryEntryI27LoadingUnloadingDirichletBCESaIS2_ELN9__gnu_cxx12_Lock_policyE2EE14_M_get_deleterERKSt9type_info
FNDA:0,_ZNSt23_Sp_counted_ptr_inplaceI13RegistryEntryI27LoadingUnloadingDirichletBCESaIS2_ELN9__gnu_cxx12_Lock_policyE2EE14_M_get_deleterERKSt9type_info
FN:578,_ZNSt23_Sp_counted_ptr_inplaceI13RegistryEntryI23ModeISurfingDirichletBCESaIS2_ELN9__gnu_cxx12_Lock_policyE2EE14_M_get_deleterERKSt9type_info
FNDA:0,_ZNSt23_Sp_counted_ptr_inplaceI13RegistryEntryI23ModeISurfingDirichletBCESaIS2_ELN9__gnu_cxx12_Lock_policyE2EE14_M_get_deleterERKSt9type_info
FN:675,_ZNSt14__shared_countILN9__gnu_cxx12_Lock_policyE2EEC2I13RegistryEntryI23ModeISurfingDirichletBCESaIS6_EJRK17RegistryEntryDataEEERPT_St20_Sp_alloc_shared_tagIT0_EDpOT1_
FNDA:40,_ZNSt14__shared_countILN9__gnu_cxx12_Lock_policyE2EEC2I13RegistryEntryI23ModeISurfingDirichletBCESaIS6_EJRK17RegistryEntryDataEEERPT_St20_Sp_alloc_shared_tagIT0_EDpOT1_
FN:675,_ZNSt14__shared_countILN9__gnu_cxx12_Lock_policyE2EEC2I13RegistryEntryI27LoadingUnloadingDirichletBCESaIS6_EJRK17RegistryEntryDataEEERPT_St20_Sp_alloc_shared_tagIT0_EDpOT1_
FNDA:40,_ZNSt14__shared_countILN9__gnu_cxx12_Lock_policyE2EEC2I13RegistryEntryI27LoadingUnloadingDirichletBCESaIS6_EJRK17RegistryEntryDataEEERPT_St20_Sp_alloc_shared_tagIT0_EDpOT1_
FNF:25
FNH:3
DA:120,80
DA:121,80
DA:134,0
DA:135,0
DA:141,80
DA:142,80
DA:151,0
DA:155,0
DA:158,0
DA:170,0
DA:174,0
DA:177,0
DA:184,0
DA:188,0
DA:197,0
DA:199,0
DA:407,0
DA:546,80
DA:547,80
DA:555,0
DA:555,0
DA:555,0
DA:555,0
DA:555,0
DA:555,0
DA:555,0
DA:555,0
DA:555,0
DA:558,0
DA:561,0
DA:558,0
DA:561,0
DA:558,0
DA:561,0
DA:558,0
DA:561,0
DA:565,0
DA:568,0
DA:570,0
DA:565,0
DA:568,0
DA:570,0
DA:565,0
DA:568,0
DA:570,0
DA:565,0
DA:568,0
DA:570,0
DA:578,0
DA:586,0
DA:588,0
DA:593,0
DA:578,0
DA:586,0
DA:588,0
DA:593,0
DA:619,80
DA:675,40
DA:680,0
DA:685,40
DA:686,40
DA:687,40
DA:675,40
DA:680,0
DA:685,40
DA:686,40
DA:687,40
DA:735,160
DA:736,80
DA:739,80
DA:740,80
DA:742,80
DA:743,80
DA:764,80
DA:765,80
DA:766,80
DA:828,0
DA:829,0
DA:1192,80
DA:1195,80
DA:1196,0
DA:1199,80
DA:1330,160
DA:1375,80
DA:1376,80
LF:85
LH:30
end_of_record
SF:/home/runner/micromamba/envs/moose/libmesh/include/Eigen/src/Core/Matrix.h
DA:178,0
LF:1
LH:0
end_of_record
SF:/home/runner/work/raccoon/raccoon/moose/framework/build/header_symlinks/MooseTypes.h
DA:1063,0
DA:1075,0
LF:2
LH:0
end_of_record
SF:/home/runner/micromamba/envs/moose/x86_64-conda-linux-gnu/include/c++/10.4.0/bits/hashtable_policy.h
FN:2052,_ZNSt8__detail16_Hashtable_allocISaINS_10_Hash_nodeISt4pairIKNSt7__cxx1112basic_stringIcSt11char_traitsIcESaIcEEES8_ELb1EEEEE18_M_deallocate_nodeEPSB_
FNDA:0,_ZNSt8__detail16_Hashtable_allocISaINS_10_Hash_nodeISt4pairIKNSt7__cxx1112basic_stringIcSt11char_traitsIcESaIcEEES8_ELb1EEEEE18_M_deallocate_nodeEPSB_
FN:2052,_ZNSt8__detail16_Hashtable_allocISaINS_10_Hash_nodeISt4pairIKNSt7__cxx1112basic_stringIcSt11char_traitsIcESaIcEEESt10unique_ptrI10MooseArrayIdESt14default_deleteISC_EEELb1EEEEE18_M_deallocate_nodeEPSH_
FNDA:0,_ZNSt8__detail16_Hashtable_allocISaINS_10_Hash_nodeISt4pairIKNSt7__cxx1112basic_stringIcSt11char_traitsIcESaIcEEESt10unique_ptrI10MooseArrayIdESt14default_deleteISC_EEELb1EEEEE18_M_deallocate_nodeEPSH_
FN:2052,_ZNSt8__detail16_Hashtable_allocISaINS_10_Hash_nodeISt4pairIKNSt7__cxx1112basic_stringIcSt11char_traitsIcESaIcEEESt6vectorIP19MooseVariableScalarSaISC_EEELb1EEEEE18_M_deallocate_nodeEPSG_
FNDA:0,_ZNSt8__detail16_Hashtable_allocISaINS_10_Hash_nodeISt4pairIKNSt7__cxx1112basic_stringIcSt11char_traitsIcESaIcEEESt6vectorIP19MooseVariableScalarSaISC_EEELb1EEEEE18_M_deallocate_nodeEPSG_
FN:2052,_ZNSt8__detail16_Hashtable_allocISaINS_10_Hash_nodeISt4pairIKNSt7__cxx1112basic_stringIcSt11char_traitsIcESaIcEEESt6vectorIjSaIjEEELb1EEEEE18_M_deallocate_nodeEPSE_
FNDA:0,_ZNSt8__detail16_Hashtable_allocISaINS_10_Hash_nodeISt4pairIKNSt7__cxx1112basic_stringIcSt11char_traitsIcESaIcEEESt6vectorIjSaIjEEELb1EEEEE18_M_deallocate_nodeEPSE_
FN:2052,_ZNSt8__detail16_Hashtable_allocISaINS_10_Hash_nodeISt4pairIKNSt7__cxx1112basic_stringIcSt11char_traitsIcESaIcEEESt10unique_ptrI10MooseArrayIN7libMesh11VectorValueIN11MetaPhysicL10DualNumberIdNSE_28SemiDynamicSparseNumberArrayIdmNSE_8NWrapperILm64EEEEELb1EEEEEESt14default_deleteISM_EEELb1EEEEE18_M_deallocate_nodeEPSR_
FNDA:0,_ZNSt8__detail16_Hashtable_allocISaINS_10_Hash_nodeISt4pairIKNSt7__cxx1112basic_stringIcSt11char_traitsIcESaIcEEESt10unique_ptrI10MooseArrayIN7libMesh11VectorValueIN11MetaPhysicL10DualNumberIdNSE_28SemiDynamicSparseNumberArrayIdmNSE_8NWrapperILm64EEEEELb1EEEEEESt14default_deleteISM_EEELb1EEEEE18_M_deallocate_nodeEPSR_
FN:2052,_ZNSt8__detail16_Hashtable_allocISaINS_10_Hash_nodeISt4pairIKNSt7__cxx1112basic_stringIcSt11char_traitsIcESaIcEEESt10unique_ptrI10MooseArrayIN5Eigen6MatrixIdLin1ELi1ELi0ELin1ELi1EEEESt14default_deleteISF_EEELb1EEEEE18_M_deallocate_nodeEPSK_
FNDA:0,_ZNSt8__detail16_Hashtable_allocISaINS_10_Hash_nodeISt4pairIKNSt7__cxx1112basic_stringIcSt11char_traitsIcESaIcEEESt10unique_ptrI10MooseArrayIN5Eigen6MatrixIdLin1ELi1ELi0ELin1ELi1EEEESt14default_deleteISF_EEELb1EEEEE18_M_deallocate_nodeEPSK_
FN:2052,_ZNSt8__detail16_Hashtable_allocISaINS_10_Hash_nodeISt4pairIKNSt7__cxx1112basic_stringIcSt11char_traitsIcESaIcEEESt10unique_ptrI10MooseArrayIN7libMesh11VectorValueIdEEESt14default_deleteISF_EEELb1EEEEE18_M_deallocate_nodeEPSK_
FNDA:0,_ZNSt8__detail16_Hashtable_allocISaINS_10_Hash_nodeISt4pairIKNSt7__cxx1112basic_stringIcSt11char_traitsIcESaIcEEESt10unique_ptrI10MooseArrayIN7libMesh11VectorValueIdEEESt14default_deleteISF_EEELb1EEEEE18_M_deallocate_nodeEPSK_
FN:2052,_ZNSt8__detail16_Hashtable_allocISaINS_10_Hash_nodeISt4pairIKNSt7__cxx1112basic_stringIcSt11char_traitsIcESaIcEEESt10unique_ptrI10MooseArrayIN11MetaPhysicL10DualNumberIdNSC_28SemiDynamicSparseNumberArrayIdmNSC_8NWrapperILm64EEEEELb1EEEESt14default_deleteISJ_EEELb1EEEEE18_M_deallocate_nodeEPSO_
FNDA:0,_ZNSt8__detail16_Hashtable_allocISaINS_10_Hash_nodeISt4pairIKNSt7__cxx1112basic_stringIcSt11char_traitsIcESaIcEEESt10unique_ptrI10MooseArrayIN11MetaPhysicL10DualNumberIdNSC_28SemiDynamicSparseNumberArrayIdmNSC_8NWrapperILm64EEEEELb1EEEESt14default_deleteISJ_EEELb1EEEEE18_M_deallocate_nodeEPSO_
FN:2052,_ZNSt8__detail16_Hashtable_allocISaINS_10_Hash_nodeISt4pairIKNSt7__cxx1112basic_stringIcSt11char_traitsIcESaIcEEESt6vectorISt10unique_ptrI10MooseArrayIdESt14default_deleteISD_EESaISG_EEELb1EEEEE18_M_deallocate_nodeEPSK_
FNDA:0,_ZNSt8__detail16_Hashtable_allocISaINS_10_Hash_nodeISt4pairIKNSt7__cxx1112basic_stringIcSt11char_traitsIcESaIcEEESt6vectorISt10unique_ptrI10MooseArrayIdESt14default_deleteISD_EESaISG_EEELb1EEEEE18_M_deallocate_nodeEPSK_
FN:2052,_ZNSt8__detail16_Hashtable_allocISaINS_10_Hash_nodeISt4pairIKNSt7__cxx1112basic_stringIcSt11char_traitsIcESaIcEEESt6vectorIP22MooseVariableFieldBaseSaISC_EEELb1EEEEE18_M_deallocate_nodeEPSG_
FNDA:0,_ZNSt8__detail16_Hashtable_allocISaINS_10_Hash_nodeISt4pairIKNSt7__cxx1112basic_stringIcSt11char_traitsIcESaIcEEESt6vectorIP22MooseVariableFieldBaseSaISC_EEELb1EEEEE18_M_deallocate_nodeEPSG_
FNF:10
FNH:0
DA:270,0
DA:2052,0
DA:2056,0
DA:2052,0
DA:2056,0
DA:2052,0
DA:2056,0
DA:2052,0
DA:2056,0
DA:2052,0
DA:2056,0
DA:2052,0
DA:2056,0
DA:2052,0
DA:2056,0
DA:2052,0
DA:2056,0
DA:2052,0
DA:2056,0
DA:2052,0
DA:2056,0
DA:2064,0
DA:2072,0
DA:2076,0
DA:2101,0
LF:25
LH:0
end_of_record
SF:/home/runner/micromamba/envs/moose/x86_64-conda-linux-gnu/include/c++/10.4.0/streambuf
LF:0
LH:0
end_of_record
SF:/home/runner/micromamba/envs/moose/x86_64-conda-linux-gnu/include/c++/10.4.0/bits/basic_string.h
FN:533,_ZNSt7__cxx1112basic_stringIcSt11char_traitsIcESaIcEEC2IS3_EEPKcRKS3_
FNDA:3744,_ZNSt7__cxx1112basic_stringIcSt11char_traitsIcESaIcEEC2IS3_EEPKcRKS3_
FN:663,_ZNSt7__cxx1112basic_stringIcSt11char_traitsIcESaIcEEC2ISt17basic_string_viewIcS2_EvEERKT_RKS3_
FNDA:0,_ZNSt7__cxx1112basic_stringIcSt11char_traitsIcESaIcEEC2ISt17basic_string_viewIcS2_EvEERKT_RKS3_
FN:1483,_ZNSt7__cxx1112basic_stringIcSt11char_traitsIcESaIcEE6assignIPcvEERS4_T_S8_
FNDA:0,_ZNSt7__cxx1112basic_stringIcSt11char_traitsIcESaIcEE6assignIPcvEERS4_T_S8_
FNF:3
FNH:1
DA:164,3744
DA:165,3744
DA:167,0
DA:168,0
DA:187,2296
DA:191,3824
DA:195,7648
DA:201,0
DA:211,0
DA:219,2296
DA:225,3824
DA:255,0
DA:401,80
DA:406,3744
DA:439,0
DA:518,0
DA:521,0
DA:533,3744
DA:536,3744
DA:539,3744
DA:540,3744
DA:565,0
DA:568,0
DA:576,0
DA:663,0
DA:664,0
DA:671,1718
DA:680,160
DA:827,0
DA:915,160
DA:921,0
DA:1206,0
DA:1379,160
DA:1483,0
DA:1484,0
DA:6292,0
DA:6485,0
LF:37
LH:17
end_of_record
SF:/home/runner/work/raccoon/raccoon/moose/framework/build/header_symlinks/Restartable.h
LF:0
LH:0
end_of_record
SF:/home/runner/micromamba/envs/moose/x86_64-conda-linux-gnu/include/c++/10.4.0/bits/vector.tcc
FN:109,_ZNSt6vectorISt10shared_ptrI17RegistryEntryBaseESaIS2_EE12emplace_backIJS2_EEERS2_DpOT_
FNDA:80,_ZNSt6vectorISt10shared_ptrI17RegistryEntryBaseESaIS2_EE12emplace_backIJS2_EEERS2_DpOT_
FN:426,_ZNSt6vectorISt10shared_ptrI17RegistryEntryBaseESaIS2_EE17_M_realloc_insertIJS2_EEEvN9__gnu_cxx17__normal_iteratorIPS2_S4_EEDpOT_
FNDA:0,_ZNSt6vectorISt10shared_ptrI17RegistryEntryBaseESaIS2_EE17_M_realloc_insertIJS2_EEEvN9__gnu_cxx17__normal_iteratorIPS2_S4_EEDpOT_
FNF:2
FNH:1
DA:109,80
DA:112,80
DA:117,80
DA:121,0
DA:123,80
DA:426,0
DA:436,0
DA:437,0
DA:438,0
DA:449,0
DA:450,0
DA:464,0
DA:501,0
DA:502,0
DA:503,0
DA:504,0
DA:505,0
LF:17
LH:4
end_of_record
SF:/home/runner/work/raccoon/raccoon/moose/framework/build/header_symlinks/MooseVariableDependencyInterface.h
LF:0
LH:0
end_of_record
SF:/home/runner/micromamba/envs/moose/x86_64-conda-linux-gnu/include/c++/10.4.0/bits/stl_uninitialized.h
DA:1013,0
LF:1
LH:0
end_of_record
SF:/home/runner/micromamba/envs/moose/libmesh/include/libmesh/remote_elem.h
FN:137,_ZNK7libMesh10RemoteElem7n_nodesEv
FNDA:0,_ZNK7libMesh10RemoteElem7n_nodesEv
FN:155,_ZNK7libMesh10RemoteElem9is_vertexEj
FNDA:0,_ZNK7libMesh10RemoteElem9is_vertexEj
FN:213,_ZNK7libMesh10RemoteElem13default_orderEv
FNDA:0,_ZNK7libMesh10RemoteElem13default_orderEv
FNF:3
FNH:0
DA:137,0
DA:138,0
DA:155,0
DA:156,0
DA:213,0
DA:214,0
LF:6
LH:0
end_of_record
SF:/home/runner/work/raccoon/raccoon/build/header_symlinks/ModeISurfingDirichletBC.h
LF:0
LH:0
end_of_record
SF:/home/runner/work/raccoon/raccoon/moose/framework/build/header_symlinks/MooseError.h
FN:173,_ZN5moose8internal14mooseStreamAllINSt7__cxx1112basic_stringIcSt11char_traitsIcESaIcEEEJRA2_KcEEEvRNS2_19basic_ostringstreamIcS5_S6_EEOT_DpOT0_
FNDA:0,_ZN5moose8internal14mooseStreamAllINSt7__cxx1112basic_stringIcSt11char_traitsIcESaIcEEEJRA2_KcEEEvRNS2_19basic_ostringstreamIcS5_S6_EEOT_DpOT0_
FN:173,_ZN5moose8internal14mooseStreamAllINSt7__cxx1112basic_stringIcSt11char_traitsIcESaIcEEEJRA45_KcS7_RA2_S8_EEEvRNS2_19basic_ostringstreamIcS5_S6_EEOT_DpOT0_
FNDA:0,_ZN5moose8internal14mooseStreamAllINSt7__cxx1112basic_stringIcSt11char_traitsIcESaIcEEEJRA45_KcS7_RA2_S8_EEEvRNS2_19basic_ostringstreamIcS5_S6_EEOT_DpOT0_
FN:173,_ZN5moose8internal14mooseStreamAllIRKNSt7__cxx1112basic_stringIcSt11char_traitsIcESaIcEEEJRA14_KcS7_RA45_SA_S7_RA2_SA_EEEvRNS2_19basic_ostringstreamIcS5_S6_EEOT_DpOT0_
FNDA:0,_ZN5moose8internal14mooseStreamAllIRKNSt7__cxx1112basic_stringIcSt11char_traitsIcESaIcEEEJRA14_KcS7_RA45_SA_S7_RA2_SA_EEEvRNS2_19basic_ostringstreamIcS5_S6_EEOT_DpOT0_
FN:173,_ZN5moose8internal14mooseStreamAllINSt7__cxx1112basic_stringIcSt11char_traitsIcESaIcEEEJEEEvRNS2_19basic_ostringstreamIcS5_S6_EEOT_DpOT0_
FNDA:0,_ZN5moose8internal14mooseStreamAllINSt7__cxx1112basic_stringIcSt11char_traitsIcESaIcEEEJEEEvRNS2_19basic_ostringstreamIcS5_S6_EEOT_DpOT0_
FN:299,_Z10mooseErrorIJRA51_KcEEvDpOT_
FNDA:0,_Z10mooseErrorIJRA51_KcEEvDpOT_
FN:299,_Z10mooseErrorIJNSt7__cxx1112basic_stringIcSt11char_traitsIcESaIcEEEEEvDpOT_
FNDA:0,_Z10mooseErrorIJNSt7__cxx1112basic_stringIcSt11char_traitsIcESaIcEEEEEvDpOT_
FN:299,_Z10mooseErrorIJRA30_KcRKNSt7__cxx1112basic_stringIcSt11char_traitsIcESaIcEEERA14_S0_S8_RA45_S0_S8_RA2_S0_EEvDpOT_
FNDA:0,_Z10mooseErrorIJRA30_KcRKNSt7__cxx1112basic_stringIcSt11char_traitsIcESaIcEEERA14_S0_S8_RA45_S0_S8_RA2_S0_EEvDpOT_
FNF:7
FNH:0
DA:173,0
DA:175,0
DA:176,0
DA:177,0
DA:173,0
DA:175,0
DA:176,0
DA:177,0
DA:173,0
DA:175,0
DA:176,0
DA:177,0
DA:173,0
DA:175,0
DA:176,0
DA:177,0
DA:175,0
DA:176,0
DA:177,0
DA:299,0
DA:301,0
DA:303,0
DA:299,0
DA:301,0
DA:302,0
DA:303,0
DA:299,0
DA:301,0
DA:303,0
LF:29
LH:0
end_of_record
SF:/home/runner/work/raccoon/raccoon/moose/framework/build/header_symlinks/ScalarCoupleable.h
LF:0
LH:0
end_of_record
SF:/home/runner/work/raccoon/raccoon/moose/framework/build/header_symlinks/Registry.h
FN:124,_ZNK17RegistryEntryBase4nameB5cxx11Ev
FNDA:80,_ZNK17RegistryEntryBase4nameB5cxx11Ev
FN:165,_ZN8Registry3addI23ModeISurfingDirichletBCEEcRK17RegistryEntryData
FNDA:40,_ZN8Registry3addI23ModeISurfingDirichletBCEEcRK17RegistryEntryData
FN:165,_ZN8Registry3addI27LoadingUnloadingDirichletBCEEcRK17RegistryEntryData
FNDA:40,_ZN8Registry3addI27LoadingUnloadingDirichletBCEEcRK17RegistryEntryData
FN:273,_ZN13RegistryEntryI27LoadingUnloadingDirichletBCE5buildERK15InputParameters
FNDA:0,_ZN13RegistryEntryI27LoadingUnloadingDirichletBCE5buildERK15InputParameters
FN:273,_ZN13RegistryEntryI23ModeISurfingDirichletBCE5buildERK15InputParameters
FNDA:0,_ZN13RegistryEntryI23ModeISurfingDirichletBCE5buildERK15InputParameters
FN:282,_ZN13RegistryEntryI27LoadingUnloadingDirichletBCE11buildActionERK15InputParameters
FNDA:0,_ZN13RegistryEntryI27LoadingUnloadingDirichletBCE11buildActionERK15InputParameters
FN:282,_ZN13RegistryEntryI23ModeISurfingDirichletBCE11buildActionERK15InputParameters
FNDA:0,_ZN13RegistryEntryI23ModeISurfingDirichletBCE11buildActionERK15InputParameters
FN:292,_ZN13RegistryEntryI27LoadingUnloadingDirichletBCE15buildParametersEv
FNDA:126,_ZN13RegistryEntryI27LoadingUnloadingDirichletBCE15buildParametersEv
FN:292,_ZN13RegistryEntryI23ModeISurfingDirichletBCE15buildParametersEv
FNDA:126,_ZN13RegistryEntryI23ModeISurfingDirichletBCE15buildParametersEv
FNF:9
FNH:5
DA:117,80
DA:124,80
DA:126,80
DA:127,80
DA:128,80
DA:129,80
DA:130,80
DA:131,80
DA:138,80
DA:165,40
DA:168,80
DA:169,80
DA:170,40
DA:165,40
DA:168,80
DA:169,80
DA:170,40
DA:273,0
DA:276,0
DA:273,0
DA:276,0
DA:282,0
DA:285,0
DA:282,0
DA:285,0
DA:292,126
DA:294,126
DA:295,126
DA:292,126
DA:294,126
DA:295,126
LF:31
LH:23
end_of_record
SF:/home/runner/micromamba/envs/moose/x86_64-conda-linux-gnu/include/c++/10.4.0/bits/unordered_map.h
DA:102,0
LF:1
LH:0
end_of_record
SF:/home/runner/work/raccoon/raccoon/moose/framework/build/header_symlinks/MeshChangedInterface.h
FN:34,_ZN20MeshChangedInterface11meshChangedEv
FNDA:0,_ZN20MeshChangedInterface11meshChangedEv
FNF:1
FNH:0
DA:34,0
LF:1
LH:0
end_of_record
SF:/home/runner/work/raccoon/raccoon/moose/framework/build/header_symlinks/Problem.h
FN:37,_ZN7Problem14terminateSolveEv
FNDA:0,_ZN7Problem14terminateSolveEv
FNF:1
FNH:0
DA:37,0
LF:1
LH:0
end_of_record
SF:/home/runner/work/raccoon/raccoon/moose/framework/build/header_symlinks/CoupleableMooseVariableDependencyIntermediateInterface.h
LF:0
LH:0
end_of_record
SF:/home/runner/work/raccoon/raccoon/moose/framework/build/header_symlinks/NodalBC.h
FN:31,_ZNK7NodalBC8variableEv
FNDA:0,_ZNK7NodalBC8variableEv
FNF:1
FNH:0
DA:31,0
LF:1
LH:0
end_of_record
SF:/home/runner/work/raccoon/raccoon/moose/framework/contrib/hit/include/hit/parse.h
LF:0
LH:0
end_of_record
SF:/home/runner/work/raccoon/raccoon/moose/framework/build/header_symlinks/PostprocessorInterface.h
FN:141,_ZNK22PostprocessorInterface32addPostprocessorDependencyHelperERK17PostprocessorName
FNDA:0,_ZNK22PostprocessorInterface32addPostprocessorDependencyHelperERK17PostprocessorName
FNF:1
FNH:0
DA:141,0
LF:1
LH:0
end_of_record
SF:/home/runner/micromamba/envs/moose/x86_64-conda-linux-gnu/include/c++/10.4.0/sstream
DA:678,0
DA:832,0
LF:2
LH:0
end_of_record
SF:/home/runner/micromamba/envs/moose/x86_64-conda-linux-gnu/include/c++/10.4.0/optional
LF:0
LH:0
end_of_record
SF:/home/runner/micromamba/envs/moose/x86_64-conda-linux-gnu/include/c++/10.4.0/ext/aligned_buffer.h
DA:65,0
DA:104,80
LF:2
LH:1
end_of_record
SF:/home/runner/micromamba/envs/moose/x86_64-conda-linux-gnu/include/c++/10.4.0/utility
DA:189,0
LF:1
LH:0
end_of_record
SF:/home/runner/micromamba/envs/moose/x86_64-conda-linux-gnu/include/c++/10.4.0/bits/hashtable.h
FN:425,_ZNSt10_HashtableINSt7__cxx1112basic_stringIcSt11char_traitsIcESaIcEEESt4pairIKS5_S5_ESaIS8_ENSt8__detail10_Select1stESt8equal_toIS5_ESt4hashIS5_ENSA_18_Mod_range_hashingENSA_20_Default_ranged_hashENSA_20_Prime_rehash_policyENSA_17_Hashtable_traitsILb1ELb0ELb1EEEE21_M_deallocate_bucketsEv
FNDA:0,_ZNSt10_HashtableINSt7__cxx1112basic_stringIcSt11char_traitsIcESaIcEEESt4pairIKS5_S5_ESaIS8_ENSt8__detail10_Select1stESt8equal_toIS5_ESt4hashIS5_ENSA_18_Mod_range_hashingENSA_20_Default_ranged_hashENSA_20_Prime_rehash_policyENSA_17_Hashtable_traitsILb1ELb0ELb1EEEE21_M_deallocate_bucketsEv
FN:425,_ZNSt10_HashtableINSt7__cxx1112basic_stringIcSt11char_traitsIcESaIcEEESt4pairIKS5_St10unique_ptrI10MooseArrayIdESt14default_deleteISA_EEESaISE_ENSt8__detail10_Select1stESt8equal_toIS5_ESt4hashIS5_ENSG_18_Mod_range_hashingENSG_20_Default_ranged_hashENSG_20_Prime_rehash_policyENSG_17_Hashtable_traitsILb1ELb0ELb1EEEE21_M_deallocate_bucketsEv
FNDA:0,_ZNSt10_HashtableINSt7__cxx1112basic_stringIcSt11char_traitsIcESaIcEEESt4pairIKS5_St10unique_ptrI10MooseArrayIdESt14default_deleteISA_EEESaISE_ENSt8__detail10_Select1stESt8equal_toIS5_ESt4hashIS5_ENSG_18_Mod_range_hashingENSG_20_Default_ranged_hashENSG_20_Prime_rehash_policyENSG_17_Hashtable_traitsILb1ELb0ELb1EEEE21_M_deallocate_bucketsEv
FN:425,_ZNSt10_HashtableINSt7__cxx1112basic_stringIcSt11char_traitsIcESaIcEEESt4pairIKS5_St6vectorIP22MooseVariableFieldBaseSaISA_EEESaISD_ENSt8__detail10_Select1stESt8equal_toIS5_ESt4hashIS5_ENSF_18_Mod_range_hashingENSF_20_Default_ranged_hashENSF_20_Prime_rehash_policyENSF_17_Hashtable_traitsILb1ELb0ELb1EEEE21_M_deallocate_bucketsEv
FNDA:0,_ZNSt10_HashtableINSt7__cxx1112basic_stringIcSt11char_traitsIcESaIcEEESt4pairIKS5_St6vectorIP22MooseVariableFieldBaseSaISA_EEESaISD_ENSt8__detail10_Select1stESt8equal_toIS5_ESt4hashIS5_ENSF_18_Mod_range_hashingENSF_20_Default_ranged_hashENSF_20_Prime_rehash_policyENSF_17_Hashtable_traitsILb1ELb0ELb1EEEE21_M_deallocate_bucketsEv
FN:425,_ZNSt10_HashtableINSt7__cxx1112basic_stringIcSt11char_traitsIcESaIcEEESt4pairIKS5_St6vectorIP19MooseVariableScalarSaISA_EEESaISD_ENSt8__detail10_Select1stESt8equal_toIS5_ESt4hashIS5_ENSF_18_Mod_range_hashingENSF_20_Default_ranged_hashENSF_20_Prime_rehash_policyENSF_17_Hashtable_traitsILb1ELb0ELb1EEEE21_M_deallocate_bucketsEv
FNDA:0,_ZNSt10_HashtableINSt7__cxx1112basic_stringIcSt11char_traitsIcESaIcEEESt4pairIKS5_St6vectorIP19MooseVariableScalarSaISA_EEESaISD_ENSt8__detail10_Select1stESt8equal_toIS5_ESt4hashIS5_ENSF_18_Mod_range_hashingENSF_20_Default_ranged_hashENSF_20_Prime_rehash_policyENSF_17_Hashtable_traitsILb1ELb0ELb1EEEE21_M_deallocate_bucketsEv
FN:425,_ZNSt10_HashtableINSt7__cxx1112basic_stringIcSt11char_traitsIcESaIcEEESt4pairIKS5_St6vectorIjSaIjEEESaISB_ENSt8__detail10_Select1stESt8equal_toIS5_ESt4hashIS5_ENSD_18_Mod_range_hashingENSD_20_Default_ranged_hashENSD_20_Prime_rehash_policyENSD_17_Hashtable_traitsILb1ELb0ELb1EEEE21_M_deallocate_bucketsEv
FNDA:0,_ZNSt10_HashtableINSt7__cxx1112basic_stringIcSt11char_traitsIcESaIcEEESt4pairIKS5_St6vectorIjSaIjEEESaISB_ENSt8__detail10_Select1stESt8equal_toIS5_ESt4hashIS5_ENSD_18_Mod_range_hashingENSD_20_Default_ranged_hashENSD_20_Prime_rehash_policyENSD_17_Hashtable_traitsILb1ELb0ELb1EEEE21_M_deallocate_bucketsEv
FN:425,_ZNSt10_HashtableINSt7__cxx1112basic_stringIcSt11char_traitsIcESaIcEEESt4pairIKS5_St6vectorISt10unique_ptrI10MooseArrayIdESt14default_deleteISB_EESaISE_EEESaISH_ENSt8__detail10_Select1stESt8equal_toIS5_ESt4hashIS5_ENSJ_18_Mod_range_hashingENSJ_20_Default_ranged_hashENSJ_20_Prime_rehash_policyENSJ_17_Hashtable_traitsILb1ELb0ELb1EEEE21_M_deallocate_bucketsEv
FNDA:0,_ZNSt10_HashtableINSt7__cxx1112basic_stringIcSt11char_traitsIcESaIcEEESt4pairIKS5_St6vectorISt10unique_ptrI10MooseArrayIdESt14default_deleteISB_EESaISE_EEESaISH_ENSt8__detail10_Select1stESt8equal_toIS5_ESt4hashIS5_ENSJ_18_Mod_range_hashingENSJ_20_Default_ranged_hashENSJ_20_Prime_rehash_policyENSJ_17_Hashtable_traitsILb1ELb0ELb1EEEE21_M_deallocate_bucketsEv
FN:425,_ZNSt10_HashtableINSt7__cxx1112basic_stringIcSt11char_traitsIcESaIcEEESt4pairIKS5_St10unique_ptrI10MooseArrayIN7libMesh11VectorValueIN11MetaPhysicL10DualNumberIdNSC_28SemiDynamicSparseNumberArrayIdmNSC_8NWrapperILm64EEEEELb1EEEEEESt14default_deleteISK_EEESaISO_ENSt8__detail10_Select1stESt8equal_toIS5_ESt4hashIS5_ENSQ_18_Mod_range_hashingENSQ_20_Default_ranged_hashENSQ_20_Prime_rehash_policyENSQ_17_Hashtable_traitsILb1ELb0ELb1EEEE21_M_deallocate_bucketsEv
FNDA:0,_ZNSt10_HashtableINSt7__cxx1112basic_stringIcSt11char_traitsIcESaIcEEESt4pairIKS5_St10unique_ptrI10MooseArrayIN7libMesh11VectorValueIN11MetaPhysicL10DualNumberIdNSC_28SemiDynamicSparseNumberArrayIdmNSC_8NWrapperILm64EEEEELb1EEEEEESt14default_deleteISK_EEESaISO_ENSt8__detail10_Select1stESt8equal_toIS5_ESt4hashIS5_ENSQ_18_Mod_range_hashingENSQ_20_Default_ranged_hashENSQ_20_Prime_rehash_policyENSQ_17_Hashtable_traitsILb1ELb0ELb1EEEE21_M_deallocate_bucketsEv
FN:425,_ZNSt10_HashtableINSt7__cxx1112basic_stringIcSt11char_traitsIcESaIcEEESt4pairIKS5_St10unique_ptrI10MooseArrayIN5Eigen6MatrixIdLin1ELi1ELi0ELin1ELi1EEEESt14default_deleteISD_EEESaISH_ENSt8__detail10_Select1stESt8equal_toIS5_ESt4hashIS5_ENSJ_18_Mod_range_hashingENSJ_20_Default_ranged_hashENSJ_20_Prime_rehash_policyENSJ_17_Hashtable_traitsILb1ELb0ELb1EEEE21_M_deallocate_bucketsEv
FNDA:0,_ZNSt10_HashtableINSt7__cxx1112basic_stringIcSt11char_traitsIcESaIcEEESt4pairIKS5_St10unique_ptrI10MooseArrayIN5Eigen6MatrixIdLin1ELi1ELi0ELin1ELi1EEEESt14default_deleteISD_EEESaISH_ENSt8__detail10_Select1stESt8equal_toIS5_ESt4hashIS5_ENSJ_18_Mod_range_hashingENSJ_20_Default_ranged_hashENSJ_20_Prime_rehash_policyENSJ_17_Hashtable_traitsILb1ELb0ELb1EEEE21_M_deallocate_bucketsEv
FN:425,_ZNSt10_HashtableINSt7__cxx1112basic_stringIcSt11char_traitsIcESaIcEEESt4pairIKS5_St10unique_ptrI10MooseArrayIN11MetaPhysicL10DualNumberIdNSA_28SemiDynamicSparseNumberArrayIdmNSA_8NWrapperILm64EEEEELb1EEEESt14default_deleteISH_EEESaISL_ENSt8__detail10_Select1stESt8equal_toIS5_ESt4hashIS5_ENSN_18_Mod_range_hashingENSN_20_Default_ranged_hashENSN_20_Prime_rehash_policyENSN_17_Hashtable_traitsILb1ELb0ELb1EEEE21_M_deallocate_bucketsEv
FNDA:0,_ZNSt10_HashtableINSt7__cxx1112basic_stringIcSt11char_traitsIcESaIcEEESt4pairIKS5_St10unique_ptrI10MooseArrayIN11MetaPhysicL10DualNumberIdNSA_28SemiDynamicSparseNumberArrayIdmNSA_8NWrapperILm64EEEEELb1EEEESt14default_deleteISH_EEESaISL_ENSt8__detail10_Select1stESt8equal_toIS5_ESt4hashIS5_ENSN_18_Mod_range_hashingENSN_20_Default_ranged_hashENSN_20_Prime_rehash_policyENSN_17_Hashtable_traitsILb1ELb0ELb1EEEE21_M_deallocate_bucketsEv
FN:425,_ZNSt10_HashtableINSt7__cxx1112basic_stringIcSt11char_traitsIcESaIcEEESt4pairIKS5_St10unique_ptrI10MooseArrayIN7libMesh11VectorValueIdEEESt14default_deleteISD_EEESaISH_ENSt8__detail10_Select1stESt8equal_toIS5_ESt4hashIS5_ENSJ_18_Mod_range_hashingENSJ_20_Default_ranged_hashENSJ_20_Prime_rehash_policyENSJ_17_Hashtable_traitsILb1ELb0ELb1EEEE21_M_deallocate_bucketsEv
FNDA:0,_ZNSt10_HashtableINSt7__cxx1112basic_stringIcSt11char_traitsIcESaIcEEESt4pairIKS5_St10unique_ptrI10MooseArrayIN7libMesh11VectorValueIdEEESt14default_deleteISD_EEESaISH_ENSt8__detail10_Select1stESt8equal_toIS5_ESt4hashIS5_ENSJ_18_Mod_range_hashingENSJ_20_Default_ranged_hashENSJ_20_Prime_rehash_policyENSJ_17_Hashtable_traitsILb1ELb0ELb1EEEE21_M_deallocate_bucketsEv
FN:2081,_ZNSt10_HashtableINSt7__cxx1112basic_stringIcSt11char_traitsIcESaIcEEESt4pairIKS5_St6vectorIP22MooseVariableFieldBaseSaISA_EEESaISD_ENSt8__detail10_Select1stESt8equal_toIS5_ESt4hashIS5_ENSF_18_Mod_range_hashingENSF_20_Default_ranged_hashENSF_20_Prime_rehash_policyENSF_17_Hashtable_traitsILb1ELb0ELb1EEEE5clearEv
FNDA:0,_ZNSt10_HashtableINSt7__cxx1112basic_stringIcSt11char_traitsIcESaIcEEESt4pairIKS5_St6vectorIP22MooseVariableFieldBaseSaISA_EEESaISD_ENSt8__detail10_Select1stESt8equal_toIS5_ESt4hashIS5_ENSF_18_Mod_range_hashingENSF_20_Default_ranged_hashENSF_20_Prime_rehash_policyENSF_17_Hashtable_traitsILb1ELb0ELb1EEEE5clearEv
FN:2081,_ZNSt10_HashtableINSt7__cxx1112basic_stringIcSt11char_traitsIcESaIcEEESt4pairIKS5_St6vectorISt10unique_ptrI10MooseArrayIdESt14default_deleteISB_EESaISE_EEESaISH_ENSt8__detail10_Select1stESt8equal_toIS5_ESt4hashIS5_ENSJ_18_Mod_range_hashingENSJ_20_Default_ranged_hashENSJ_20_Prime_rehash_policyENSJ_17_Hashtable_traitsILb1ELb0ELb1EEEE5clearEv
FNDA:0,_ZNSt10_HashtableINSt7__cxx1112basic_stringIcSt11char_traitsIcESaIcEEESt4pairIKS5_St6vectorISt10unique_ptrI10MooseArrayIdESt14default_deleteISB_EESaISE_EEESaISH_ENSt8__detail10_Select1stESt8equal_toIS5_ESt4hashIS5_ENSJ_18_Mod_range_hashingENSJ_20_Default_ranged_hashENSJ_20_Prime_rehash_policyENSJ_17_Hashtable_traitsILb1ELb0ELb1EEEE5clearEv
FN:2081,_ZNSt10_HashtableINSt7__cxx1112basic_stringIcSt11char_traitsIcESaIcEEESt4pairIKS5_St10unique_ptrI10MooseArrayIN11MetaPhysicL10DualNumberIdNSA_28SemiDynamicSparseNumberArrayIdmNSA_8NWrapperILm64EEEEELb1EEEESt14default_deleteISH_EEESaISL_ENSt8__detail10_Select1stESt8equal_toIS5_ESt4hashIS5_ENSN_18_Mod_range_hashingENSN_20_Default_ranged_hashENSN_20_Prime_rehash_policyENSN_17_Hashtable_traitsILb1ELb0ELb1EEEE5clearEv
FNDA:0,_ZNSt10_HashtableINSt7__cxx1112basic_stringIcSt11char_traitsIcESaIcEEESt4pairIKS5_St10unique_ptrI10MooseArrayIN11MetaPhysicL10DualNumberIdNSA_28SemiDynamicSparseNumberArrayIdmNSA_8NWrapperILm64EEEEELb1EEEESt14default_deleteISH_EEESaISL_ENSt8__detail10_Select1stESt8equal_toIS5_ESt4hashIS5_ENSN_18_Mod_range_hashingENSN_20_Default_ranged_hashENSN_20_Prime_rehash_policyENSN_17_Hashtable_traitsILb1ELb0ELb1EEEE5clearEv
FN:2081,_ZNSt10_HashtableINSt7__cxx1112basic_stringIcSt11char_traitsIcESaIcEEESt4pairIKS5_St10unique_ptrI10MooseArrayIN7libMesh11VectorValueIdEEESt14default_deleteISD_EEESaISH_ENSt8__detail10_Select1stESt8equal_toIS5_ESt4hashIS5_ENSJ_18_Mod_range_hashingENSJ_20_Default_ranged_hashENSJ_20_Prime_rehash_policyENSJ_17_Hashtable_traitsILb1ELb0ELb1EEEE5clearEv
FNDA:0,_ZNSt10_HashtableINSt7__cxx1112basic_stringIcSt11char_traitsIcESaIcEEESt4pairIKS5_St10unique_ptrI10MooseArrayIN7libMesh11VectorValueIdEEESt14default_deleteISD_EEESaISH_ENSt8__detail10_Select1stESt8equal_toIS5_ESt4hashIS5_ENSJ_18_Mod_range_hashingENSJ_20_Default_ranged_hashENSJ_20_Prime_rehash_policyENSJ_17_Hashtable_traitsILb1ELb0ELb1EEEE5clearEv
FN:2081,_ZNSt10_HashtableINSt7__cxx1112basic_stringIcSt11char_traitsIcESaIcEEESt4pairIKS5_St10unique_ptrI10MooseArrayIN5Eigen6MatrixIdLin1ELi1ELi0ELin1ELi1EEEESt14default_deleteISD_EEESaISH_ENSt8__detail10_Select1stESt8equal_toIS5_ESt4hashIS5_ENSJ_18_Mod_range_hashingENSJ_20_Default_ranged_hashENSJ_20_Prime_rehash_policyENSJ_17_Hashtable_traitsILb1ELb0ELb1EEEE5clearEv
FNDA:0,_ZNSt10_HashtableINSt7__cxx1112basic_stringIcSt11char_traitsIcESaIcEEESt4pairIKS5_St10unique_ptrI10MooseArrayIN5Eigen6MatrixIdLin1ELi1ELi0ELin1ELi1EEEESt14default_deleteISD_EEESaISH_ENSt8__detail10_Select1stESt8equal_toIS5_ESt4hashIS5_ENSJ_18_Mod_range_hashingENSJ_20_Default_ranged_hashENSJ_20_Prime_rehash_policyENSJ_17_Hashtable_traitsILb1ELb0ELb1EEEE5clearEv
FN:2081,_ZNSt10_HashtableINSt7__cxx1112basic_stringIcSt11char_traitsIcESaIcEEESt4pairIKS5_St10unique_ptrI10MooseArrayIN7libMesh11VectorValueIN11MetaPhysicL10DualNumberIdNSC_28SemiDynamicSparseNumberArrayIdmNSC_8NWrapperILm64EEEEELb1EEEEEESt14default_deleteISK_EEESaISO_ENSt8__detail10_Select1stESt8equal_toIS5_ESt4hashIS5_ENSQ_18_Mod_range_hashingENSQ_20_Default_ranged_hashENSQ_20_Prime_rehash_policyENSQ_17_Hashtable_traitsILb1ELb0ELb1EEEE5clearEv
FNDA:0,_ZNSt10_HashtableINSt7__cxx1112basic_stringIcSt11char_traitsIcESaIcEEESt4pairIKS5_St10unique_ptrI10MooseArrayIN7libMesh11VectorValueIN11MetaPhysicL10DualNumberIdNSC_28SemiDynamicSparseNumberArrayIdmNSC_8NWrapperILm64EEEEELb1EEEEEESt14default_deleteISK_EEESaISO_ENSt8__detail10_Select1stESt8equal_toIS5_ESt4hashIS5_ENSQ_18_Mod_range_hashingENSQ_20_Default_ranged_hashENSQ_20_Prime_rehash_policyENSQ_17_Hashtable_traitsILb1ELb0ELb1EEEE5clearEv
FN:2081,_ZNSt10_HashtableINSt7__cxx1112basic_stringIcSt11char_traitsIcESaIcEEESt4pairIKS5_St6vectorIjSaIjEEESaISB_ENSt8__detail10_Select1stESt8equal_toIS5_ESt4hashIS5_ENSD_18_Mod_range_hashingENSD_20_Default_ranged_hashENSD_20_Prime_rehash_policyENSD_17_Hashtable_traitsILb1ELb0ELb1EEEE5clearEv
FNDA:0,_ZNSt10_HashtableINSt7__cxx1112basic_stringIcSt11char_traitsIcESaIcEEESt4pairIKS5_St6vectorIjSaIjEEESaISB_ENSt8__detail10_Select1stESt8equal_toIS5_ESt4hashIS5_ENSD_18_Mod_range_hashingENSD_20_Default_ranged_hashENSD_20_Prime_rehash_policyENSD_17_Hashtable_traitsILb1ELb0ELb1EEEE5clearEv
FN:2081,_ZNSt10_HashtableINSt7__cxx1112basic_stringIcSt11char_traitsIcESaIcEEESt4pairIKS5_St6vectorIP19MooseVariableScalarSaISA_EEESaISD_ENSt8__detail10_Select1stESt8equal_toIS5_ESt4hashIS5_ENSF_18_Mod_range_hashingENSF_20_Default_ranged_hashENSF_20_Prime_rehash_policyENSF_17_Hashtable_traitsILb1ELb0ELb1EEEE5clearEv
FNDA:0,_ZNSt10_HashtableINSt7__cxx1112basic_stringIcSt11char_traitsIcESaIcEEESt4pairIKS5_St6vectorIP19MooseVariableScalarSaISA_EEESaISD_ENSt8__detail10_Select1stESt8equal_toIS5_ESt4hashIS5_ENSF_18_Mod_range_hashingENSF_20_Default_ranged_hashENSF_20_Prime_rehash_policyENSF_17_Hashtable_traitsILb1ELb0ELb1EEEE5clearEv
FN:2081,_ZNSt10_HashtableINSt7__cxx1112basic_stringIcSt11char_traitsIcESaIcEEESt4pairIKS5_St10unique_ptrI10MooseArrayIdESt14default_deleteISA_EEESaISE_ENSt8__detail10_Select1stESt8equal_toIS5_ESt4hashIS5_ENSG_18_Mod_range_hashingENSG_20_Default_ranged_hashENSG_20_Prime_rehash_policyENSG_17_Hashtable_traitsILb1ELb0ELb1EEEE5clearEv
FNDA:0,_ZNSt10_HashtableINSt7__cxx1112basic_stringIcSt11char_traitsIcESaIcEEESt4pairIKS5_St10unique_ptrI10MooseArrayIdESt14default_deleteISA_EEESaISE_ENSt8__detail10_Select1stESt8equal_toIS5_ESt4hashIS5_ENSG_18_Mod_range_hashingENSG_20_Default_ranged_hashENSG_20_Prime_rehash_policyENSG_17_Hashtable_traitsILb1ELb0ELb1EEEE5clearEv
FN:2081,_ZNSt10_HashtableINSt7__cxx1112basic_stringIcSt11char_traitsIcESaIcEEESt4pairIKS5_S5_ESaIS8_ENSt8__detail10_Select1stESt8equal_toIS5_ESt4hashIS5_ENSA_18_Mod_range_hashingENSA_20_Default_ranged_hashENSA_20_Prime_rehash_policyENSA_17_Hashtable_traitsILb1ELb0ELb1EEEE5clearEv
FNDA:0,_ZNSt10_HashtableINSt7__cxx1112basic_stringIcSt11char_traitsIcESaIcEEESt4pairIKS5_S5_ESaIS8_ENSt8__detail10_Select1stESt8equal_toIS5_ESt4hashIS5_ENSA_18_Mod_range_hashingENSA_20_Default_ranged_hashENSA_20_Prime_rehash_policyENSA_17_Hashtable_traitsILb1ELb0ELb1EEEE5clearEv
FNF:20
FNH:0
DA:394,0
DA:418,0
DA:425,0
DA:426,0
DA:425,0
DA:426,0
DA:425,0
DA:426,0
DA:425,0
DA:426,0
DA:425,0
DA:426,0
DA:425,0
DA:426,0
DA:425,0
DA:426,0
DA:425,0
DA:426,0
DA:425,0
DA:426,0
DA:425,0
DA:426,0
DA:435,0
DA:1442,0
DA:1443,0
DA:2081,0
DA:2086,0
DA:2087,0
DA:2088,0
DA:2089,0
DA:2081,0
DA:2086,0
DA:2087,0
DA:2088,0
DA:2089,0
DA:2081,0
DA:2086,0
DA:2087,0
DA:2088,0
DA:2089,0
DA:2081,0
DA:2086,0
DA:2087,0
DA:2088,0
DA:2089,0
DA:2081,0
DA:2086,0
DA:2087,0
DA:2088,0
DA:2089,0
DA:2081,0
DA:2086,0
DA:2087,0
DA:2088,0
DA:2089,0
DA:2081,0
DA:2086,0
DA:2087,0
DA:2088,0
DA:2089,0
DA:2081,0
DA:2086,0
DA:2087,0
DA:2088,0
DA:2089,0
DA:2081,0
DA:2086,0
DA:2087,0
DA:2088,0
DA:2089,0
DA:2081,0
DA:2086,0
DA:2087,0
DA:2088,0
DA:2089,0
LF:75
LH:0
end_of_record
SF:/home/runner/micromamba/envs/moose/x86_64-conda-linux-gnu/include/c++/10.4.0/ext/atomicity.h
DA:50,0
DA:55,80
DA:68,0
DA:69,0
DA:76,0
DA:83,0
DA:84,0
DA:86,0
DA:94,80
DA:97,80
LF:10
LH:3
end_of_record
SF:/home/runner/work/raccoon/raccoon/moose/framework/build/header_symlinks/BoundaryCondition.h
FN:48,_ZN17BoundaryCondition11shouldApplyEv
FNDA:0,_ZN17BoundaryCondition11shouldApplyEv
FNF:1
FNH:0
DA:48,0
LF:1
LH:0
end_of_record
SF:/home/runner/work/raccoon/raccoon/moose/framework/build/header_symlinks/MooseMesh.h
LF:0
LH:0
end_of_record
SF:/home/runner/work/raccoon/raccoon/moose/framework/build/header_symlinks/DirichletBCBase.h
LF:0
LH:0
end_of_record
SF:/home/runner/micromamba/envs/moose/libmesh/include/libmesh/point.h
DA:62,0
LF:1
LH:0
end_of_record
SF:/home/runner/micromamba/envs/moose/x86_64-conda-linux-gnu/include/c++/10.4.0/initializer_list
DA:71,0
DA:79,0
LF:2
LH:0
end_of_record
SF:/home/runner/micromamba/envs/moose/x86_64-conda-linux-gnu/include/c++/10.4.0/bits/stl_function.h
FN:600,_ZNSt4lessIvE6_S_cmpIRKNSt7__cxx1112basic_stringIcSt11char_traitsIcESaIcEEERKSt17basic_string_viewIcS5_EEEDcOT_OT0_St17integral_constantIbLb0EE
FNDA:0,_ZNSt4lessIvE6_S_cmpIRKNSt7__cxx1112basic_stringIcSt11char_traitsIcESaIcEEERKSt17basic_string_viewIcS5_EEEDcOT_OT0_St17integral_constantIbLb0EE
FN:600,_ZNSt4lessIvE6_S_cmpIRKSt17basic_string_viewIcSt11char_traitsIcEERKNSt7__cxx1112basic_stringIcS4_SaIcEEEEEDcOT_OT0_St17integral_constantIbLb0EE
FNDA:0,_ZNSt4lessIvE6_S_cmpIRKSt17basic_string_viewIcSt11char_traitsIcEERKNSt7__cxx1112basic_stringIcS4_SaIcEEEEEDcOT_OT0_St17integral_constantIbLb0EE
FNF:2
FNH:0
DA:586,0
DA:600,0
DA:601,0
DA:600,0
DA:601,0
DA:1156,0
LF:6
LH:0
end_of_record
SF:/home/runner/micromamba/envs/moose/x86_64-conda-linux-gnu/include/c++/10.4.0/bits/unique_ptr.h
FN:79,_ZNKSt14default_deleteI10MooseArrayIN11MetaPhysicL10DualNumberIdNS1_28SemiDynamicSparseNumberArrayIdmNS1_8NWrapperILm64EEEEELb1EEEEEclEPS8_
FNDA:0,_ZNKSt14default_deleteI10MooseArrayIN11MetaPhysicL10DualNumberIdNS1_28SemiDynamicSparseNumberArrayIdmNS1_8NWrapperILm64EEEEELb1EEEEEclEPS8_
FN:79,_ZNKSt14default_deleteI10MooseArrayIdEEclEPS1_
FNDA:0,_ZNKSt14default_deleteI10MooseArrayIdEEclEPS1_
FN:79,_ZNKSt14default_deleteI10MooseArrayIN7libMesh11VectorValueIN11MetaPhysicL10DualNumberIdNS3_28SemiDynamicSparseNumberArrayIdmNS3_8NWrapperILm64EEEEELb1EEEEEEEclEPSB_
FNDA:0,_ZNKSt14default_deleteI10MooseArrayIN7libMesh11VectorValueIN11MetaPhysicL10DualNumberIdNS3_28SemiDynamicSparseNumberArrayIdmNS3_8NWrapperILm64EEEEELb1EEEEEEEclEPSB_
FN:79,_ZNKSt14default_deleteI10MooseArrayIN5Eigen6MatrixIdLin1ELi1ELi0ELin1ELi1EEEEEclEPS4_
FNDA:0,_ZNKSt14default_deleteI10MooseArrayIN5Eigen6MatrixIdLin1ELi1ELi0ELin1ELi1EEEEEclEPS4_
FN:79,_ZNKSt14default_deleteI10MooseArrayIN7libMesh11VectorValueIdEEEEclEPS4_
FNDA:0,_ZNKSt14default_deleteI10MooseArrayIN7libMesh11VectorValueIdEEEEclEPS4_
FN:116,_ZNKSt14default_deleteIA_N7libMesh11TensorValueIN11MetaPhysicL10DualNumberIdNS2_28SemiDynamicSparseNumberArrayIdmNS2_8NWrapperILm64EEEEELb1EEEEEEclIS9_EENSt9enable_ifIXsrSt14is_convertibleIPA_T_PSA_E5valueEvE4typeEPSF_
FNDA:0,_ZNKSt14default_deleteIA_N7libMesh11TensorValueIN11MetaPhysicL10DualNumberIdNS2_28SemiDynamicSparseNumberArrayIdmNS2_8NWrapperILm64EEEEELb1EEEEEEclIS9_EENSt9enable_ifIXsrSt14is_convertibleIPA_T_PSA_E5valueEvE4typeEPSF_
FN:116,_ZNKSt14default_deleteIA_N7libMesh11VectorValueIN11MetaPhysicL10DualNumberIdNS2_28SemiDynamicSparseNumberArrayIdmNS2_8NWrapperILm64EEEEELb1EEEEEEclIS9_EENSt9enable_ifIXsrSt14is_convertibleIPA_T_PSA_E5valueEvE4typeEPSF_
FNDA:0,_ZNKSt14default_deleteIA_N7libMesh11VectorValueIN11MetaPhysicL10DualNumberIdNS2_28SemiDynamicSparseNumberArrayIdmNS2_8NWrapperILm64EEEEELb1EEEEEEclIS9_EENSt9enable_ifIXsrSt14is_convertibleIPA_T_PSA_E5valueEvE4typeEPSF_
FN:116,_ZNKSt14default_deleteIA_N7libMesh11TensorValueIdEEEclIS2_EENSt9enable_ifIXsrSt14is_convertibleIPA_T_PS3_E5valueEvE4typeEPS8_
FNDA:0,_ZNKSt14default_deleteIA_N7libMesh11TensorValueIdEEEclIS2_EENSt9enable_ifIXsrSt14is_convertibleIPA_T_PS3_E5valueEvE4typeEPS8_
FN:116,_ZNKSt14default_deleteIA_N5Eigen6MatrixIdLin1ELi1ELi0ELin1ELi1EEEEclIS2_EENSt9enable_ifIXsrSt14is_convertibleIPA_T_PS3_E5valueEvE4typeEPS8_
FNDA:0,_ZNKSt14default_deleteIA_N5Eigen6MatrixIdLin1ELi1ELi0ELin1ELi1EEEEclIS2_EENSt9enable_ifIXsrSt14is_convertibleIPA_T_PS3_E5valueEvE4typeEPS8_
FN:116,_ZNKSt14default_deleteIA_N5Eigen6MatrixIdLin1ELi3ELi0ELin1ELi3EEEEclIS2_EENSt9enable_ifIXsrSt14is_convertibleIPA_T_PS3_E5valueEvE4typeEPS8_
FNDA:0,_ZNKSt14default_deleteIA_N5Eigen6MatrixIdLin1ELi3ELi0ELin1ELi3EEEEclIS2_EENSt9enable_ifIXsrSt14is_convertibleIPA_T_PS3_E5valueEvE4typeEPS8_
FN:116,_ZNKSt14default_deleteIA_N11MetaPhysicL10DualNumberIdNS0_28SemiDynamicSparseNumberArrayIdmNS0_8NWrapperILm64EEEEELb1EEEEclIS6_EENSt9enable_ifIXsrSt14is_convertibleIPA_T_PS7_E5valueEvE4typeEPSC_
FNDA:0,_ZNKSt14default_deleteIA_N11MetaPhysicL10DualNumberIdNS0_28SemiDynamicSparseNumberArrayIdmNS0_8NWrapperILm64EEEEELb1EEEEclIS6_EENSt9enable_ifIXsrSt14is_convertibleIPA_T_PS7_E5valueEvE4typeEPSC_
FN:165,_ZNSt15__uniq_ptr_implIN7libMesh10Parameters5ValueESt14default_deleteIS2_EEaSEOS5_
FNDA:0,_ZNSt15__uniq_ptr_implIN7libMesh10Parameters5ValueESt14default_deleteIS2_EEaSEOS5_
FN:355,_ZNSt10unique_ptrIN7libMesh10Parameters9ParameterIP13FEProblemBaseEESt14default_deleteIS5_EED2Ev
FNDA:0,_ZNSt10unique_ptrIN7libMesh10Parameters9ParameterIP13FEProblemBaseEESt14default_deleteIS5_EED2Ev
FN:355,_ZNSt10unique_ptrIN7libMesh10Parameters9ParameterIjEESt14default_deleteIS3_EED2Ev
FNDA:0,_ZNSt10unique_ptrIN7libMesh10Parameters9ParameterIjEESt14default_deleteIS3_EED2Ev
FN:355,_ZNSt10unique_ptrI27LoadingUnloadingDirichletBCSt14default_deleteIS0_EED2Ev
FNDA:0,_ZNSt10unique_ptrI27LoadingUnloadingDirichletBCSt14default_deleteIS0_EED2Ev
FN:355,_ZNSt10unique_ptrIN7libMesh10Parameters9ParameterINS0_5PointEEESt14default_deleteIS4_EED2Ev
FNDA:0,_ZNSt10unique_ptrIN7libMesh10Parameters9ParameterINS0_5PointEEESt14default_deleteIS4_EED2Ev
FN:355,_ZNSt10unique_ptrIN7libMesh10Parameters9ParameterI17PostprocessorNameEESt14default_deleteIS4_EED2Ev
FNDA:0,_ZNSt10unique_ptrIN7libMesh10Parameters9ParameterI17PostprocessorNameEESt14default_deleteIS4_EED2Ev
FN:355,_ZNSt10unique_ptrIN7libMesh10Parameters9ParameterIdEESt14default_deleteIS3_EED2Ev
FNDA:0,_ZNSt10unique_ptrIN7libMesh10Parameters9ParameterIdEESt14default_deleteIS3_EED2Ev
FN:355,_ZNSt10unique_ptrI10MooseArrayIN7libMesh11VectorValueIdEEESt14default_deleteIS4_EED2Ev
FNDA:0,_ZNSt10unique_ptrI10MooseArrayIN7libMesh11VectorValueIdEEESt14default_deleteIS4_EED2Ev
FN:355,_ZNSt10unique_ptrIN7libMesh10Parameters9ParameterINS0_11VectorValueIdEEEESt14default_deleteIS5_EED2Ev
FNDA:0,_ZNSt10unique_ptrIN7libMesh10Parameters9ParameterINS0_11VectorValueIdEEEESt14default_deleteIS5_EED2Ev
FN:355,_ZNSt10unique_ptrIdSt14default_deleteIdEED2Ev
FNDA:0,_ZNSt10unique_ptrIdSt14default_deleteIdEED2Ev
FN:355,_ZNSt10unique_ptrI10MooseArrayIN11MetaPhysicL10DualNumberIdNS1_28SemiDynamicSparseNumberArrayIdmNS1_8NWrapperILm64EEEEELb1EEEESt14default_deleteIS8_EED2Ev
FNDA:0,_ZNSt10unique_ptrI10MooseArrayIN11MetaPhysicL10DualNumberIdNS1_28SemiDynamicSparseNumberArrayIdmNS1_8NWrapperILm64EEEEELb1EEEESt14default_deleteIS8_EED2Ev
FN:355,_ZNSt10unique_ptrI10MooseArrayIN5Eigen6MatrixIdLin1ELi1ELi0ELin1ELi1EEEESt14default_deleteIS4_EED2Ev
FNDA:0,_ZNSt10unique_ptrI10MooseArrayIN5Eigen6MatrixIdLin1ELi1ELi0ELin1ELi1EEEESt14default_deleteIS4_EED2Ev
FN:355,_ZNSt10unique_ptrI10MooseArrayIN7libMesh11VectorValueIN11MetaPhysicL10DualNumberIdNS3_28SemiDynamicSparseNumberArrayIdmNS3_8NWrapperILm64EEEEELb1EEEEEESt14default_deleteISB_EED2Ev
FNDA:0,_ZNSt10unique_ptrI10MooseArrayIN7libMesh11VectorValueIN11MetaPhysicL10DualNumberIdNS3_28SemiDynamicSparseNumberArrayIdmNS3_8NWrapperILm64EEEEELb1EEEEEESt14default_deleteISB_EED2Ev
FN:355,_ZNSt10unique_ptrI10MooseArrayIdESt14default_deleteIS1_EED2Ev
FNDA:0,_ZNSt10unique_ptrI10MooseArrayIdESt14default_deleteIS1_EED2Ev
FN:355,_ZNSt10unique_ptrINSt13__future_base12_Result_baseENS1_8_DeleterEED2Ev
FNDA:0,_ZNSt10unique_ptrINSt13__future_base12_Result_baseENS1_8_DeleterEED2Ev
FN:355,_ZNSt10unique_ptrI23ModeISurfingDirichletBCSt14default_deleteIS0_EED2Ev
FNDA:0,_ZNSt10unique_ptrI23ModeISurfingDirichletBCSt14default_deleteIS0_EED2Ev
FN:355,_ZNSt10unique_ptrIN7libMesh10Parameters5ValueESt14default_deleteIS2_EED2Ev
FNDA:0,_ZNSt10unique_ptrIN7libMesh10Parameters5ValueESt14default_deleteIS2_EED2Ev
FN:386,_ZNSt10unique_ptrIN7libMesh10Parameters5ValueESt14default_deleteIS2_EEaSINS1_9ParameterIjEES3_IS8_EEENSt9enable_ifIXsrSt6__and_IJSB_IJSt14is_convertibleINS_IT_T0_E7pointerEPS2_ESt6__not_ISt8is_arrayISD_EEEESt13is_assignableIRS4_OSE_EEE5valueERS5_E4typeEOSF_
FNDA:0,_ZNSt10unique_ptrIN7libMesh10Parameters5ValueESt14default_deleteIS2_EEaSINS1_9ParameterIjEES3_IS8_EEENSt9enable_ifIXsrSt6__and_IJSB_IJSt14is_convertibleINS_IT_T0_E7pointerEPS2_ESt6__not_ISt8is_arrayISD_EEEESt13is_assignableIRS4_OSE_EEE5valueERS5_E4typeEOSF_
FN:386,_ZNSt10unique_ptrIN7libMesh10Parameters5ValueESt14default_deleteIS2_EEaSINS1_9ParameterIdEES3_IS8_EEENSt9enable_ifIXsrSt6__and_IJSB_IJSt14is_convertibleINS_IT_T0_E7pointerEPS2_ESt6__not_ISt8is_arrayISD_EEEESt13is_assignableIRS4_OSE_EEE5valueERS5_E4typeEOSF_
FNDA:0,_ZNSt10unique_ptrIN7libMesh10Parameters5ValueESt14default_deleteIS2_EEaSINS1_9ParameterIdEES3_IS8_EEENSt9enable_ifIXsrSt6__and_IJSB_IJSt14is_convertibleINS_IT_T0_E7pointerEPS2_ESt6__not_ISt8is_arrayISD_EEEESt13is_assignableIRS4_OSE_EEE5valueERS5_E4typeEOSF_
FN:386,_ZNSt10unique_ptrIN7libMesh10Parameters5ValueESt14default_deleteIS2_EEaSINS1_9ParameterI17PostprocessorNameEES3_IS9_EEENSt9enable_ifIXsrSt6__and_IJSC_IJSt14is_convertibleINS_IT_T0_E7pointerEPS2_ESt6__not_ISt8is_arrayISE_EEEESt13is_assignableIRS4_OSF_EEE5valueERS5_E4typeEOSG_
FNDA:0,_ZNSt10unique_ptrIN7libMesh10Parameters5ValueESt14default_deleteIS2_EEaSINS1_9ParameterI17PostprocessorNameEES3_IS9_EEENSt9enable_ifIXsrSt6__and_IJSC_IJSt14is_convertibleINS_IT_T0_E7pointerEPS2_ESt6__not_ISt8is_arrayISE_EEEESt13is_assignableIRS4_OSF_EEE5valueERS5_E4typeEOSG_
FN:386,_ZNSt10unique_ptrIN7libMesh10Parameters5ValueESt14default_deleteIS2_EEaSINS1_9ParameterINS0_5PointEEES3_IS9_EEENSt9enable_ifIXsrSt6__and_IJSC_IJSt14is_convertibleINS_IT_T0_E7pointerEPS2_ESt6__not_ISt8is_arrayISE_EEEESt13is_assignableIRS4_OSF_EEE5valueERS5_E4typeEOSG_
FNDA:0,_ZNSt10unique_ptrIN7libMesh10Parameters5ValueESt14default_deleteIS2_EEaSINS1_9ParameterINS0_5PointEEES3_IS9_EEENSt9enable_ifIXsrSt6__and_IJSC_IJSt14is_convertibleINS_IT_T0_E7pointerEPS2_ESt6__not_ISt8is_arrayISE_EEEESt13is_assignableIRS4_OSF_EEE5valueERS5_E4typeEOSG_
FN:386,_ZNSt10unique_ptrIN7libMesh10Parameters5ValueESt14default_deleteIS2_EEaSINS1_9ParameterINS0_11VectorValueIdEEEES3_ISA_EEENSt9enable_ifIXsrSt6__and_IJSD_IJSt14is_convertibleINS_IT_T0_E7pointerEPS2_ESt6__not_ISt8is_arrayISF_EEEESt13is_assignableIRS4_OSG_EEE5valueERS5_E4typeEOSH_
FNDA:0,_ZNSt10unique_ptrIN7libMesh10Parameters5ValueESt14default_deleteIS2_EEaSINS1_9ParameterINS0_11VectorValueIdEEEES3_ISA_EEENSt9enable_ifIXsrSt6__and_IJSD_IJSt14is_convertibleINS_IT_T0_E7pointerEPS2_ESt6__not_ISt8is_arrayISF_EEEESt13is_assignableIRS4_OSG_EEE5valueERS5_E4typeEOSH_
FN:608,_ZNSt10unique_ptrIA_N11MetaPhysicL10DualNumberIdNS0_28SemiDynamicSparseNumberArrayIdmNS0_8NWrapperILm64EEEEELb1EEESt14default_deleteIS7_EED2Ev
FNDA:0,_ZNSt10unique_ptrIA_N11MetaPhysicL10DualNumberIdNS0_28SemiDynamicSparseNumberArrayIdmNS0_8NWrapperILm64EEEEELb1EEESt14default_deleteIS7_EED2Ev
FN:608,_ZNSt10unique_ptrIA_N7libMesh11VectorValueIN11MetaPhysicL10DualNumberIdNS2_28SemiDynamicSparseNumberArrayIdmNS2_8NWrapperILm64EEEEELb1EEEEESt14default_deleteISA_EED2Ev
FNDA:0,_ZNSt10unique_ptrIA_N7libMesh11VectorValueIN11MetaPhysicL10DualNumberIdNS2_28SemiDynamicSparseNumberArrayIdmNS2_8NWrapperILm64EEEEELb1EEEEESt14default_deleteISA_EED2Ev
FN:608,_ZNSt10unique_ptrIA_N7libMesh11TensorValueIN11MetaPhysicL10DualNumberIdNS2_28SemiDynamicSparseNumberArrayIdmNS2_8NWrapperILm64EEEEELb1EEEEESt14default_deleteISA_EED2Ev
FNDA:0,_ZNSt10unique_ptrIA_N7libMesh11TensorValueIN11MetaPhysicL10DualNumberIdNS2_28SemiDynamicSparseNumberArrayIdmNS2_8NWrapperILm64EEEEELb1EEEEESt14default_deleteISA_EED2Ev
FN:608,_ZNSt10unique_ptrIA_N7libMesh11TensorValueIdEESt14default_deleteIS3_EED2Ev
FNDA:0,_ZNSt10unique_ptrIA_N7libMesh11TensorValueIdEESt14default_deleteIS3_EED2Ev
FN:608,_ZNSt10unique_ptrIA_N5Eigen6MatrixIdLin1ELi3ELi0ELin1ELi3EEESt14default_deleteIS3_EED2Ev
FNDA:0,_ZNSt10unique_ptrIA_N5Eigen6MatrixIdLin1ELi3ELi0ELin1ELi3EEESt14default_deleteIS3_EED2Ev
FN:608,_ZNSt10unique_ptrIA_N5Eigen6MatrixIdLin1ELi1ELi0ELin1ELi1EEESt14default_deleteIS3_EED2Ev
FNDA:0,_ZNSt10unique_ptrIA_N5Eigen6MatrixIdLin1ELi1ELi0ELin1ELi1EEESt14default_deleteIS3_EED2Ev
FN:961,_ZSt11make_uniqueI27LoadingUnloadingDirichletBCJRK15InputParametersEENSt9_MakeUniqIT_E15__single_objectEDpOT0_
FNDA:0,_ZSt11make_uniqueI27LoadingUnloadingDirichletBCJRK15InputParametersEENSt9_MakeUniqIT_E15__single_objectEDpOT0_
FN:961,_ZSt11make_uniqueI23ModeISurfingDirichletBCJRK15InputParametersEENSt9_MakeUniqIT_E15__single_objectEDpOT0_
FNDA:0,_ZSt11make_uniqueI23ModeISurfingDirichletBCJRK15InputParametersEENSt9_MakeUniqIT_E15__single_objectEDpOT0_
FN:961,_ZSt11make_uniqueIN7libMesh10Parameters9ParameterINS0_11VectorValueIdEEEEJEENSt9_MakeUniqIT_E15__single_objectEDpOT0_
FNDA:0,_ZSt11make_uniqueIN7libMesh10Parameters9ParameterINS0_11VectorValueIdEEEEJEENSt9_MakeUniqIT_E15__single_objectEDpOT0_
FN:961,_ZSt11make_uniqueIN7libMesh10Parameters9ParameterINS0_5PointEEEJEENSt9_MakeUniqIT_E15__single_objectEDpOT0_
FNDA:0,_ZSt11make_uniqueIN7libMesh10Parameters9ParameterINS0_5PointEEEJEENSt9_MakeUniqIT_E15__single_objectEDpOT0_
FN:961,_ZSt11make_uniqueIN7libMesh10Parameters9ParameterIjEEJEENSt9_MakeUniqIT_E15__single_objectEDpOT0_
FNDA:0,_ZSt11make_uniqueIN7libMesh10Parameters9ParameterIjEEJEENSt9_MakeUniqIT_E15__single_objectEDpOT0_
FN:961,_ZSt11make_uniqueIN7libMesh10Parameters9ParameterIP13FEProblemBaseEEJEENSt9_MakeUniqIT_E15__single_objectEDpOT0_
FNDA:0,_ZSt11make_uniqueIN7libMesh10Parameters9ParameterIP13FEProblemBaseEEJEENSt9_MakeUniqIT_E15__single_objectEDpOT0_
FN:961,_ZSt11make_uniqueIN7libMesh10Parameters9ParameterIdEEJEENSt9_MakeUniqIT_E15__single_objectEDpOT0_
FNDA:0,_ZSt11make_uniqueIN7libMesh10Parameters9ParameterIdEEJEENSt9_MakeUniqIT_E15__single_objectEDpOT0_
FN:961,_ZSt11make_uniqueIN7libMesh10Parameters9ParameterI17PostprocessorNameEEJEENSt9_MakeUniqIT_E15__single_objectEDpOT0_
FNDA:0,_ZSt11make_uniqueIN7libMesh10Parameters9ParameterI17PostprocessorNameEEJEENSt9_MakeUniqIT_E15__single_objectEDpOT0_
FNF:47
FNH:0
DA:79,0
DA:85,0
DA:86,0
DA:79,0
DA:85,0
DA:86,0
DA:79,0
DA:85,0
DA:86,0
DA:79,0
DA:85,0
DA:86,0
DA:79,0
DA:85,0
DA:86,0
DA:85,0
DA:86,0
DA:116,0
DA:120,0
DA:121,0
DA:116,0
DA:120,0
DA:121,0
DA:116,0
DA:120,0
DA:121,0
DA:116,0
DA:120,0
DA:121,0
DA:116,0
DA:120,0
DA:121,0
DA:116,0
DA:120,0
DA:121,0
DA:120,0
DA:121,0
DA:155,0
DA:165,0
DA:169,0
DA:173,0
DA:174,0
DA:179,0
DA:180,0
DA:181,0
DA:187,0
DA:188,0
DA:212,0
DA:355,0
DA:360,0
DA:363,0
DA:355,0
DA:360,0
DA:363,0
DA:355,0
DA:360,0
DA:361,0
DA:363,0
DA:355,0
DA:360,0
DA:361,0
DA:363,0
DA:355,0
DA:360,0
DA:361,0
DA:363,0
DA:355,0
DA:360,0
DA:361,0
DA:363,0
DA:355,0
DA:360,0
DA:361,0
DA:363,0
DA:355,0
DA:360,0
DA:363,0
DA:355,0
DA:360,0
DA:363,0
DA:355,0
DA:360,0
DA:363,0
DA:355,0
DA:360,0
DA:363,0
DA:355,0
DA:360,0
DA:363,0
DA:355,0
DA:360,0
DA:363,0
DA:355,0
DA:360,0
DA:363,0
DA:355,0
DA:360,0
DA:363,0
DA:355,0
DA:360,0
DA:363,0
DA:386,0
DA:390,0
DA:386,0
DA:390,0
DA:386,0
DA:390,0
DA:386,0
DA:390,0
DA:386,0
DA:390,0
DA:608,0
DA:611,0
DA:612,0
DA:614,0
DA:608,0
DA:611,0
DA:612,0
DA:614,0
DA:608,0
DA:611,0
DA:612,0
DA:614,0
DA:608,0
DA:611,0
DA:612,0
DA:614,0
DA:608,0
DA:611,0
DA:612,0
DA:614,0
DA:608,0
DA:611,0
DA:612,0
DA:614,0
DA:611,0
DA:961,0
DA:962,0
DA:961,0
DA:962,0
DA:961,0
DA:962,0
DA:961,0
DA:962,0
DA:961,0
DA:962,0
DA:961,0
DA:962,0
DA:961,0
DA:962,0
DA:961,0
DA:962,0
LF:152
LH:0
end_of_record
SF:/home/runner/micromamba/envs/moose/x86_64-conda-linux-gnu/include/c++/10.4.0/bits/basic_string.tcc
FN:206,_ZNSt7__cxx1112basic_stringIcSt11char_traitsIcESaIcEE12_M_constructIPcEEvT_S7_St20forward_iterator_tag
FNDA:80,_ZNSt7__cxx1112basic_stringIcSt11char_traitsIcESaIcEE12_M_constructIPcEEvT_S7_St20forward_iterator_tag
FN:206,_ZNSt7__cxx1112basic_stringIcSt11char_traitsIcESaIcEE12_M_constructIPKcEEvT_S8_St20forward_iterator_tag
FNDA:3744,_ZNSt7__cxx1112basic_stringIcSt11char_traitsIcESaIcEE12_M_constructIPKcEEvT_S8_St20forward_iterator_tag
FN:1152,_ZStplIcSt11char_traitsIcESaIcEENSt7__cxx1112basic_stringIT_T0_T1_EEPKS5_RKS8_
FNDA:0,_ZStplIcSt11char_traitsIcESaIcEENSt7__cxx1112basic_stringIT_T0_T1_EEPKS5_RKS8_
FNF:3
FNH:2
DA:206,80
DA:211,80
DA:212,0
DA:215,80
DA:217,80
DA:219,0
DA:220,0
DA:232,80
DA:233,80
DA:206,3744
DA:211,3744
DA:212,0
DA:215,3744
DA:217,3744
DA:219,2296
DA:220,2296
DA:232,3744
DA:233,3744
DA:1152,0
DA:1164,0
DA:1165,0
DA:1167,0
LF:22
LH:14
end_of_record
SF:/home/runner/micromamba/envs/moose/x86_64-conda-linux-gnu/include/c++/10.4.0/bits/stl_vector.h
FN:333,_ZNSt12_Vector_baseISt6vectorIS0_IaSaIaEESaIS2_EESaIS4_EED2Ev
FNDA:0,_ZNSt12_Vector_baseISt6vectorIS0_IaSaIaEESaIS2_EESaIS4_EED2Ev
FN:333,_ZNSt12_Vector_baseIP22MooseVariableFieldBaseSaIS1_EED2Ev
FNDA:0,_ZNSt12_Vector_baseIP22MooseVariableFieldBaseSaIS1_EED2Ev
FN:333,_ZNSt12_Vector_baseIP15MooseVariableFEIdESaIS2_EED2Ev
FNDA:0,_ZNSt12_Vector_baseIP15MooseVariableFEIdESaIS2_EED2Ev
FN:333,_ZNSt12_Vector_baseIP15MooseVariableFEIN7libMesh11VectorValueIdEEESaIS5_EED2Ev
FNDA:0,_ZNSt12_Vector_baseIP15MooseVariableFEIN7libMesh11VectorValueIdEEESaIS5_EED2Ev
FN:333,_ZNSt12_Vector_baseIP15MooseVariableFEIN5Eigen6MatrixIdLin1ELi1ELi0ELin1ELi1EEEESaIS5_EED2Ev
FNDA:0,_ZNSt12_Vector_baseIP15MooseVariableFEIN5Eigen6MatrixIdLin1ELi1ELi0ELin1ELi1EEEESaIS5_EED2Ev
FN:333,_ZNSt12_Vector_baseIP15MooseVariableFVIdESaIS2_EED2Ev
FNDA:0,_ZNSt12_Vector_baseIP15MooseVariableFVIdESaIS2_EED2Ev
FN:333,_ZNSt12_Vector_baseIP21MooseLinearVariableFVIdESaIS2_EED2Ev
FNDA:0,_ZNSt12_Vector_baseIP21MooseLinearVariableFVIdESaIS2_EED2Ev
FN:333,_ZNSt12_Vector_baseISt3setIP18MooseVariableFieldIdESt4lessIS3_ESaIS3_EESaIS7_EED2Ev
FNDA:0,_ZNSt12_Vector_baseISt3setIP18MooseVariableFieldIdESt4lessIS3_ESaIS3_EESaIS7_EED2Ev
FN:333,_ZNSt12_Vector_baseIP19MooseVariableScalarSaIS1_EED2Ev
FNDA:0,_ZNSt12_Vector_baseIP19MooseVariableScalarSaIS1_EED2Ev
FN:333,_ZNSt12_Vector_baseI15AuxVariableNameSaIS0_EED2Ev
FNDA:0,_ZNSt12_Vector_baseI15AuxVariableNameSaIS0_EED2Ev
FN:333,_ZNSt12_Vector_baseIdSaIdEED2Ev
FNDA:0,_ZNSt12_Vector_baseIdSaIdEED2Ev
FN:333,_ZNSt12_Vector_baseIjSaIjEED2Ev
FNDA:0,_ZNSt12_Vector_baseIjSaIjEED2Ev
FN:333,_ZNSt12_Vector_baseISt6vectorIS0_IS0_ISt4pairIhhESaIS2_EESaIS4_EESaIS6_EESaIS8_EED2Ev
FNDA:0,_ZNSt12_Vector_baseISt6vectorIS0_IS0_ISt4pairIhhESaIS2_EESaIS4_EESaIS6_EESaIS8_EED2Ev
FN:333,_ZNSt12_Vector_baseISt6vectorIS0_ISt4pairIhhESaIS2_EESaIS4_EESaIS6_EED2Ev
FNDA:0,_ZNSt12_Vector_baseISt6vectorIS0_ISt4pairIhhESaIS2_EESaIS4_EESaIS6_EED2Ev
FN:333,_ZNSt12_Vector_baseISt6vectorIaSaIaEESaIS2_EED2Ev
FNDA:0,_ZNSt12_Vector_baseISt6vectorIaSaIaEESaIS2_EED2Ev
FN:333,_ZNSt12_Vector_baseImSaImEED2Ev
FNDA:0,_ZNSt12_Vector_baseImSaImEED2Ev
FN:333,_ZNSt12_Vector_baseISt10shared_ptrI17RegistryEntryBaseESaIS2_EED2Ev
FNDA:0,_ZNSt12_Vector_baseISt10shared_ptrI17RegistryEntryBaseESaIS2_EED2Ev
FN:333,_ZNSt12_Vector_baseISt10unique_ptrI10MooseArrayIdESt14default_deleteIS2_EESaIS5_EED2Ev
FNDA:0,_ZNSt12_Vector_baseISt10unique_ptrI10MooseArrayIdESt14default_deleteIS2_EESaIS5_EED2Ev
FN:333,_ZNSt12_Vector_baseINSt7__cxx1112basic_stringIcSt11char_traitsIcESaIcEEESaIS5_EED2Ev
FNDA:0,_ZNSt12_Vector_baseINSt7__cxx1112basic_stringIcSt11char_traitsIcESaIcEEESaIS5_EED2Ev
FN:333,_ZNSt12_Vector_baseISt6vectorISt4pairIhhESaIS2_EESaIS4_EED2Ev
FNDA:0,_ZNSt12_Vector_baseISt6vectorISt4pairIhhESaIS2_EESaIS4_EED2Ev
FN:333,_ZNSt12_Vector_baseIaSaIaEED2Ev
FNDA:0,_ZNSt12_Vector_baseIaSaIaEED2Ev
FN:333,_ZNSt12_Vector_baseISt4pairIhhESaIS1_EED2Ev
FNDA:0,_ZNSt12_Vector_baseISt4pairIhhESaIS1_EED2Ev
FN:333,_ZNSt12_Vector_baseISt5tupleIJNSt7__cxx1112basic_stringIcSt11char_traitsIcESaIcEEEN5Moose23RelationshipManagerTypeESt8functionIFvRK15InputParametersRSA_EEEESaISG_EED2Ev
FNDA:0,_ZNSt12_Vector_baseISt5tupleIJNSt7__cxx1112basic_stringIcSt11char_traitsIcESaIcEEEN5Moose23RelationshipManagerTypeESt8functionIFvRK15InputParametersRSA_EEEESaISG_EED2Ev
FN:625,_ZNSt6vectorIdSaIdEEC2ESt16initializer_listIdERKS0_
FNDA:0,_ZNSt6vectorIdSaIdEEC2ESt16initializer_listIdERKS0_
FN:678,_ZNSt6vectorI15AuxVariableNameSaIS0_EED2Ev
FNDA:0,_ZNSt6vectorI15AuxVariableNameSaIS0_EED2Ev
FN:678,_ZNSt6vectorISt3setIP18MooseVariableFieldIdESt4lessIS3_ESaIS3_EESaIS7_EED2Ev
FNDA:0,_ZNSt6vectorISt3setIP18MooseVariableFieldIdESt4lessIS3_ESaIS3_EESaIS7_EED2Ev
FN:678,_ZNSt6vectorIS_IS_ISt4pairIhhESaIS1_EESaIS3_EESaIS5_EED2Ev
FNDA:0,_ZNSt6vectorIS_IS_ISt4pairIhhESaIS1_EESaIS3_EESaIS5_EED2Ev
FN:678,_ZNSt6vectorIS_IS_IaSaIaEESaIS1_EESaIS3_EED2Ev
FNDA:0,_ZNSt6vectorIS_IS_IaSaIaEESaIS1_EESaIS3_EED2Ev
FN:678,_ZNSt6vectorIS_IaSaIaEESaIS1_EED2Ev
FNDA:0,_ZNSt6vectorIS_IaSaIaEESaIS1_EED2Ev
FN:678,_ZNSt6vectorIS_IS_IS_ISt4pairIhhESaIS1_EESaIS3_EESaIS5_EESaIS7_EED2Ev
FNDA:0,_ZNSt6vectorIS_IS_IS_ISt4pairIhhESaIS1_EESaIS3_EESaIS5_EESaIS7_EED2Ev
FN:678,_ZNSt6vectorISt10shared_ptrI17RegistryEntryBaseESaIS2_EED2Ev
FNDA:0,_ZNSt6vectorISt10shared_ptrI17RegistryEntryBaseESaIS2_EED2Ev
FN:678,_ZNSt6vectorISt10unique_ptrI10MooseArrayIdESt14default_deleteIS2_EESaIS5_EED2Ev
FNDA:0,_ZNSt6vectorISt10unique_ptrI10MooseArrayIdESt14default_deleteIS2_EESaIS5_EED2Ev
FN:678,_ZNSt6vectorINSt7__cxx1112basic_stringIcSt11char_traitsIcESaIcEEESaIS5_EED2Ev
FNDA:0,_ZNSt6vectorINSt7__cxx1112basic_stringIcSt11char_traitsIcESaIcEEESaIS5_EED2Ev
FN:678,_ZNSt6vectorIS_ISt4pairIhhESaIS1_EESaIS3_EED2Ev
FNDA:0,_ZNSt6vectorIS_ISt4pairIhhESaIS1_EESaIS3_EED2Ev
FN:678,_ZNSt6vectorISt5tupleIJNSt7__cxx1112basic_stringIcSt11char_traitsIcESaIcEEEN5Moose23RelationshipManagerTypeESt8functionIFvRK15InputParametersRSA_EEEESaISG_EED2Ev
FNDA:0,_ZNSt6vectorISt5tupleIJNSt7__cxx1112basic_stringIcSt11char_traitsIcESaIcEEEN5Moose23RelationshipManagerTypeESt8functionIFvRK15InputParametersRSA_EEEESaISG_EED2Ev
FN:1577,_ZNSt6vectorIdSaIdEE19_M_range_initializeIPKdEEvT_S5_St20forward_iterator_tag
FNDA:0,_ZNSt6vectorIdSaIdEE19_M_range_initializeIPKdEEvT_S5_St20forward_iterator_tag
FN:1756,_ZNKSt6vectorISt10shared_ptrI17RegistryEntryBaseESaIS2_EE12_M_check_lenEmPKc
FNDA:0,_ZNKSt6vectorISt10shared_ptrI17RegistryEntryBaseESaIS2_EE12_M_check_lenEmPKc
FNF:37
FNH:0
DA:97,0
DA:98,0
DA:277,0
DA:333,0
DA:336,0
DA:337,0
DA:333,0
DA:336,0
DA:337,0
DA:333,0
DA:336,0
DA:337,0
DA:333,0
DA:336,0
DA:337,0
DA:333,0
DA:336,0
DA:337,0
DA:333,0
DA:336,0
DA:337,0
DA:333,0
DA:336,0
DA:337,0
DA:333,0
DA:336,0
DA:337,0
DA:333,0
DA:336,0
DA:337,0
DA:333,0
DA:336,0
DA:337,0
DA:333,0
DA:336,0
DA:337,0
DA:333,0
DA:336,0
DA:337,0
DA:333,0
DA:336,0
DA:337,0
DA:333,0
DA:336,0
DA:337,0
DA:333,0
DA:336,0
DA:337,0
DA:333,0
DA:336,0
DA:337,0
DA:333,0
DA:336,0
DA:337,0
DA:333,0
DA:336,0
DA:337,0
DA:333,0
DA:336,0
DA:337,0
DA:333,0
DA:336,0
DA:337,0
DA:333,0
DA:336,0
DA:337,0
DA:333,0
DA:335,0
DA:336,0
DA:337,0
DA:333,0
DA:336,0
DA:337,0
DA:346,0
DA:353,0
DA:625,0
DA:627,0
DA:629,0
DA:631,0
DA:678,0
DA:680,0
DA:683,0
DA:678,0
DA:680,0
DA:683,0
DA:678,0
DA:680,0
DA:683,0
DA:678,0
DA:680,0
DA:683,0
DA:678,0
DA:680,0
DA:683,0
DA:678,0
DA:680,0
DA:683,0
DA:678,0
DA:680,0
DA:683,0
DA:678,0
DA:680,0
DA:683,0
DA:678,0
DA:680,0
DA:683,0
DA:678,0
DA:680,0
DA:683,0
DA:678,0
DA:680,0
DA:683,0
DA:683,0
DA:919,0
DA:1204,80
DA:1577,0
DA:1580,0
DA:1582,0
DA:1583,0
DA:1584,0
DA:1588,0
DA:1756,0
DA:1758,0
DA:1759,0
DA:1761,0
DA:1762,0
DA:1769,0
DA:1770,0
LF:128
LH:1
end_of_record
SF:/home/runner/micromamba/envs/moose/x86_64-conda-linux-gnu/include/c++/10.4.0/iostream
LF:0
LH:0
end_of_record
SF:/home/runner/micromamba/envs/moose/libmesh/include/Eigen/src/Core/util/Memory.h
DA:203,0
LF:1
LH:0
end_of_record
SF:/home/runner/micromamba/envs/moose/libmesh/include/libmesh/parallel_object.h
DA:91,0
LF:1
LH:0
end_of_record
SF:/home/runner/micromamba/envs/moose/libmesh/include/libmesh/reference_counter.h
DA:152,0
LF:1
LH:0
end_of_record
SF:/home/runner/micromamba/envs/moose/libmesh/include/libmesh/parameters.h
FN:85,_ZN7libMesh10ParametersD2Ev
FNDA:0,_ZN7libMesh10ParametersD2Ev
FN:85,_ZN7libMesh10ParametersD0Ev
FNDA:0,_ZN7libMesh10ParametersD0Ev
FN:138,_ZN7libMesh10Parameters14set_attributesERKNSt7__cxx1112basic_stringIcSt11char_traitsIcESaIcEEEb
FNDA:0,_ZN7libMesh10Parameters14set_attributesERKNSt7__cxx1112basic_stringIcSt11char_traitsIcESaIcEEEb
FN:295,_ZNK7libMesh10Parameters9ParameterIdE4typeB5cxx11Ev
FNDA:0,_ZNK7libMesh10Parameters9ParameterIdE4typeB5cxx11Ev
FN:295,_ZNK7libMesh10Parameters9ParameterI17PostprocessorNameE4typeB5cxx11Ev
FNDA:0,_ZNK7libMesh10Parameters9ParameterI17PostprocessorNameE4typeB5cxx11Ev
FN:295,_ZNK7libMesh10Parameters9ParameterIjE4typeB5cxx11Ev
FNDA:0,_ZNK7libMesh10Parameters9ParameterIjE4typeB5cxx11Ev
FN:295,_ZNK7libMesh10Parameters9ParameterIP13FEProblemBaseE4typeB5cxx11Ev
FNDA:0,_ZNK7libMesh10Parameters9ParameterIP13FEProblemBaseE4typeB5cxx11Ev
FN:295,_ZNK7libMesh10Parameters9ParameterINS_5PointEE4typeB5cxx11Ev
FNDA:0,_ZNK7libMesh10Parameters9ParameterINS_5PointEE4typeB5cxx11Ev
FN:295,_ZNK7libMesh10Parameters9ParameterINS_11VectorValueIdEEE4typeB5cxx11Ev
FNDA:0,_ZNK7libMesh10Parameters9ParameterINS_11VectorValueIdEEE4typeB5cxx11Ev
FN:303,_ZNK7libMesh10Parameters9ParameterIdE5printERSo
FNDA:0,_ZNK7libMesh10Parameters9ParameterIdE5printERSo
FN:303,_ZNK7libMesh10Parameters9ParameterI17PostprocessorNameE5printERSo
FNDA:0,_ZNK7libMesh10Parameters9ParameterI17PostprocessorNameE5printERSo
FN:303,_ZNK7libMesh10Parameters9ParameterIP13FEProblemBaseE5printERSo
FNDA:0,_ZNK7libMesh10Parameters9ParameterIP13FEProblemBaseE5printERSo
FN:303,_ZNK7libMesh10Parameters9ParameterIjE5printERSo
FNDA:0,_ZNK7libMesh10Parameters9ParameterIjE5printERSo
FN:303,_ZNK7libMesh10Parameters9ParameterINS_5PointEE5printERSo
FNDA:0,_ZNK7libMesh10Parameters9ParameterINS_5PointEE5printERSo
FN:303,_ZNK7libMesh10Parameters9ParameterINS_11VectorValueIdEEE5printERSo
FNDA:0,_ZNK7libMesh10Parameters9ParameterINS_11VectorValueIdEEE5printERSo
FN:311,_ZNK7libMesh10Parameters9ParameterIP13FEProblemBaseE5cloneEv
FNDA:0,_ZNK7libMesh10Parameters9ParameterIP13FEProblemBaseE5cloneEv
FN:311,_ZNK7libMesh10Parameters9ParameterIdE5cloneEv
FNDA:0,_ZNK7libMesh10Parameters9ParameterIdE5cloneEv
FN:311,_ZNK7libMesh10Parameters9ParameterINS_5PointEE5cloneEv
FNDA:0,_ZNK7libMesh10Parameters9ParameterINS_5PointEE5cloneEv
FN:311,_ZNK7libMesh10Parameters9ParameterI17PostprocessorNameE5cloneEv
FNDA:0,_ZNK7libMesh10Parameters9ParameterI17PostprocessorNameE5cloneEv
FN:311,_ZNK7libMesh10Parameters9ParameterINS_11VectorValueIdEEE5cloneEv
FNDA:0,_ZNK7libMesh10Parameters9ParameterINS_11VectorValueIdEEE5cloneEv
FN:311,_ZNK7libMesh10Parameters9ParameterIjE5cloneEv
FNDA:0,_ZNK7libMesh10Parameters9ParameterIjE5cloneEv
FN:324,_ZN7libMesh10Parameters5clearEv
FNDA:0,_ZN7libMesh10Parameters5clearEv
FN:332,_ZN7libMesh10ParametersaSERKS0_
FNDA:0,_ZN7libMesh10ParametersaSERKS0_
FN:341,_ZN7libMesh10ParameterspLERKS0_
FNDA:0,_ZN7libMesh10ParameterspLERKS0_
FN:360,_ZNK7libMesh10Parameters5printERSo
FNDA:0,_ZNK7libMesh10Parameters5printERSo
FN:395,_ZNK7libMesh10Parameters14have_parameterI17PostprocessorNameEEbSt17basic_string_viewIcSt11char_traitsIcEE
FNDA:0,_ZNK7libMesh10Parameters14have_parameterI17PostprocessorNameEEbSt17basic_string_viewIcSt11char_traitsIcEE
FN:395,_ZNK7libMesh10Parameters14have_parameterIdEEbSt17basic_string_viewIcSt11char_traitsIcEE
FNDA:0,_ZNK7libMesh10Parameters14have_parameterIdEEbSt17basic_string_viewIcSt11char_traitsIcEE
FN:395,_ZNK7libMesh10Parameters14have_parameterINS_5PointEEEbSt17basic_string_viewIcSt11char_traitsIcEE
FNDA:0,_ZNK7libMesh10Parameters14have_parameterINS_5PointEEEbSt17basic_string_viewIcSt11char_traitsIcEE
FN:395,_ZNK7libMesh10Parameters14have_parameterINS_11VectorValueIdEEEEbSt17basic_string_viewIcSt11char_traitsIcEE
FNDA:0,_ZNK7libMesh10Parameters14have_parameterINS_11VectorValueIdEEEEbSt17basic_string_viewIcSt11char_traitsIcEE
FN:395,_ZNK7libMesh10Parameters14have_parameterIjEEbSt17basic_string_viewIcSt11char_traitsIcEE
FNDA:0,_ZNK7libMesh10Parameters14have_parameterIjEEbSt17basic_string_viewIcSt11char_traitsIcEE
FN:426,_ZNK7libMesh10Parameters3getIdEERKT_St17basic_string_viewIcSt11char_traitsIcEE
FNDA:0,_ZNK7libMesh10Parameters3getIdEERKT_St17basic_string_viewIcSt11char_traitsIcEE
FN:426,_ZNK7libMesh10Parameters3getINS_5PointEEERKT_St17basic_string_viewIcSt11char_traitsIcEE
FNDA:0,_ZNK7libMesh10Parameters3getINS_5PointEEERKT_St17basic_string_viewIcSt11char_traitsIcEE
FN:426,_ZNK7libMesh10Parameters3getINS_11VectorValueIdEEEERKT_St17basic_string_viewIcSt11char_traitsIcEE
FNDA:0,_ZNK7libMesh10Parameters3getINS_11VectorValueIdEEEERKT_St17basic_string_viewIcSt11char_traitsIcEE
FN:426,_ZNK7libMesh10Parameters3getIjEERKT_St17basic_string_viewIcSt11char_traitsIcEE
FNDA:0,_ZNK7libMesh10Parameters3getIjEERKT_St17basic_string_viewIcSt11char_traitsIcEE
FN:458,_ZN7libMesh10Parameters6insertIjEEvRKNSt7__cxx1112basic_stringIcSt11char_traitsIcESaIcEEE
FNDA:0,_ZN7libMesh10Parameters6insertIjEEvRKNSt7__cxx1112basic_stringIcSt11char_traitsIcESaIcEEE
FN:458,_ZN7libMesh10Parameters6insertI17PostprocessorNameEEvRKNSt7__cxx1112basic_stringIcSt11char_traitsIcESaIcEEE
FNDA:0,_ZN7libMesh10Parameters6insertI17PostprocessorNameEEvRKNSt7__cxx1112basic_stringIcSt11char_traitsIcESaIcEEE
FN:458,_ZN7libMesh10Parameters6insertIdEEvRKNSt7__cxx1112basic_stringIcSt11char_traitsIcESaIcEEE
FNDA:0,_ZN7libMesh10Parameters6insertIdEEvRKNSt7__cxx1112basic_stringIcSt11char_traitsIcESaIcEEE
FN:469,_ZN7libMesh10Parameters3setINS_5PointEEERT_RKNSt7__cxx1112basic_stringIcSt11char_traitsIcESaIcEEE
FNDA:0,_ZN7libMesh10Parameters3setINS_5PointEEERT_RKNSt7__cxx1112basic_stringIcSt11char_traitsIcESaIcEEE
FN:469,_ZN7libMesh10Parameters3setINS_11VectorValueIdEEEERT_RKNSt7__cxx1112basic_stringIcSt11char_traitsIcESaIcEEE
FNDA:0,_ZN7libMesh10Parameters3setINS_11VectorValueIdEEEERT_RKNSt7__cxx1112basic_stringIcSt11char_traitsIcESaIcEEE
FNF:39
FNH:0
DA:85,0
DA:85,0
DA:85,0
DA:138,0
DA:206,0
DA:213,0
DA:218,0
DA:295,0
DA:297,0
DA:295,0
DA:297,0
DA:295,0
DA:297,0
DA:295,0
DA:297,0
DA:295,0
DA:297,0
DA:295,0
DA:297,0
DA:303,0
DA:307,0
DA:303,0
DA:307,0
DA:303,0
DA:307,0
DA:303,0
DA:307,0
DA:303,0
DA:307,0
DA:303,0
DA:307,0
DA:311,0
DA:313,0
DA:315,0
DA:317,0
DA:311,0
DA:313,0
DA:315,0
DA:317,0
DA:311,0
DA:313,0
DA:317,0
DA:311,0
DA:313,0
DA:315,0
DA:317,0
DA:311,0
DA:313,0
DA:315,0
DA:317,0
DA:311,0
DA:313,0
DA:315,0
DA:317,0
DA:324,0
DA:327,0
DA:332,0
DA:335,0
DA:337,0
DA:341,0
DA:344,0
DA:345,0
DA:347,0
DA:360,0
DA:365,0
DA:366,0
DA:370,0
DA:372,0
DA:373,0
DA:377,0
DA:387,0
DA:388,0
DA:395,0
DA:399,0
DA:403,0
DA:404,0
DA:395,0
DA:399,0
DA:403,0
DA:404,0
DA:395,0
DA:399,0
DA:403,0
DA:404,0
DA:395,0
DA:399,0
DA:403,0
DA:404,0
DA:395,0
DA:399,0
DA:403,0
DA:404,0
DA:426,0
DA:428,0
DA:430,0
DA:432,0
DA:434,0
DA:438,0
DA:441,0
DA:453,0
DA:426,0
DA:428,0
DA:430,0
DA:432,0
DA:434,0
DA:438,0
DA:441,0
DA:453,0
DA:426,0
DA:428,0
DA:430,0
DA:432,0
DA:434,0
DA:438,0
DA:441,0
DA:453,0
DA:426,0
DA:428,0
DA:430,0
DA:432,0
DA:434,0
DA:438,0
DA:441,0
DA:453,0
DA:458,0
DA:460,0
DA:461,0
DA:463,0
DA:464,0
DA:458,0
DA:460,0
DA:461,0
DA:463,0
DA:464,0
DA:458,0
DA:460,0
DA:461,0
DA:463,0
DA:464,0
DA:469,0
DA:471,0
DA:472,0
DA:474,0
DA:477,0
DA:480,0
DA:469,0
DA:471,0
DA:472,0
DA:474,0
DA:477,0
DA:480,0
DA:537,0
LF:152
LH:0
end_of_record
SF:/home/runner/micromamba/envs/moose/libmesh/include/Eigen/src/Core/DenseStorage.h
DA:621,0
LF:1
LH:0
end_of_record
SF:/home/runner/micromamba/envs/moose/x86_64-conda-linux-gnu/include/c++/10.4.0/x86_64-conda-linux-gnu/bits/gthr-default.h
DA:748,0
DA:749,0
DA:778,0
DA:779,0
LF:4
LH:0
end_of_record
SF:/home/runner/work/raccoon/raccoon/moose/framework/build/header_symlinks/MooseBaseErrorInterface.h
DA:20,0
LF:1
LH:0
end_of_record
SF:/home/runner/micromamba/envs/moose/x86_64-conda-linux-gnu/include/c++/10.4.0/bits/stl_set.h
FN:281,_ZNSt3setIsSt4lessIsESaIsEED2Ev
FNDA:0,_ZNSt3setIsSt4lessIsESaIsEED2Ev
FN:281,_ZNSt3setItSt4lessItESaItEED2Ev
FNDA:0,_ZNSt3setItSt4lessItESaItEED2Ev
FNF:2
FNH:0
DA:281,0
DA:281,0
DA:281,0
LF:3
LH:0
end_of_record
SF:/home/runner/micromamba/envs/moose/x86_64-conda-linux-gnu/include/c++/10.4.0/bits/stl_iterator.h
DA:996,80
DA:1001,0
DA:1005,0
DA:1069,80
DA:1239,0
LF:5
LH:2
end_of_record
SF:/home/runner/micromamba/envs/moose/libmesh/include/libmesh/threads_pthread.h
FN:147,_ZN7libMesh7Threads10spin_mutexD2Ev
FNDA:0,_ZN7libMesh7Threads10spin_mutexD2Ev
FN:502,_ZN7libMesh7Threads6atomicIjEppEv
FNDA:0,_ZN7libMesh7Threads6atomicIjEppEv
FN:516,_ZN7libMesh7Threads6atomicIjEmmEv
FNDA:0,_ZN7libMesh7Threads6atomicIjEmmEv
FNF:3
FNH:0
DA:147,0
DA:149,0
DA:150,0
DA:502,0
DA:505,0
DA:506,0
DA:516,0
DA:519,0
DA:520,0
LF:9
LH:0
end_of_record
SF:/home/runner/micromamba/envs/moose/libmesh/include/libmesh/type_vector.h
DA:421,0
DA:451,0
DA:453,0
DA:456,0
DA:460,0
DA:468,252
DA:472,252
DA:475,252
DA:482,252
DA:639,0
DA:640,0
DA:777,0
DA:778,0
LF:13
LH:4
end_of_record
SF:/home/runner/work/raccoon/raccoon/moose/framework/build/header_symlinks/InputParameters.h
FN:69,_ZN15InputParametersD2Ev
FNDA:0,_ZN15InputParametersD2Ev
FN:69,_ZN15InputParametersD0Ev
FNDA:0,_ZN15InputParametersD0Ev
FN:1301,_ZN15InputParameters3setIN7libMesh5PointEEERT_RKNSt7__cxx1112basic_stringIcSt11char_traitsIcESaIcEEEb
FNDA:0,_ZN15InputParameters3setIN7libMesh5PointEEERT_RKNSt7__cxx1112basic_stringIcSt11char_traitsIcESaIcEEEb
FN:1301,_ZN15InputParameters3setIN7libMesh11VectorValueIdEEEERT_RKNSt7__cxx1112basic_stringIcSt11char_traitsIcESaIcEEEb
FNDA:0,_ZN15InputParameters3setIN7libMesh11VectorValueIdEEEERT_RKNSt7__cxx1112basic_stringIcSt11char_traitsIcESaIcEEEb
FN:1501,_ZN15InputParameters16addRequiredParamIdEEvRKNSt7__cxx1112basic_stringIcSt11char_traitsIcESaIcEEES8_
FNDA:0,_ZN15InputParameters16addRequiredParamIdEEvRKNSt7__cxx1112basic_stringIcSt11char_traitsIcESaIcEEES8_
FN:1501,_ZN15InputParameters16addRequiredParamI17PostprocessorNameEEvRKNSt7__cxx1112basic_stringIcSt11char_traitsIcESaIcEEES9_
FNDA:0,_ZN15InputParameters16addRequiredParamI17PostprocessorNameEEvRKNSt7__cxx1112basic_stringIcSt11char_traitsIcESaIcEEES9_
FN:1501,_ZN15InputParameters16addRequiredParamIjEEvRKNSt7__cxx1112basic_stringIcSt11char_traitsIcESaIcEEES8_
FNDA:0,_ZN15InputParameters16addRequiredParamIjEEvRKNSt7__cxx1112basic_stringIcSt11char_traitsIcESaIcEEES8_
FN:1527,_ZN15InputParameters8addParamIN7libMesh11VectorValueIdEES3_EEvRKNSt7__cxx1112basic_stringIcSt11char_traitsIcESaIcEEERKT0_SB_
FNDA:0,_ZN15InputParameters8addParamIN7libMesh11VectorValueIdEES3_EEvRKNSt7__cxx1112basic_stringIcSt11char_traitsIcESaIcEEERKT0_SB_
FN:1527,_ZN15InputParameters8addParamIN7libMesh5PointENS1_11VectorValueIdEEEEvRKNSt7__cxx1112basic_stringIcSt11char_traitsIcESaIcEEERKT0_SC_
FNDA:0,_ZN15InputParameters8addParamIN7libMesh5PointENS1_11VectorValueIdEEEEvRKNSt7__cxx1112basic_stringIcSt11char_traitsIcESaIcEEERKT0_SC_
FN:1723,_ZNK15InputParameters19checkConsistentTypeIjEEvRKNSt7__cxx1112basic_stringIcSt11char_traitsIcESaIcEEE
FNDA:0,_ZNK15InputParameters19checkConsistentTypeIjEEvRKNSt7__cxx1112basic_stringIcSt11char_traitsIcESaIcEEE
FN:1723,_ZNK15InputParameters19checkConsistentTypeIN7libMesh11VectorValueIdEEEEvRKNSt7__cxx1112basic_stringIcSt11char_traitsIcESaIcEEE
FNDA:0,_ZNK15InputParameters19checkConsistentTypeIN7libMesh11VectorValueIdEEEEvRKNSt7__cxx1112basic_stringIcSt11char_traitsIcESaIcEEE
FN:1723,_ZNK15InputParameters19checkConsistentTypeIN7libMesh5PointEEEvRKNSt7__cxx1112basic_stringIcSt11char_traitsIcESaIcEEE
FNDA:0,_ZNK15InputParameters19checkConsistentTypeIN7libMesh5PointEEEvRKNSt7__cxx1112basic_stringIcSt11char_traitsIcESaIcEEE
FN:1723,_ZNK15InputParameters19checkConsistentTypeI17PostprocessorNameEEvRKNSt7__cxx1112basic_stringIcSt11char_traitsIcESaIcEEE
FNDA:0,_ZNK15InputParameters19checkConsistentTypeI17PostprocessorNameEEvRKNSt7__cxx1112basic_stringIcSt11char_traitsIcESaIcEEE
FN:1723,_ZNK15InputParameters19checkConsistentTypeIdEEvRKNSt7__cxx1112basic_stringIcSt11char_traitsIcESaIcEEE
FNDA:0,_ZNK15InputParameters19checkConsistentTypeIdEEvRKNSt7__cxx1112basic_stringIcSt11char_traitsIcESaIcEEE
FN:1919,_ZN15InputParameters14getParamHelperIN7libMesh11VectorValueIdEEEERKT_RKNSt7__cxx1112basic_stringIcSt11char_traitsIcESaIcEEERKS_PS5_PK9MooseBase
FNDA:0,_ZN15InputParameters14getParamHelperIN7libMesh11VectorValueIdEEEERKT_RKNSt7__cxx1112basic_stringIcSt11char_traitsIcESaIcEEERKS_PS5_PK9MooseBase
FN:1919,_ZN15InputParameters14getParamHelperIN7libMesh5PointEEERKT_RKNSt7__cxx1112basic_stringIcSt11char_traitsIcESaIcEEERKS_PS4_PK9MooseBase
FNDA:0,_ZN15InputParameters14getParamHelperIN7libMesh5PointEEERKT_RKNSt7__cxx1112basic_stringIcSt11char_traitsIcESaIcEEERKS_PS4_PK9MooseBase
FN:1919,_ZN15InputParameters14getParamHelperIjEERKT_RKNSt7__cxx1112basic_stringIcSt11char_traitsIcESaIcEEERKS_PS2_PK9MooseBase
FNDA:0,_ZN15InputParameters14getParamHelperIjEERKT_RKNSt7__cxx1112basic_stringIcSt11char_traitsIcESaIcEEERKS_PS2_PK9MooseBase
FN:1919,_ZN15InputParameters14getParamHelperIdEERKT_RKNSt7__cxx1112basic_stringIcSt11char_traitsIcESaIcEEERKS_PS2_PK9MooseBase
FNDA:0,_ZN15InputParameters14getParamHelperIdEERKT_RKNSt7__cxx1112basic_stringIcSt11char_traitsIcESaIcEEERKS_PS2_PK9MooseBase
FN:2007,_ZNK15InputParameters3getIdEERKT_St17basic_string_viewIcSt11char_traitsIcEE
FNDA:0,_ZNK15InputParameters3getIdEERKT_St17basic_string_viewIcSt11char_traitsIcEE
FN:2007,_ZNK15InputParameters3getIN7libMesh5PointEEERKT_St17basic_string_viewIcSt11char_traitsIcEE
FNDA:0,_ZNK15InputParameters3getIN7libMesh5PointEEERKT_St17basic_string_viewIcSt11char_traitsIcEE
FN:2007,_ZNK15InputParameters3getIN7libMesh11VectorValueIdEEEERKT_St17basic_string_viewIcSt11char_traitsIcEE
FNDA:0,_ZNK15InputParameters3getIN7libMesh11VectorValueIdEEEERKT_St17basic_string_viewIcSt11char_traitsIcEE
FN:2007,_ZNK15InputParameters3getIjEERKT_St17basic_string_viewIcSt11char_traitsIcEE
FNDA:0,_ZNK15InputParameters3getIjEERKT_St17basic_string_viewIcSt11char_traitsIcEE
FNF:22
FNH:0
DA:69,0
DA:69,0
DA:1301,0
DA:1303,0
DA:1305,0
DA:1306,0
DA:1308,0
DA:1310,0
DA:1311,0
DA:1315,0
DA:1301,0
DA:1303,0
DA:1305,0
DA:1306,0
DA:1308,0
DA:1310,0
DA:1311,0
DA:1315,0
DA:1501,0
DA:1503,0
DA:1504,0
DA:1506,0
DA:1507,0
DA:1508,0
DA:1512,0
DA:1513,0
DA:1501,0
DA:1503,0
DA:1504,0
DA:1506,0
DA:1507,0
DA:1508,0
DA:1512,0
DA:1513,0
DA:1501,0
DA:1503,0
DA:1504,0
DA:1506,0
DA:1507,0
DA:1508,0
DA:1512,0
DA:1513,0
DA:1527,0
DA:1529,0
DA:1530,0
DA:1532,0
DA:1533,0
DA:1537,0
DA:1545,0
DA:1546,0
DA:1527,0
DA:1529,0
DA:1530,0
DA:1532,0
DA:1533,0
DA:1537,0
DA:1545,0
DA:1546,0
DA:1566,0
DA:1723,0
DA:1725,0
DA:1729,0
DA:1734,0
DA:1735,0
DA:1740,0
DA:1723,0
DA:1725,0
DA:1729,0
DA:1734,0
DA:1735,0
DA:1740,0
DA:1723,0
DA:1725,0
DA:1729,0
DA:1734,0
DA:1735,0
DA:1740,0
DA:1723,0
DA:1725,0
DA:1729,0
DA:1734,0
DA:1735,0
DA:1740,0
DA:1723,0
DA:1725,0
DA:1729,0
DA:1734,0
DA:1735,0
DA:1740,0
DA:1919,0
DA:1924,0
DA:1926,0
DA:1928,0
DA:1929,0
DA:1930,0
DA:1931,0
DA:1933,0
DA:1936,0
DA:1919,0
DA:1924,0
DA:1926,0
DA:1928,0
DA:1929,0
DA:1930,0
DA:1931,0
DA:1933,0
DA:1936,0
DA:1919,0
DA:1924,0
DA:1926,0
DA:1928,0
DA:1929,0
DA:1930,0
DA:1931,0
DA:1933,0
DA:1936,0
DA:1919,0
DA:1924,0
DA:1926,0
DA:1928,0
DA:1929,0
DA:1930,0
DA:1931,0
DA:1933,0
DA:1936,0
DA:2007,0
DA:2009,0
DA:2011,0
DA:2007,0
DA:2009,0
DA:2011,0
DA:2007,0
DA:2009,0
DA:2011,0
DA:2007,0
DA:2009,0
DA:2011,0
LF:137
LH:0
end_of_record
SF:/home/runner/micromamba/envs/moose/x86_64-conda-linux-gnu/include/c++/10.4.0/bits/stl_tree.h
FN:613,_ZNSt8_Rb_treeINSt7__cxx1112basic_stringIcSt11char_traitsIcESaIcEEESt4pairIKS5_St10unique_ptrIN7libMesh10Parameters5ValueESt14default_deleteISB_EEESt10_Select1stISF_ESt4lessIvESaISF_EE17_M_construct_nodeIJRKSt21piecewise_construct_tSt5tupleIJRS7_EESQ_IJEEEEEvPSt13_Rb_tree_nodeISF_EDpOT_
FNDA:0,_ZNSt8_Rb_treeINSt7__cxx1112basic_stringIcSt11char_traitsIcESaIcEEESt4pairIKS5_St10unique_ptrIN7libMesh10Parameters5ValueESt14default_deleteISB_EEESt10_Select1stISF_ESt4lessIvESaISF_EE17_M_construct_nodeIJRKSt21piecewise_construct_tSt5tupleIJRS7_EESQ_IJEEEEEvPSt13_Rb_tree_nodeISF_EDpOT_
FN:613,_ZNSt8_Rb_treeINSt7__cxx1112basic_stringIcSt11char_traitsIcESaIcEEESt4pairIKS5_St6vectorISt10shared_ptrI17RegistryEntryBaseESaISB_EEESt10_Select1stISE_ESt4lessIS5_ESaISE_EE17_M_construct_nodeIJRKSt21piecewise_construct_tSt5tupleIJRS7_EESP_IJEEEEEvPSt13_Rb_tree_nodeISE_EDpOT_
FNDA:0,_ZNSt8_Rb_treeINSt7__cxx1112basic_stringIcSt11char_traitsIcESaIcEEESt4pairIKS5_St6vectorISt10shared_ptrI17RegistryEntryBaseESaISB_EEESt10_Select1stISE_ESt4lessIS5_ESaISE_EE17_M_construct_nodeIJRKSt21piecewise_construct_tSt5tupleIJRS7_EESP_IJEEEEEvPSt13_Rb_tree_nodeISE_EDpOT_
FN:613,_ZNSt8_Rb_treeINSt7__cxx1112basic_stringIcSt11char_traitsIcESaIcEEESt4pairIKS5_N15InputParameters8MetadataEESt10_Select1stISA_ESt4lessIS5_ESaISA_EE17_M_construct_nodeIJRKSt21piecewise_construct_tSt5tupleIJRS7_EESL_IJEEEEEvPSt13_Rb_tree_nodeISA_EDpOT_
FNDA:0,_ZNSt8_Rb_treeINSt7__cxx1112basic_stringIcSt11char_traitsIcESaIcEEESt4pairIKS5_N15InputParameters8MetadataEESt10_Select1stISA_ESt4lessIS5_ESaISA_EE17_M_construct_nodeIJRKSt21piecewise_construct_tSt5tupleIJRS7_EESL_IJEEEEEvPSt13_Rb_tree_nodeISA_EDpOT_
FN:632,_ZNSt8_Rb_treeINSt7__cxx1112basic_stringIcSt11char_traitsIcESaIcEEESt4pairIKS5_N15InputParameters8MetadataEESt10_Select1stISA_ESt4lessIS5_ESaISA_EE14_M_create_nodeIJRKSt21piecewise_construct_tSt5tupleIJRS7_EESL_IJEEEEEPSt13_Rb_tree_nodeISA_EDpOT_
FNDA:0,_ZNSt8_Rb_treeINSt7__cxx1112basic_stringIcSt11char_traitsIcESaIcEEESt4pairIKS5_N15InputParameters8MetadataEESt10_Select1stISA_ESt4lessIS5_ESaISA_EE14_M_create_nodeIJRKSt21piecewise_construct_tSt5tupleIJRS7_EESL_IJEEEEEPSt13_Rb_tree_nodeISA_EDpOT_
FN:632,_ZNSt8_Rb_treeINSt7__cxx1112basic_stringIcSt11char_traitsIcESaIcEEESt4pairIKS5_St10unique_ptrIN7libMesh10Parameters5ValueESt14default_deleteISB_EEESt10_Select1stISF_ESt4lessIvESaISF_EE14_M_create_nodeIJRKSt21piecewise_construct_tSt5tupleIJRS7_EESQ_IJEEEEEPSt13_Rb_tree_nodeISF_EDpOT_
FNDA:0,_ZNSt8_Rb_treeINSt7__cxx1112basic_stringIcSt11char_traitsIcESaIcEEESt4pairIKS5_St10unique_ptrIN7libMesh10Parameters5ValueESt14default_deleteISB_EEESt10_Select1stISF_ESt4lessIvESaISF_EE14_M_create_nodeIJRKSt21piecewise_construct_tSt5tupleIJRS7_EESQ_IJEEEEEPSt13_Rb_tree_nodeISF_EDpOT_
FN:632,_ZNSt8_Rb_treeINSt7__cxx1112basic_stringIcSt11char_traitsIcESaIcEEESt4pairIKS5_S5_ESt10_Select1stIS8_ESt4lessIS5_ESaIS8_EE14_M_create_nodeIJRKSt21piecewise_construct_tSt5tupleIJOS5_EESJ_IJEEEEEPSt13_Rb_tree_nodeIS8_EDpOT_
FNDA:0,_ZNSt8_Rb_treeINSt7__cxx1112basic_stringIcSt11char_traitsIcESaIcEEESt4pairIKS5_S5_ESt10_Select1stIS8_ESt4lessIS5_ESaIS8_EE14_M_create_nodeIJRKSt21piecewise_construct_tSt5tupleIJOS5_EESJ_IJEEEEEPSt13_Rb_tree_nodeIS8_EDpOT_
FN:632,_ZNSt8_Rb_treeINSt7__cxx1112basic_stringIcSt11char_traitsIcESaIcEEESt4pairIKS5_St6vectorISt10shared_ptrI17RegistryEntryBaseESaISB_EEESt10_Select1stISE_ESt4lessIS5_ESaISE_EE14_M_create_nodeIJRKSt21piecewise_construct_tSt5tupleIJRS7_EESP_IJEEEEEPSt13_Rb_tree_nodeISE_EDpOT_
FNDA:0,_ZNSt8_Rb_treeINSt7__cxx1112basic_stringIcSt11char_traitsIcESaIcEEESt4pairIKS5_St6vectorISt10shared_ptrI17RegistryEntryBaseESaISB_EEESt10_Select1stISE_ESt4lessIS5_ESaISE_EE14_M_create_nodeIJRKSt21piecewise_construct_tSt5tupleIJRS7_EESP_IJEEEEEPSt13_Rb_tree_nodeISE_EDpOT_
FN:652,_ZNSt8_Rb_treeINSt7__cxx1112basic_stringIcSt11char_traitsIcESaIcEEESt4pairIKS5_S5_ESt10_Select1stIS8_ESt4lessIS5_ESaIS8_EE12_M_drop_nodeEPSt13_Rb_tree_nodeIS8_E
FNDA:0,_ZNSt8_Rb_treeINSt7__cxx1112basic_stringIcSt11char_traitsIcESaIcEEESt4pairIKS5_S5_ESt10_Select1stIS8_ESt4lessIS5_ESaIS8_EE12_M_drop_nodeEPSt13_Rb_tree_nodeIS8_E
FN:652,_ZNSt8_Rb_treeINSt7__cxx1112basic_stringIcSt11char_traitsIcESaIcEEESt4pairIKS5_St6vectorISt10shared_ptrI17RegistryEntryBaseESaISB_EEESt10_Select1stISE_ESt4lessIS5_ESaISE_EE12_M_drop_nodeEPSt13_Rb_tree_nodeISE_E
FNDA:0,_ZNSt8_Rb_treeINSt7__cxx1112basic_stringIcSt11char_traitsIcESaIcEEESt4pairIKS5_St6vectorISt10shared_ptrI17RegistryEntryBaseESaISB_EEESt10_Select1stISE_ESt4lessIS5_ESaISE_EE12_M_drop_nodeEPSt13_Rb_tree_nodeISE_E
FN:652,_ZNSt8_Rb_treeI17PostprocessorNameSt4pairIKS0_St10unique_ptrIdSt14default_deleteIdEEESt10_Select1stIS7_ESt4lessIS0_ESaIS7_EE12_M_drop_nodeEPSt13_Rb_tree_nodeIS7_E
FNDA:0,_ZNSt8_Rb_treeI17PostprocessorNameSt4pairIKS0_St10unique_ptrIdSt14default_deleteIdEEESt10_Select1stIS7_ESt4lessIS0_ESaIS7_EE12_M_drop_nodeEPSt13_Rb_tree_nodeIS7_E
FN:652,_ZNSt8_Rb_treeINSt7__cxx1112basic_stringIcSt11char_traitsIcESaIcEEESt4pairIKS5_N15InputParameters8MetadataEESt10_Select1stISA_ESt4lessIS5_ESaISA_EE12_M_drop_nodeEPSt13_Rb_tree_nodeISA_E
FNDA:0,_ZNSt8_Rb_treeINSt7__cxx1112basic_stringIcSt11char_traitsIcESaIcEEESt4pairIKS5_N15InputParameters8MetadataEESt10_Select1stISA_ESt4lessIS5_ESaISA_EE12_M_drop_nodeEPSt13_Rb_tree_nodeISA_E
FN:652,_ZNSt8_Rb_treeINSt7__cxx1112basic_stringIcSt11char_traitsIcESaIcEEESt4pairIKS5_St10unique_ptrIN7libMesh10Parameters5ValueESt14default_deleteISB_EEESt10_Select1stISF_ESt4lessIvESaISF_EE12_M_drop_nodeEPSt13_Rb_tree_nodeISF_E
FNDA:0,_ZNSt8_Rb_treeINSt7__cxx1112basic_stringIcSt11char_traitsIcESaIcEEESt4pairIKS5_St10unique_ptrIN7libMesh10Parameters5ValueESt14default_deleteISB_EEESt10_Select1stISF_ESt4lessIvESaISF_EE12_M_drop_nodeEPSt13_Rb_tree_nodeISF_E
FN:652,_ZNSt8_Rb_treeI13MooseEnumItemS0_St9_IdentityIS0_ESt4lessIS0_ESaIS0_EE12_M_drop_nodeEPSt13_Rb_tree_nodeIS0_E
FNDA:0,_ZNSt8_Rb_treeI13MooseEnumItemS0_St9_IdentityIS0_ESt4lessIS0_ESaIS0_EE12_M_drop_nodeEPSt13_Rb_tree_nodeIS0_E
FN:1261,_ZNSt8_Rb_treeINSt7__cxx1112basic_stringIcSt11char_traitsIcESaIcEEESt4pairIKS5_St10unique_ptrIN7libMesh10Parameters5ValueESt14default_deleteISB_EEESt10_Select1stISF_ESt4lessIvESaISF_EE5clearEv
FNDA:0,_ZNSt8_Rb_treeINSt7__cxx1112basic_stringIcSt11char_traitsIcESaIcEEESt4pairIKS5_St10unique_ptrIN7libMesh10Parameters5ValueESt14default_deleteISB_EEESt10_Select1stISF_ESt4lessIvESaISF_EE5clearEv
FN:1312,_ZNKSt8_Rb_treeINSt7__cxx1112basic_stringIcSt11char_traitsIcESaIcEEESt4pairIKS5_St10unique_ptrIN7libMesh10Parameters5ValueESt14default_deleteISB_EEESt10_Select1stISF_ESt4lessIvESaISF_EE10_M_find_trISt17basic_string_viewIcS3_EvEESt23_Rb_tree_const_iteratorISF_ERKT_
FNDA:0,_ZNKSt8_Rb_treeINSt7__cxx1112basic_stringIcSt11char_traitsIcESaIcEEESt4pairIKS5_St10unique_ptrIN7libMesh10Parameters5ValueESt14default_deleteISB_EEESt10_Select1stISF_ESt4lessIvESaISF_EE10_M_find_trISt17basic_string_viewIcS3_EvEESt23_Rb_tree_const_iteratorISF_ERKT_
FN:1341,_ZNKSt8_Rb_treeINSt7__cxx1112basic_stringIcSt11char_traitsIcESaIcEEESt4pairIKS5_St10unique_ptrIN7libMesh10Parameters5ValueESt14default_deleteISB_EEESt10_Select1stISF_ESt4lessIvESaISF_EE17_M_lower_bound_trISt17basic_string_viewIcS3_EvEESt23_Rb_tree_const_iteratorISF_ERKT_
FNDA:0,_ZNKSt8_Rb_treeINSt7__cxx1112basic_stringIcSt11char_traitsIcESaIcEEESt4pairIKS5_St10unique_ptrIN7libMesh10Parameters5ValueESt14default_deleteISB_EEESt10_Select1stISF_ESt4lessIvESaISF_EE17_M_lower_bound_trISt17basic_string_viewIcS3_EvEESt23_Rb_tree_const_iteratorISF_ERKT_
FN:1918,_ZNSt8_Rb_treeIP22MooseVariableFieldBaseS1_St9_IdentityIS1_ESt4lessIS1_ESaIS1_EE8_M_eraseEPSt13_Rb_tree_nodeIS1_E
FNDA:0,_ZNSt8_Rb_treeIP22MooseVariableFieldBaseS1_St9_IdentityIS1_ESt4lessIS1_ESaIS1_EE8_M_eraseEPSt13_Rb_tree_nodeIS1_E
FN:1918,_ZNSt8_Rb_treeI17PostprocessorNameSt4pairIKS0_St10unique_ptrIdSt14default_deleteIdEEESt10_Select1stIS7_ESt4lessIS0_ESaIS7_EE8_M_eraseEPSt13_Rb_tree_nodeIS7_E
FNDA:0,_ZNSt8_Rb_treeI17PostprocessorNameSt4pairIKS0_St10unique_ptrIdSt14default_deleteIdEEESt10_Select1stIS7_ESt4lessIS0_ESaIS7_EE8_M_eraseEPSt13_Rb_tree_nodeIS7_E
FN:1918,_ZNSt8_Rb_treeIjjSt9_IdentityIjESt4lessIjESaIjEE8_M_eraseEPSt13_Rb_tree_nodeIjE
FNDA:0,_ZNSt8_Rb_treeIjjSt9_IdentityIjESt4lessIjESaIjEE8_M_eraseEPSt13_Rb_tree_nodeIjE
FN:1918,_ZNSt8_Rb_treeINSt7__cxx1112basic_stringIcSt11char_traitsIcESaIcEEESt4pairIKS5_S6_IS5_S5_EESt10_Select1stIS9_ESt4lessIS5_ESaIS9_EE8_M_eraseEPSt13_Rb_tree_nodeIS9_E
FNDA:0,_ZNSt8_Rb_treeINSt7__cxx1112basic_stringIcSt11char_traitsIcESaIcEEESt4pairIKS5_S6_IS5_S5_EESt10_Select1stIS9_ESt4lessIS5_ESaIS9_EE8_M_eraseEPSt13_Rb_tree_nodeIS9_E
FN:1918,_ZNSt8_Rb_treeINSt7__cxx1112basic_stringIcSt11char_traitsIcESaIcEEESt4pairIKS5_S5_ESt10_Select1stIS8_ESt4lessIS5_ESaIS8_EE8_M_eraseEPSt13_Rb_tree_nodeIS8_E
FNDA:0,_ZNSt8_Rb_treeINSt7__cxx1112basic_stringIcSt11char_traitsIcESaIcEEESt4pairIKS5_S5_ESt10_Select1stIS8_ESt4lessIS5_ESaIS8_EE8_M_eraseEPSt13_Rb_tree_nodeIS8_E
FN:1918,_ZNSt8_Rb_treeINSt7__cxx1112basic_stringIcSt11char_traitsIcESaIcEEES5_St9_IdentityIS5_ESt4lessIS5_ESaIS5_EE8_M_eraseEPSt13_Rb_tree_nodeIS5_E
FNDA:0,_ZNSt8_Rb_treeINSt7__cxx1112basic_stringIcSt11char_traitsIcESaIcEEES5_St9_IdentityIS5_ESt4lessIS5_ESaIS5_EE8_M_eraseEPSt13_Rb_tree_nodeIS5_E
FN:1918,_ZNSt8_Rb_treeIssSt9_IdentityIsESt4lessIsESaIsEE8_M_eraseEPSt13_Rb_tree_nodeIsE
FNDA:0,_ZNSt8_Rb_treeIssSt9_IdentityIsESt4lessIsESaIsEE8_M_eraseEPSt13_Rb_tree_nodeIsE
FN:1918,_ZNSt8_Rb_treeIttSt9_IdentityItESt4lessItESaItEE8_M_eraseEPSt13_Rb_tree_nodeItE
FNDA:0,_ZNSt8_Rb_treeIttSt9_IdentityItESt4lessItESaItEE8_M_eraseEPSt13_Rb_tree_nodeItE
FN:1918,_ZNSt8_Rb_treeINSt7__cxx1112basic_stringIcSt11char_traitsIcESaIcEEESt4pairIKS5_St10unique_ptrIN7libMesh10Parameters5ValueESt14default_deleteISB_EEESt10_Select1stISF_ESt4lessIvESaISF_EE8_M_eraseEPSt13_Rb_tree_nodeISF_E
FNDA:0,_ZNSt8_Rb_treeINSt7__cxx1112basic_stringIcSt11char_traitsIcESaIcEEESt4pairIKS5_St10unique_ptrIN7libMesh10Parameters5ValueESt14default_deleteISB_EEESt10_Select1stISF_ESt4lessIvESaISF_EE8_M_eraseEPSt13_Rb_tree_nodeISF_E
FN:1918,_ZNSt8_Rb_treeIP18MooseVariableFieldIdES2_St9_IdentityIS2_ESt4lessIS2_ESaIS2_EE8_M_eraseEPSt13_Rb_tree_nodeIS2_E
FNDA:0,_ZNSt8_Rb_treeIP18MooseVariableFieldIdES2_St9_IdentityIS2_ESt4lessIS2_ESaIS2_EE8_M_eraseEPSt13_Rb_tree_nodeIS2_E
FN:1918,_ZNSt8_Rb_treeINSt7__cxx1112basic_stringIcSt11char_traitsIcESaIcEEESt4pairIKS5_N15InputParameters8MetadataEESt10_Select1stISA_ESt4lessIS5_ESaISA_EE8_M_eraseEPSt13_Rb_tree_nodeISA_E
FNDA:0,_ZNSt8_Rb_treeINSt7__cxx1112basic_stringIcSt11char_traitsIcESaIcEEESt4pairIKS5_N15InputParameters8MetadataEESt10_Select1stISA_ESt4lessIS5_ESaISA_EE8_M_eraseEPSt13_Rb_tree_nodeISA_E
FN:1918,_ZNSt8_Rb_treeI13MooseEnumItemS0_St9_IdentityIS0_ESt4lessIS0_ESaIS0_EE8_M_eraseEPSt13_Rb_tree_nodeIS0_E
FNDA:0,_ZNSt8_Rb_treeI13MooseEnumItemS0_St9_IdentityIS0_ESt4lessIS0_ESaIS0_EE8_M_eraseEPSt13_Rb_tree_nodeIS0_E
FN:1935,_ZNSt8_Rb_treeINSt7__cxx1112basic_stringIcSt11char_traitsIcESaIcEEESt4pairIKS5_St10unique_ptrIN7libMesh10Parameters5ValueESt14default_deleteISB_EEESt10_Select1stISF_ESt4lessIvESaISF_EE14_M_lower_boundEPSt13_Rb_tree_nodeISF_EPSt18_Rb_tree_node_baseRS7_
FNDA:0,_ZNSt8_Rb_treeINSt7__cxx1112basic_stringIcSt11char_traitsIcESaIcEEESt4pairIKS5_St10unique_ptrIN7libMesh10Parameters5ValueESt14default_deleteISB_EEESt10_Select1stISF_ESt4lessIvESaISF_EE14_M_lower_boundEPSt13_Rb_tree_nodeISF_EPSt18_Rb_tree_node_baseRS7_
FN:1935,_ZNSt8_Rb_treeINSt7__cxx1112basic_stringIcSt11char_traitsIcESaIcEEESt4pairIKS5_S5_ESt10_Select1stIS8_ESt4lessIS5_ESaIS8_EE14_M_lower_boundEPSt13_Rb_tree_nodeIS8_EPSt18_Rb_tree_node_baseRS7_
FNDA:0,_ZNSt8_Rb_treeINSt7__cxx1112basic_stringIcSt11char_traitsIcESaIcEEESt4pairIKS5_S5_ESt10_Select1stIS8_ESt4lessIS5_ESaIS8_EE14_M_lower_boundEPSt13_Rb_tree_nodeIS8_EPSt18_Rb_tree_node_baseRS7_
FN:1935,_ZNSt8_Rb_treeINSt7__cxx1112basic_stringIcSt11char_traitsIcESaIcEEESt4pairIKS5_N15InputParameters8MetadataEESt10_Select1stISA_ESt4lessIS5_ESaISA_EE14_M_lower_boundEPSt13_Rb_tree_nodeISA_EPSt18_Rb_tree_node_baseRS7_
FNDA:0,_ZNSt8_Rb_treeINSt7__cxx1112basic_stringIcSt11char_traitsIcESaIcEEESt4pairIKS5_N15InputParameters8MetadataEESt10_Select1stISA_ESt4lessIS5_ESaISA_EE14_M_lower_boundEPSt13_Rb_tree_nodeISA_EPSt18_Rb_tree_node_baseRS7_
FN:1935,_ZNSt8_Rb_treeINSt7__cxx1112basic_stringIcSt11char_traitsIcESaIcEEESt4pairIKS5_St6vectorISt10shared_ptrI17RegistryEntryBaseESaISB_EEESt10_Select1stISE_ESt4lessIS5_ESaISE_EE14_M_lower_boundEPSt13_Rb_tree_nodeISE_EPSt18_Rb_tree_node_baseRS7_
FNDA:0,_ZNSt8_Rb_treeINSt7__cxx1112basic_stringIcSt11char_traitsIcESaIcEEESt4pairIKS5_St6vectorISt10shared_ptrI17RegistryEntryBaseESaISB_EEESt10_Select1stISE_ESt4lessIS5_ESaISE_EE14_M_lower_boundEPSt13_Rb_tree_nodeISE_EPSt18_Rb_tree_node_baseRS7_
FN:1951,_ZNKSt8_Rb_treeINSt7__cxx1112basic_stringIcSt11char_traitsIcESaIcEEESt4pairIKS5_St10unique_ptrIN7libMesh10Parameters5ValueESt14default_deleteISB_EEESt10_Select1stISF_ESt4lessIvESaISF_EE14_M_lower_boundEPKSt13_Rb_tree_nodeISF_EPKSt18_Rb_tree_node_baseRS7_
FNDA:0,_ZNKSt8_Rb_treeINSt7__cxx1112basic_stringIcSt11char_traitsIcESaIcEEESt4pairIKS5_St10unique_ptrIN7libMesh10Parameters5ValueESt14default_deleteISB_EEESt10_Select1stISF_ESt4lessIvESaISF_EE14_M_lower_boundEPKSt13_Rb_tree_nodeISF_EPKSt18_Rb_tree_node_baseRS7_
FN:2096,_ZNSt8_Rb_treeINSt7__cxx1112basic_stringIcSt11char_traitsIcESaIcEEESt4pairIKS5_S5_ESt10_Select1stIS8_ESt4lessIS5_ESaIS8_EE24_M_get_insert_unique_posERS7_
FNDA:0,_ZNSt8_Rb_treeINSt7__cxx1112basic_stringIcSt11char_traitsIcESaIcEEESt4pairIKS5_S5_ESt10_Select1stIS8_ESt4lessIS5_ESaIS8_EE24_M_get_insert_unique_posERS7_
FN:2096,_ZNSt8_Rb_treeINSt7__cxx1112basic_stringIcSt11char_traitsIcESaIcEEESt4pairIKS5_St6vectorISt10shared_ptrI17RegistryEntryBaseESaISB_EEESt10_Select1stISE_ESt4lessIS5_ESaISE_EE24_M_get_insert_unique_posERS7_
FNDA:0,_ZNSt8_Rb_treeINSt7__cxx1112basic_stringIcSt11char_traitsIcESaIcEEESt4pairIKS5_St6vectorISt10shared_ptrI17RegistryEntryBaseESaISB_EEESt10_Select1stISE_ESt4lessIS5_ESaISE_EE24_M_get_insert_unique_posERS7_
FN:2096,_ZNSt8_Rb_treeINSt7__cxx1112basic_stringIcSt11char_traitsIcESaIcEEESt4pairIKS5_St10unique_ptrIN7libMesh10Parameters5ValueESt14default_deleteISB_EEESt10_Select1stISF_ESt4lessIvESaISF_EE24_M_get_insert_unique_posERS7_
FNDA:0,_ZNSt8_Rb_treeINSt7__cxx1112basic_stringIcSt11char_traitsIcESaIcEEESt4pairIKS5_St10unique_ptrIN7libMesh10Parameters5ValueESt14default_deleteISB_EEESt10_Select1stISF_ESt4lessIvESaISF_EE24_M_get_insert_unique_posERS7_
FN:2096,_ZNSt8_Rb_treeINSt7__cxx1112basic_stringIcSt11char_traitsIcESaIcEEESt4pairIKS5_N15InputParameters8MetadataEESt10_Select1stISA_ESt4lessIS5_ESaISA_EE24_M_get_insert_unique_posERS7_
FNDA:0,_ZNSt8_Rb_treeINSt7__cxx1112basic_stringIcSt11char_traitsIcESaIcEEESt4pairIKS5_N15InputParameters8MetadataEESt10_Select1stISA_ESt4lessIS5_ESaISA_EE24_M_get_insert_unique_posERS7_
FN:2198,_ZNSt8_Rb_treeINSt7__cxx1112basic_stringIcSt11char_traitsIcESaIcEEESt4pairIKS5_St6vectorISt10shared_ptrI17RegistryEntryBaseESaISB_EEESt10_Select1stISE_ESt4lessIS5_ESaISE_EE29_M_get_insert_hint_unique_posESt23_Rb_tree_const_iteratorISE_ERS7_
FNDA:0,_ZNSt8_Rb_treeINSt7__cxx1112basic_stringIcSt11char_traitsIcESaIcEEESt4pairIKS5_St6vectorISt10shared_ptrI17RegistryEntryBaseESaISB_EEESt10_Select1stISE_ESt4lessIS5_ESaISE_EE29_M_get_insert_hint_unique_posESt23_Rb_tree_const_iteratorISE_ERS7_
FN:2198,_ZNSt8_Rb_treeINSt7__cxx1112basic_stringIcSt11char_traitsIcESaIcEEESt4pairIKS5_S5_ESt10_Select1stIS8_ESt4lessIS5_ESaIS8_EE29_M_get_insert_hint_unique_posESt23_Rb_tree_const_iteratorIS8_ERS7_
FNDA:0,_ZNSt8_Rb_treeINSt7__cxx1112basic_stringIcSt11char_traitsIcESaIcEEESt4pairIKS5_S5_ESt10_Select1stIS8_ESt4lessIS5_ESaIS8_EE29_M_get_insert_hint_unique_posESt23_Rb_tree_const_iteratorIS8_ERS7_
FN:2198,_ZNSt8_Rb_treeINSt7__cxx1112basic_stringIcSt11char_traitsIcESaIcEEESt4pairIKS5_St10unique_ptrIN7libMesh10Parameters5ValueESt14default_deleteISB_EEESt10_Select1stISF_ESt4lessIvESaISF_EE29_M_get_insert_hint_unique_posESt23_Rb_tree_const_iteratorISF_ERS7_
FNDA:0,_ZNSt8_Rb_treeINSt7__cxx1112basic_stringIcSt11char_traitsIcESaIcEEESt4pairIKS5_St10unique_ptrIN7libMesh10Parameters5ValueESt14default_deleteISB_EEESt10_Select1stISF_ESt4lessIvESaISF_EE29_M_get_insert_hint_unique_posESt23_Rb_tree_const_iteratorISF_ERS7_
FN:2198,_ZNSt8_Rb_treeINSt7__cxx1112basic_stringIcSt11char_traitsIcESaIcEEESt4pairIKS5_N15InputParameters8MetadataEESt10_Select1stISA_ESt4lessIS5_ESaISA_EE29_M_get_insert_hint_unique_posESt23_Rb_tree_const_iteratorISA_ERS7_
FNDA:0,_ZNSt8_Rb_treeINSt7__cxx1112basic_stringIcSt11char_traitsIcESaIcEEESt4pairIKS5_N15InputParameters8MetadataEESt10_Select1stISA_ESt4lessIS5_ESaISA_EE29_M_get_insert_hint_unique_posESt23_Rb_tree_const_iteratorISA_ERS7_
FN:2365,_ZNSt8_Rb_treeINSt7__cxx1112basic_stringIcSt11char_traitsIcESaIcEEESt4pairIKS5_St6vectorISt10shared_ptrI17RegistryEntryBaseESaISB_EEESt10_Select1stISE_ESt4lessIS5_ESaISE_EE14_M_insert_nodeEPSt18_Rb_tree_node_baseSM_PSt13_Rb_tree_nodeISE_E
FNDA:0,_ZNSt8_Rb_treeINSt7__cxx1112basic_stringIcSt11char_traitsIcESaIcEEESt4pairIKS5_St6vectorISt10shared_ptrI17RegistryEntryBaseESaISB_EEESt10_Select1stISE_ESt4lessIS5_ESaISE_EE14_M_insert_nodeEPSt18_Rb_tree_node_baseSM_PSt13_Rb_tree_nodeISE_E
FN:2365,_ZNSt8_Rb_treeINSt7__cxx1112basic_stringIcSt11char_traitsIcESaIcEEESt4pairIKS5_S5_ESt10_Select1stIS8_ESt4lessIS5_ESaIS8_EE14_M_insert_nodeEPSt18_Rb_tree_node_baseSG_PSt13_Rb_tree_nodeIS8_E
FNDA:0,_ZNSt8_Rb_treeINSt7__cxx1112basic_stringIcSt11char_traitsIcESaIcEEESt4pairIKS5_S5_ESt10_Select1stIS8_ESt4lessIS5_ESaIS8_EE14_M_insert_nodeEPSt18_Rb_tree_node_baseSG_PSt13_Rb_tree_nodeIS8_E
FN:2365,_ZNSt8_Rb_treeINSt7__cxx1112basic_stringIcSt11char_traitsIcESaIcEEESt4pairIKS5_St10unique_ptrIN7libMesh10Parameters5ValueESt14default_deleteISB_EEESt10_Select1stISF_ESt4lessIvESaISF_EE14_M_insert_nodeEPSt18_Rb_tree_node_baseSN_PSt13_Rb_tree_nodeISF_E
FNDA:0,_ZNSt8_Rb_treeINSt7__cxx1112basic_stringIcSt11char_traitsIcESaIcEEESt4pairIKS5_St10unique_ptrIN7libMesh10Parameters5ValueESt14default_deleteISB_EEESt10_Select1stISF_ESt4lessIvESaISF_EE14_M_insert_nodeEPSt18_Rb_tree_node_baseSN_PSt13_Rb_tree_nodeISF_E
FN:2365,_ZNSt8_Rb_treeINSt7__cxx1112basic_stringIcSt11char_traitsIcESaIcEEESt4pairIKS5_N15InputParameters8MetadataEESt10_Select1stISA_ESt4lessIS5_ESaISA_EE14_M_insert_nodeEPSt18_Rb_tree_node_baseSI_PSt13_Rb_tree_nodeISA_E
FNDA:0,_ZNSt8_Rb_treeINSt7__cxx1112basic_stringIcSt11char_traitsIcESaIcEEESt4pairIKS5_N15InputParameters8MetadataEESt10_Select1stISA_ESt4lessIS5_ESaISA_EE14_M_insert_nodeEPSt18_Rb_tree_node_baseSI_PSt13_Rb_tree_nodeISA_E
FN:2463,_ZNSt8_Rb_treeINSt7__cxx1112basic_stringIcSt11char_traitsIcESaIcEEESt4pairIKS5_N15InputParameters8MetadataEESt10_Select1stISA_ESt4lessIS5_ESaISA_EE22_M_emplace_hint_uniqueIJRKSt21piecewise_construct_tSt5tupleIJRS7_EESL_IJEEEEESt17_Rb_tree_iteratorISA_ESt23_Rb_tree_const_iteratorISA_EDpOT_
FNDA:0,_ZNSt8_Rb_treeINSt7__cxx1112basic_stringIcSt11char_traitsIcESaIcEEESt4pairIKS5_N15InputParameters8MetadataEESt10_Select1stISA_ESt4lessIS5_ESaISA_EE22_M_emplace_hint_uniqueIJRKSt21piecewise_construct_tSt5tupleIJRS7_EESL_IJEEEEESt17_Rb_tree_iteratorISA_ESt23_Rb_tree_const_iteratorISA_EDpOT_
FN:2463,_ZNSt8_Rb_treeINSt7__cxx1112basic_stringIcSt11char_traitsIcESaIcEEESt4pairIKS5_S5_ESt10_Select1stIS8_ESt4lessIS5_ESaIS8_EE22_M_emplace_hint_uniqueIJRKSt21piecewise_construct_tSt5tupleIJOS5_EESJ_IJEEEEESt17_Rb_tree_iteratorIS8_ESt23_Rb_tree_const_iteratorIS8_EDpOT_
FNDA:0,_ZNSt8_Rb_treeINSt7__cxx1112basic_stringIcSt11char_traitsIcESaIcEEESt4pairIKS5_S5_ESt10_Select1stIS8_ESt4lessIS5_ESaIS8_EE22_M_emplace_hint_uniqueIJRKSt21piecewise_construct_tSt5tupleIJOS5_EESJ_IJEEEEESt17_Rb_tree_iteratorIS8_ESt23_Rb_tree_const_iteratorIS8_EDpOT_
FN:2463,_ZNSt8_Rb_treeINSt7__cxx1112basic_stringIcSt11char_traitsIcESaIcEEESt4pairIKS5_St10unique_ptrIN7libMesh10Parameters5ValueESt14default_deleteISB_EEESt10_Select1stISF_ESt4lessIvESaISF_EE22_M_emplace_hint_uniqueIJRKSt21piecewise_construct_tSt5tupleIJRS7_EESQ_IJEEEEESt17_Rb_tree_iteratorISF_ESt23_Rb_tree_const_iteratorISF_EDpOT_
FNDA:0,_ZNSt8_Rb_treeINSt7__cxx1112basic_stringIcSt11char_traitsIcESaIcEEESt4pairIKS5_St10unique_ptrIN7libMesh10Parameters5ValueESt14default_deleteISB_EEESt10_Select1stISF_ESt4lessIvESaISF_EE22_M_emplace_hint_uniqueIJRKSt21piecewise_construct_tSt5tupleIJRS7_EESQ_IJEEEEESt17_Rb_tree_iteratorISF_ESt23_Rb_tree_const_iteratorISF_EDpOT_
FN:2463,_ZNSt8_Rb_treeINSt7__cxx1112basic_stringIcSt11char_traitsIcESaIcEEESt4pairIKS5_St6vectorISt10shared_ptrI17RegistryEntryBaseESaISB_EEESt10_Select1stISE_ESt4lessIS5_ESaISE_EE22_M_emplace_hint_uniqueIJRKSt21piecewise_construct_tSt5tupleIJRS7_EESP_IJEEEEESt17_Rb_tree_iteratorISE_ESt23_Rb_tree_const_iteratorISE_EDpOT_
FNDA:0,_ZNSt8_Rb_treeINSt7__cxx1112basic_stringIcSt11char_traitsIcESaIcEEESt4pairIKS5_St6vectorISt10shared_ptrI17RegistryEntryBaseESaISB_EEESt10_Select1stISE_ESt4lessIS5_ESaISE_EE22_M_emplace_hint_uniqueIJRKSt21piecewise_construct_tSt5tupleIJRS7_EESP_IJEEEEESt17_Rb_tree_iteratorISE_ESt23_Rb_tree_const_iteratorISE_EDpOT_
FN:2568,_ZNKSt8_Rb_treeINSt7__cxx1112basic_stringIcSt11char_traitsIcESaIcEEESt4pairIKS5_St10unique_ptrIN7libMesh10Parameters5ValueESt14default_deleteISB_EEESt10_Select1stISF_ESt4lessIvESaISF_EE4findERS7_
FNDA:0,_ZNKSt8_Rb_treeINSt7__cxx1112basic_stringIcSt11char_traitsIcESaIcEEESt4pairIKS5_St10unique_ptrIN7libMesh10Parameters5ValueESt14default_deleteISB_EEESt10_Select1stISF_ESt4lessIvESaISF_EE4findERS7_
FNF:50
FNH:0
DA:208,0
DA:209,0
DA:210,0
DA:211,0
DA:287,0
DA:302,0
DA:303,0
DA:350,0
DA:351,0
DA:355,0
DA:368,0
DA:369,0
DA:571,0
DA:613,0
DA:622,0
DA:624,0
DA:626,0
DA:628,0
DA:613,0
DA:622,0
DA:624,0
DA:626,0
DA:628,0
DA:613,0
DA:622,0
DA:624,0
DA:626,0
DA:628,0
DA:632,0
DA:636,0
DA:632,0
DA:635,0
DA:636,0
DA:632,0
DA:635,0
DA:636,0
DA:632,0
DA:635,0
DA:636,0
DA:647,0
DA:652,0
DA:656,0
DA:652,0
DA:656,0
DA:652,0
DA:656,0
DA:652,0
DA:656,0
DA:652,0
DA:656,0
DA:652,0
DA:656,0
DA:751,0
DA:757,0
DA:762,0
DA:766,0
DA:792,0
DA:796,0
DA:800,0
DA:804,0
DA:993,0
DA:1005,0
DA:1009,0
DA:1013,0
DA:1017,0
DA:1041,0
DA:1261,0
DA:1263,0
DA:1265,0
DA:1279,0
DA:1312,0
DA:1314,0
DA:1315,0
DA:1317,0
DA:1341,0
DA:1345,0
DA:1346,0
DA:1353,0
DA:1918,0
DA:1922,0
DA:1924,0
DA:1926,0
DA:1929,0
DA:1918,0
DA:1922,0
DA:1924,0
DA:1929,0
DA:1918,0
DA:1922,0
DA:1924,0
DA:1926,0
DA:1929,0
DA:1918,0
DA:1922,0
DA:1924,0
DA:1929,0
DA:1918,0
DA:1922,0
DA:1924,0
DA:1926,0
DA:1929,0
DA:1918,0
DA:1922,0
DA:1924,0
DA:1929,0
DA:1918,0
DA:1922,0
DA:1924,0
DA:1929,0
DA:1918,0
DA:1922,0
DA:1924,0
DA:1926,0
DA:1929,0
DA:1918,0
DA:1922,0
DA:1924,0
DA:1929,0
DA:1918,0
DA:1922,0
DA:1924,0
DA:1929,0
DA:1918,0
DA:1922,0
DA:1924,0
DA:1929,0
DA:1918,0
DA:1922,0
DA:1924,0
DA:1926,0
DA:1929,0
DA:1935,0
DA:1939,0
DA:1940,0
DA:1944,0
DA:1935,0
DA:1939,0
DA:1940,0
DA:1944,0
DA:1935,0
DA:1939,0
DA:1940,0
DA:1944,0
DA:1935,0
DA:1939,0
DA:1940,0
DA:1944,0
DA:1951,0
DA:1955,0
DA:1956,0
DA:1960,0
DA:2096,0
DA:2103,0
DA:2107,0
DA:2110,0
DA:2112,0
DA:2113,0
DA:2117,0
DA:2118,0
DA:2119,0
DA:2096,0
DA:2103,0
DA:2107,0
DA:2110,0
DA:2112,0
DA:2113,0
DA:2117,0
DA:2118,0
DA:2119,0
DA:2096,0
DA:2103,0
DA:2107,0
DA:2110,0
DA:2112,0
DA:2113,0
DA:2117,0
DA:2118,0
DA:2119,0
DA:2096,0
DA:2103,0
DA:2107,0
DA:2110,0
DA:2112,0
DA:2113,0
DA:2117,0
DA:2118,0
DA:2119,0
DA:2198,0
DA:2206,0
DA:2209,0
DA:2210,0
DA:2212,0
DA:2214,0
DA:2218,0
DA:2219,0
DA:2220,0
DA:2222,0
DA:2223,0
DA:2225,0
DA:2228,0
DA:2230,0
DA:2234,0
DA:2235,0
DA:2236,0
DA:2238,0
DA:2239,0
DA:2241,0
DA:2244,0
DA:2248,0
DA:2198,0
DA:2206,0
DA:2209,0
DA:2210,0
DA:2212,0
DA:2214,0
DA:2218,0
DA:2219,0
DA:2220,0
DA:2222,0
DA:2223,0
DA:2225,0
DA:2228,0
DA:2230,0
DA:2234,0
DA:2235,0
DA:2236,0
DA:2238,0
DA:2239,0
DA:2241,0
DA:2244,0
DA:2248,0
DA:2198,0
DA:2206,0
DA:2209,0
DA:2210,0
DA:2212,0
DA:2214,0
DA:2218,0
DA:2219,0
DA:2220,0
DA:2222,0
DA:2223,0
DA:2225,0
DA:2228,0
DA:2230,0
DA:2234,0
DA:2235,0
DA:2236,0
DA:2238,0
DA:2239,0
DA:2241,0
DA:2244,0
DA:2248,0
DA:2198,0
DA:2206,0
DA:2209,0
DA:2210,0
DA:2212,0
DA:2214,0
DA:2218,0
DA:2219,0
DA:2220,0
DA:2222,0
DA:2223,0
DA:2225,0
DA:2228,0
DA:2230,0
DA:2234,0
DA:2235,0
DA:2236,0
DA:2238,0
DA:2239,0
DA:2241,0
DA:2244,0
DA:2248,0
DA:2365,0
DA:2368,0
DA:2369,0
DA:2372,0
DA:2373,0
DA:2374,0
DA:2375,0
DA:2365,0
DA:2368,0
DA:2369,0
DA:2372,0
DA:2373,0
DA:2374,0
DA:2375,0
DA:2365,0
DA:2368,0
DA:2369,0
DA:2372,0
DA:2373,0
DA:2374,0
DA:2375,0
DA:2365,0
DA:2368,0
DA:2369,0
DA:2372,0
DA:2373,0
DA:2374,0
DA:2375,0
DA:2463,0
DA:2466,0
DA:2470,0
DA:2472,0
DA:2473,0
DA:2475,0
DA:2476,0
DA:2463,0
DA:2466,0
DA:2470,0
DA:2472,0
DA:2473,0
DA:2475,0
DA:2476,0
DA:2463,0
DA:2466,0
DA:2470,0
DA:2472,0
DA:2473,0
DA:2475,0
DA:2476,0
DA:2463,0
DA:2466,0
DA:2470,0
DA:2472,0
DA:2473,0
DA:2475,0
DA:2476,0
DA:2568,0
DA:2571,0
DA:2573,0
DA:2574,0
LF:335
LH:0
end_of_record
SF:/home/runner/work/raccoon/raccoon/moose/framework/build/header_symlinks/NodalBCBase.h
FN:37,_ZNK11NodalBCBase13checkNodalVarEv
FNDA:0,_ZNK11NodalBCBase13checkNodalVarEv
FNF:1
FNH:0
DA:37,0
LF:1
LH:0
end_of_record
SF:/home/runner/micromamba/envs/moose/x86_64-conda-linux-gnu/include/c++/10.4.0/bits/char_traits.h
DA:357,0
DA:374,0
DA:389,0
DA:399,3744
LF:4
LH:1
end_of_record
SF:/home/runner/micromamba/envs/moose/x86_64-conda-linux-gnu/include/c++/10.4.0/bits/stl_algobase.h
DA:235,0
DA:236,0
DA:259,0
DA:260,0
DA:425,0
DA:426,0
LF:6
LH:0
end_of_record
SF:/home/runner/work/raccoon/raccoon/moose/framework/build/header_symlinks/BoundaryRestrictableRequired.h
LF:0
LH:0
end_of_record
SF:/home/runner/work/raccoon/raccoon/moose/framework/build/header_symlinks/ConsoleStream.h
FN:106,_ZNK13ConsoleStreamlsIA16_cEERKS_RKT_
FNDA:0,_ZNK13ConsoleStreamlsIA16_cEERKS_RKT_
FN:106,_ZNK13ConsoleStreamlsIA41_cEERKS_RKT_
FNDA:0,_ZNK13ConsoleStreamlsIA41_cEERKS_RKT_
FN:106,_ZNK13ConsoleStreamlsIdEERKS_RKT_
FNDA:0,_ZNK13ConsoleStreamlsIdEERKS_RKT_
FN:106,_ZNK13ConsoleStreamlsIFRSt8ios_baseS2_EEERKS_RKT_
FNDA:0,_ZNK13ConsoleStreamlsIFRSt8ios_baseS2_EEERKS_RKT_
FN:106,_ZNK13ConsoleStreamlsIA23_cEERKS_RKT_
FNDA:0,_ZNK13ConsoleStreamlsIA23_cEERKS_RKT_
FN:106,_ZNK13ConsoleStreamlsIPKcEERKS_RKT_
FNDA:0,_ZNK13ConsoleStreamlsIPKcEERKS_RKT_
FNF:6
FNH:0
DA:106,0
DA:110,0
DA:111,0
DA:106,0
DA:110,0
DA:111,0
DA:106,0
DA:110,0
DA:111,0
DA:106,0
DA:110,0
DA:111,0
DA:106,0
DA:110,0
DA:111,0
DA:106,0
DA:110,0
DA:111,0
LF:18
LH:0
end_of_record
SF:/home/runner/micromamba/envs/moose/libmesh/include/timpi/message_tag.h
LF:0
LH:0
end_of_record
SF:/home/runner/work/raccoon/raccoon/src/bcs/ModeISurfingDirichletBC.C
FN:10,_ZN23ModeISurfingDirichletBC11validParamsEv
FNDA:126,_ZN23ModeISurfingDirichletBC11validParamsEv
FN:30,_ZN23ModeISurfingDirichletBCC2ERK15InputParameters
FNDA:0,_ZN23ModeISurfingDirichletBCC2ERK15InputParameters
FN:42,_ZN23ModeISurfingDirichletBC17computeQpResidualEv
FNDA:0,_ZN23ModeISurfingDirichletBC17computeQpResidualEv
FNF:3
FNH:1
DA:10,126
DA:12,126
DA:13,126
DA:18,126
DA:19,126
DA:20,126
DA:21,126
DA:23,252
DA:24,252
DA:25,252
DA:26,252
DA:27,126
DA:30,0
DA:32,0
DA:33,0
DA:34,0
DA:35,0
DA:36,0
DA:37,0
DA:39,0
DA:42,0
DA:44,0
DA:45,0
DA:46,0
DA:48,0
DA:49,0
DA:50,0
DA:51,0
DA:52,0
DA:53,0
DA:54,0
DA:55,0
DA:56,0
DA:58,0
DA:59,0
DA:60,0
DA:61,0
DA:62,0
DA:63,0
LF:39
LH:12
end_of_record
SF:/home/runner/micromamba/envs/moose/x86_64-conda-linux-gnu/include/c++/10.4.0/bits/allocated_ptr.h
FN:70,_ZNSt15__allocated_ptrISaISt23_Sp_counted_ptr_inplaceI13RegistryEntryI23ModeISurfingDirichletBCESaIS3_ELN9__gnu_cxx12_Lock_policyE2EEEED2Ev
FNDA:40,_ZNSt15__allocated_ptrISaISt23_Sp_counted_ptr_inplaceI13RegistryEntryI23ModeISurfingDirichletBCESaIS3_ELN9__gnu_cxx12_Lock_policyE2EEEED2Ev
FN:70,_ZNSt15__allocated_ptrISaISt23_Sp_counted_ptr_inplaceI13RegistryEntryI27LoadingUnloadingDirichletBCESaIS3_ELN9__gnu_cxx12_Lock_policyE2EEEED2Ev
FNDA:40,_ZNSt15__allocated_ptrISaISt23_Sp_counted_ptr_inplaceI13RegistryEntryI27LoadingUnloadingDirichletBCESaIS3_ELN9__gnu_cxx12_Lock_policyE2EEEED2Ev
FN:70,_ZNSt15__allocated_ptrISaISt23_Sp_counted_ptr_inplaceINSt13__future_base13_State_baseV2ESaIS2_ELN9__gnu_cxx12_Lock_policyE2EEEED2Ev
FNDA:0,_ZNSt15__allocated_ptrISaISt23_Sp_counted_ptr_inplaceINSt13__future_base13_State_baseV2ESaIS2_ELN9__gnu_cxx12_Lock_policyE2EEEED2Ev
FN:70,_ZNSt15__allocated_ptrISaISt23_Sp_counted_ptr_inplaceISt5mutexSaIS1_ELN9__gnu_cxx12_Lock_policyE2EEEED2Ev
FNDA:0,_ZNSt15__allocated_ptrISaISt23_Sp_counted_ptr_inplaceISt5mutexSaIS1_ELN9__gnu_cxx12_Lock_policyE2EEEED2Ev
FNF:4
FNH:2
DA:52,0
DA:53,80
DA:70,40
DA:72,40
DA:74,40
DA:70,40
DA:72,40
DA:74,40
DA:70,0
DA:72,0
DA:74,0
DA:70,0
DA:72,0
DA:74,0
DA:80,80
LF:15
LH:8
end_of_record
SF:/home/runner/work/raccoon/raccoon/moose/framework/build/header_symlinks/MooseArray.h
DA:55,0
DA:278,0
LF:2
LH:0
end_of_record
SF:/home/runner/work/raccoon/raccoon/moose/framework/build/header_symlinks/SetupInterface.h
FN:61,_ZN14SetupInterface11customSetupERK13MooseEnumItem
FNDA:0,_ZN14SetupInterface11customSetupERK13MooseEnumItem
FNF:1
FNH:0
DA:61,0
LF:1
LH:0
end_of_record
SF:/home/runner/micromamba/envs/moose/x86_64-conda-linux-gnu/include/c++/10.4.0/bits/stl_map.h
FN:492,_ZNSt3mapINSt7__cxx1112basic_stringIcSt11char_traitsIcESaIcEEESt6vectorISt10shared_ptrI17RegistryEntryBaseESaIS9_EESt4lessIS5_ESaISt4pairIKS5_SB_EEEixERSF_
FNDA:0,_ZNSt3mapINSt7__cxx1112basic_stringIcSt11char_traitsIcESaIcEEESt6vectorISt10shared_ptrI17RegistryEntryBaseESaIS9_EESt4lessIS5_ESaISt4pairIKS5_SB_EEEixERSF_
FN:492,_ZNSt3mapINSt7__cxx1112basic_stringIcSt11char_traitsIcESaIcEEEN15InputParameters8MetadataESt4lessIS5_ESaISt4pairIKS5_S7_EEEixERSB_
FNDA:0,_ZNSt3mapINSt7__cxx1112basic_stringIcSt11char_traitsIcESaIcEEEN15InputParameters8MetadataESt4lessIS5_ESaISt4pairIKS5_S7_EEEixERSB_
FN:492,_ZNSt3mapINSt7__cxx1112basic_stringIcSt11char_traitsIcESaIcEEESt10unique_ptrIN7libMesh10Parameters5ValueESt14default_deleteIS9_EESt4lessIvESaISt4pairIKS5_SC_EEEixERSG_
FNDA:0,_ZNSt3mapINSt7__cxx1112basic_stringIcSt11char_traitsIcESaIcEEESt10unique_ptrIN7libMesh10Parameters5ValueESt14default_deleteIS9_EESt4lessIvESaISt4pairIKS5_SC_EEEixERSG_
FN:512,_ZNSt3mapINSt7__cxx1112basic_stringIcSt11char_traitsIcESaIcEEES5_St4lessIS5_ESaISt4pairIKS5_S5_EEEixEOS5_
FNDA:0,_ZNSt3mapINSt7__cxx1112basic_stringIcSt11char_traitsIcESaIcEEES5_St4lessIS5_ESaISt4pairIKS5_S5_EEEixEOS5_
FN:1258,_ZNSt3mapINSt7__cxx1112basic_stringIcSt11char_traitsIcESaIcEEES5_St4lessIS5_ESaISt4pairIKS5_S5_EEE11lower_boundERS9_
FNDA:0,_ZNSt3mapINSt7__cxx1112basic_stringIcSt11char_traitsIcESaIcEEES5_St4lessIS5_ESaISt4pairIKS5_S5_EEE11lower_boundERS9_
FN:1258,_ZNSt3mapINSt7__cxx1112basic_stringIcSt11char_traitsIcESaIcEEESt6vectorISt10shared_ptrI17RegistryEntryBaseESaIS9_EESt4lessIS5_ESaISt4pairIKS5_SB_EEE11lower_boundERSF_
FNDA:0,_ZNSt3mapINSt7__cxx1112basic_stringIcSt11char_traitsIcESaIcEEESt6vectorISt10shared_ptrI17RegistryEntryBaseESaIS9_EESt4lessIS5_ESaISt4pairIKS5_SB_EEE11lower_boundERSF_
FN:1258,_ZNSt3mapINSt7__cxx1112basic_stringIcSt11char_traitsIcESaIcEEEN15InputParameters8MetadataESt4lessIS5_ESaISt4pairIKS5_S7_EEE11lower_boundERSB_
FNDA:0,_ZNSt3mapINSt7__cxx1112basic_stringIcSt11char_traitsIcESaIcEEEN15InputParameters8MetadataESt4lessIS5_ESaISt4pairIKS5_S7_EEE11lower_boundERSB_
FN:1258,_ZNSt3mapINSt7__cxx1112basic_stringIcSt11char_traitsIcESaIcEEESt10unique_ptrIN7libMesh10Parameters5ValueESt14default_deleteIS9_EESt4lessIvESaISt4pairIKS5_SC_EEE11lower_boundERSG_
FNDA:0,_ZNSt3mapINSt7__cxx1112basic_stringIcSt11char_traitsIcESaIcEEESt10unique_ptrIN7libMesh10Parameters5ValueESt14default_deleteIS9_EESt4lessIvESaISt4pairIKS5_SC_EEE11lower_boundERSG_
FNF:8
FNH:0
DA:302,0
DA:492,0
DA:497,0
DA:499,0
DA:501,0
DA:502,0
DA:503,0
DA:507,0
DA:492,0
DA:497,0
DA:499,0
DA:501,0
DA:502,0
DA:503,0
DA:507,0
DA:492,0
DA:497,0
DA:499,0
DA:501,0
DA:502,0
DA:503,0
DA:507,0
DA:512,0
DA:517,0
DA:519,0
DA:520,0
DA:522,0
DA:523,0
DA:1134,0
DA:1195,0
DA:1201,0
DA:1258,0
DA:1259,0
DA:1258,0
DA:1259,0
DA:1258,0
DA:1259,0
DA:1258,0
DA:1259,0
LF:39
LH:0
end_of_record
SF:/home/runner/micromamba/envs/moose/x86_64-conda-linux-gnu/include/c++/10.4.0/bits/locale_facets.h
FN:872,_ZNKSt5ctypeIcE5widenEc
FNDA:0,_ZNKSt5ctypeIcE5widenEc
FN:1084,_ZNKSt5ctypeIcE8do_widenEc
FNDA:0,_ZNKSt5ctypeIcE8do_widenEc
FNF:2
FNH:0
DA:872,0
DA:874,0
DA:875,0
DA:876,0
DA:877,0
DA:1084,0
DA:1085,0
LF:7
LH:0
end_of_record
TN:
SF:/home/runner/micromamba/envs/moose/x86_64-conda-linux-gnu/include/c++/10.4.0/bits/alloc_traits.h
FN:459,_ZNSt16allocator_traitsISaIdEE8allocateERS0_m
FNDA:0,_ZNSt16allocator_traitsISaIdEE8allocateERS0_m
FNF:1
FNH:0
DA:459,0
DA:460,0
DA:492,0
DA:512,0
DA:516,126
LF:5
LH:1
end_of_record
SF:/home/runner/micromamba/envs/moose/x86_64-conda-linux-gnu/include/c++/10.4.0/bits/stl_construct.h
FN:149,_ZNSt12_Destroy_auxILb0EE9__destroyIPSt5tupleIJNSt7__cxx1112basic_stringIcSt11char_traitsIcESaIcEEEN5Moose23RelationshipManagerTypeESt8functionIFvRK15InputParametersRSC_EEEEEEvT_SK_
FNDA:0,_ZNSt12_Destroy_auxILb0EE9__destroyIPSt5tupleIJNSt7__cxx1112basic_stringIcSt11char_traitsIcESaIcEEEN5Moose23RelationshipManagerTypeESt8functionIFvRK15InputParametersRSC_EEEEEEvT_SK_
FNF:1
FNH:0
DA:149,0
DA:151,0
DA:153,0
DA:185,0
LF:4
LH:0
end_of_record
SF:/home/runner/work/raccoon/raccoon/moose/framework/build/header_symlinks/MooseBase.h
FN:57,_ZNK9MooseBase4nameB5cxx11Ev
FNDA:0,_ZNK9MooseBase4nameB5cxx11Ev
FNF:1
FNH:0
DA:57,0
LF:1
LH:0
end_of_record
SF:/home/runner/work/raccoon/raccoon/src/base/raccoonApp.C
FN:13,_ZN10raccoonApp11validParamsEv
FNDA:63,_ZN10raccoonApp11validParamsEv
FN:22,_ZN10raccoonAppC2E15InputParameters
FNDA:0,_ZN10raccoonAppC2E15InputParameters
FN:27,_ZN10raccoonAppD0Ev
FNDA:0,_ZN10raccoonAppD0Ev
FN:27,_ZN10raccoonAppD2Ev
FNDA:0,_ZN10raccoonAppD2Ev
FN:30,_ZN10raccoonApp11registerAllER7FactoryR13ActionFactoryR6Syntax
FNDA:63,_ZN10raccoonApp11registerAllER7FactoryR13ActionFactoryR6Syntax
FN:38,_ZN10raccoonApp12registerAppsEv
FNDA:40,_ZN10raccoonApp12registerAppsEv
FN:47,raccoonApp__registerAll
FNDA:0,raccoonApp__registerAll
FN:52,raccoonApp__registerApps
FNDA:0,raccoonApp__registerApps
FNF:8
FNH:3
DA:13,63
DA:15,63
DA:16,63
DA:17,63
DA:18,63
DA:19,63
DA:22,0
DA:24,0
DA:25,0
DA:27,0
DA:27,0
DA:30,63
DA:32,63
DA:33,189
DA:34,189
DA:35,63
DA:38,40
DA:40,40
DA:41,40
DA:47,0
DA:49,0
DA:50,0
DA:52,0
DA:54,0
DA:55,0
LF:25
LH:14
end_of_record
SF:/home/runner/micromamba/envs/moose/x86_64-conda-linux-gnu/include/c++/10.4.0/bits/std_function.h
FN:242,_ZNSt14_Function_baseD2Ev
FNDA:0,_ZNSt14_Function_baseD2Ev
FNF:1
FNH:0
DA:242,0
DA:243,0
DA:244,0
DA:245,0
DA:246,0
DA:303,0
LF:6
LH:0
end_of_record
SF:/home/runner/micromamba/envs/moose/x86_64-conda-linux-gnu/include/c++/10.4.0/typeinfo
FN:120,_ZNKSt9type_infoeqERKS_
FNDA:0,_ZNKSt9type_infoeqERKS_
FNF:1
FNH:0
DA:100,0
DA:120,0
DA:122,0
DA:123,0
DA:124,0
LF:5
LH:0
end_of_record
SF:/home/runner/micromamba/envs/moose/x86_64-conda-linux-gnu/include/c++/10.4.0/bits/stl_pair.h
DA:211,0
LF:1
LH:0
end_of_record
SF:/home/runner/micromamba/envs/moose/x86_64-conda-linux-gnu/include/c++/10.4.0/bits/stl_iterator_base_funcs.h
DA:104,521
LF:1
LH:1
end_of_record
SF:/home/runner/micromamba/envs/moose/x86_64-conda-linux-gnu/include/c++/10.4.0/ext/new_allocator.h
FN:154,_ZN9__gnu_cxx13new_allocatorI10raccoonAppE9constructIS1_JRK15InputParametersEEEvPT_DpOT0_
FNDA:0,_ZN9__gnu_cxx13new_allocatorI10raccoonAppE9constructIS1_JRK15InputParametersEEEvPT_DpOT0_
FN:154,_ZN9__gnu_cxx13new_allocatorISt13_Rb_tree_nodeISt4pairIKNSt7__cxx1112basic_stringIcSt11char_traitsIcESaIcEEEN15InputParameters8MetadataEEEE9constructISC_JRKSt21piecewise_construct_tSt5tupleIJRS9_EESJ_IJEEEEEvPT_DpOT0_
FNDA:0,_ZN9__gnu_cxx13new_allocatorISt13_Rb_tree_nodeISt4pairIKNSt7__cxx1112basic_stringIcSt11char_traitsIcESaIcEEEN15InputParameters8MetadataEEEE9constructISC_JRKSt21piecewise_construct_tSt5tupleIJRS9_EESJ_IJEEEEEvPT_DpOT0_
FNF:2
FNH:0
DA:111,0
DA:112,0
DA:121,166
DA:139,126
DA:154,0
DA:156,0
DA:154,0
DA:156,0
DA:156,126
DA:162,0
LF:10
LH:3
end_of_record
SF:/home/runner/work/raccoon/raccoon/moose/framework/build/header_symlinks/MooseEnumItem.h
FN:24,_ZN13MooseEnumItemD2Ev
FNDA:40,_ZN13MooseEnumItemD2Ev
FNF:1
FNH:1
DA:24,40
LF:1
LH:1
end_of_record
SF:/home/runner/work/raccoon/raccoon/moose/framework/build/header_symlinks/AppFactory.h
FN:43,_ZN19AppFactoryBuildInfoI10raccoonAppE5buildERK15InputParameters
FNDA:0,_ZN19AppFactoryBuildInfoI10raccoonAppE5buildERK15InputParameters
FN:47,_ZN19AppFactoryBuildInfoI10raccoonAppE15buildParametersEv
FNDA:0,_ZN19AppFactoryBuildInfoI10raccoonAppE15buildParametersEv
FN:153,_ZN10AppFactory3regI10raccoonAppEEvRKNSt7__cxx1112basic_stringIcSt11char_traitsIcESaIcEEE
FNDA:40,_ZN10AppFactory3regI10raccoonAppEEvRKNSt7__cxx1112basic_stringIcSt11char_traitsIcESaIcEEE
FNF:3
FNH:1
DA:41,40
DA:43,0
DA:45,0
DA:47,0
DA:121,40
DA:153,40
DA:155,40
DA:158,40
LF:8
LH:5
end_of_record
SF:/home/runner/micromamba/envs/moose/x86_64-conda-linux-gnu/include/c++/10.4.0/string_view
FN:288,_ZNKSt17basic_string_viewIcSt11char_traitsIcEE7compareES2_
FNDA:0,_ZNKSt17basic_string_viewIcSt11char_traitsIcEE7compareES2_
FNF:1
FNH:0
DA:288,0
DA:290,0
DA:291,0
DA:292,0
DA:294,0
DA:463,0
DA:464,0
DA:466,0
DA:468,0
DA:552,0
DA:558,0
LF:11
LH:0
end_of_record
SF:/home/runner/work/raccoon/raccoon/moose/modules/module_loader/build/header_symlinks/ModulesApp.h
FN:115,_ZN10ModulesApp18registerAllObjectsI10raccoonAppEEvR7FactoryR13ActionFactoryR6Syntax
FNDA:63,_ZN10ModulesApp18registerAllObjectsI10raccoonAppEEvR7FactoryR13ActionFactoryR6Syntax
FNF:1
FNH:1
DA:115,63
DA:146,63
DA:170,63
DA:178,63
DA:198,63
DA:222,63
LF:6
LH:6
end_of_record
SF:/home/runner/micromamba/envs/moose/x86_64-conda-linux-gnu/include/c++/10.4.0/bits/shared_ptr.h
FN:407,_ZNSt10shared_ptrI10raccoonAppEC2ISaIS0_EJRK15InputParametersEEESt20_Sp_alloc_shared_tagIT_EDpOT0_
FNDA:0,_ZNSt10shared_ptrI10raccoonAppEC2ISaIS0_EJRK15InputParametersEEESt20_Sp_alloc_shared_tagIT_EDpOT0_
FNF:1
FNH:0
DA:121,0
DA:407,0
DA:408,0
DA:409,0
DA:862,0
DA:877,0
LF:6
LH:0
end_of_record
SF:/home/runner/micromamba/envs/moose/x86_64-conda-linux-gnu/include/c++/10.4.0/tuple
FN:1702,_ZNSt4pairIKNSt7__cxx1112basic_stringIcSt11char_traitsIcESaIcEEEN15InputParameters8MetadataEEC2IJRS6_EJLm0EEJEJEEERSt5tupleIJDpT_EERSC_IJDpT1_EESt12_Index_tupleIJXspT0_EEESL_IJXspT2_EEE
FNDA:0,_ZNSt4pairIKNSt7__cxx1112basic_stringIcSt11char_traitsIcESaIcEEEN15InputParameters8MetadataEEC2IJRS6_EJLm0EEJEJEEERSt5tupleIJDpT_EERSC_IJDpT1_EESt12_Index_tupleIJXspT0_EEESL_IJXspT2_EEE
FNF:1
FNH:0
DA:130,0
DA:132,40
DA:133,40
DA:135,40
DA:136,40
DA:143,0
DA:176,40
DA:532,0
DA:1690,0
DA:1695,0
DA:1702,40
DA:1706,40
DA:1707,0
LF:13
LH:7
end_of_record
SF:/home/runner/micromamba/envs/moose/x86_64-conda-linux-gnu/include/c++/10.4.0/bits/stl_multimap.h
DA:297,0
LF:1
LH:0
end_of_record
SF:/home/runner/micromamba/envs/moose/x86_64-conda-linux-gnu/include/c++/10.4.0/ostream
DA:175,0
LF:1
LH:0
end_of_record
SF:/home/runner/micromamba/envs/moose/x86_64-conda-linux-gnu/include/c++/10.4.0/bits/shared_ptr_base.h
FN:555,_ZNSt23_Sp_counted_ptr_inplaceI10raccoonAppSaIS0_ELN9__gnu_cxx12_Lock_policyE2EED0Ev
FNDA:0,_ZNSt23_Sp_counted_ptr_inplaceI10raccoonAppSaIS0_ELN9__gnu_cxx12_Lock_policyE2EED0Ev
FN:555,_ZNSt23_Sp_counted_ptr_inplaceI10raccoonAppSaIS0_ELN9__gnu_cxx12_Lock_policyE2EED2Ev
FNDA:0,_ZNSt23_Sp_counted_ptr_inplaceI10raccoonAppSaIS0_ELN9__gnu_cxx12_Lock_policyE2EED2Ev
FN:558,_ZNSt23_Sp_counted_ptr_inplaceI10raccoonAppSaIS0_ELN9__gnu_cxx12_Lock_policyE2EE10_M_disposeEv
FNDA:0,_ZNSt23_Sp_counted_ptr_inplaceI10raccoonAppSaIS0_ELN9__gnu_cxx12_Lock_policyE2EE10_M_disposeEv
FN:565,_ZNSt23_Sp_counted_ptr_inplaceI10raccoonAppSaIS0_ELN9__gnu_cxx12_Lock_policyE2EE10_M_destroyEv
FNDA:0,_ZNSt23_Sp_counted_ptr_inplaceI10raccoonAppSaIS0_ELN9__gnu_cxx12_Lock_policyE2EE10_M_destroyEv
FN:578,_ZNSt23_Sp_counted_ptr_inplaceI10raccoonAppSaIS0_ELN9__gnu_cxx12_Lock_policyE2EE14_M_get_deleterERKSt9type_info
FNDA:0,_ZNSt23_Sp_counted_ptr_inplaceI10raccoonAppSaIS0_ELN9__gnu_cxx12_Lock_policyE2EE14_M_get_deleterERKSt9type_info
FN:675,_ZNSt14__shared_countILN9__gnu_cxx12_Lock_policyE2EEC2I10raccoonAppSaIS4_EJRK15InputParametersEEERPT_St20_Sp_alloc_shared_tagIT0_EDpOT1_
FNDA:0,_ZNSt14__shared_countILN9__gnu_cxx12_Lock_policyE2EEC2I10raccoonAppSaIS4_EJRK15InputParametersEEERPT_St20_Sp_alloc_shared_tagIT0_EDpOT1_
FNF:6
FNH:0
DA:120,0
DA:121,0
DA:534,0
DA:546,0
DA:547,0
DA:553,0
DA:555,0
DA:555,0
DA:555,0
DA:558,0
DA:561,0
DA:565,0
DA:568,0
DA:570,0
DA:578,0
DA:586,0
DA:588,0
DA:593,0
DA:675,0
DA:680,0
DA:682,0
DA:685,0
DA:686,0
DA:687,0
DA:764,0
DA:766,0
DA:1204,0
DA:1375,0
DA:1376,0
LF:29
LH:0
end_of_record
SF:/home/runner/work/raccoon/raccoon/moose/framework/build/header_symlinks/MooseTypes.h
LF:0
LH:0
end_of_record
SF:/home/runner/micromamba/envs/moose/x86_64-conda-linux-gnu/include/c++/10.4.0/bits/hashtable_policy.h
FN:2052,_ZNSt8__detail16_Hashtable_allocISaINS_10_Hash_nodeISt4pairIKNSt7__cxx1112basic_stringIcSt11char_traitsIcESaIcEEES8_ELb1EEEEE18_M_deallocate_nodeEPSB_
FNDA:0,_ZNSt8__detail16_Hashtable_allocISaINS_10_Hash_nodeISt4pairIKNSt7__cxx1112basic_stringIcSt11char_traitsIcESaIcEEES8_ELb1EEEEE18_M_deallocate_nodeEPSB_
FNF:1
FNH:0
DA:270,0
DA:2052,0
DA:2056,0
DA:2064,0
DA:2072,0
DA:2076,0
DA:2101,0
LF:7
LH:0
end_of_record
SF:/home/runner/micromamba/envs/moose/x86_64-conda-linux-gnu/include/c++/10.4.0/streambuf
LF:0
LH:0
end_of_record
SF:/home/runner/work/raccoon/raccoon/build/header_symlinks/raccoonApp.h
LF:0
LH:0
end_of_record
SF:/home/runner/micromamba/envs/moose/x86_64-conda-linux-gnu/include/c++/10.4.0/bits/basic_string.h
FN:533,_ZNSt7__cxx1112basic_stringIcSt11char_traitsIcESaIcEEC2IS3_EEPKcRKS3_
FNDA:355,_ZNSt7__cxx1112basic_stringIcSt11char_traitsIcESaIcEEC2IS3_EEPKcRKS3_
FN:1483,_ZNSt7__cxx1112basic_stringIcSt11char_traitsIcESaIcEE6assignIPcvEERS4_T_S8_
FNDA:0,_ZNSt7__cxx1112basic_stringIcSt11char_traitsIcESaIcEE6assignIPcvEERS4_T_S8_
FNF:2
FNH:1
DA:164,355
DA:165,355
DA:187,189
DA:191,521
DA:195,1042
DA:201,355
DA:219,189
DA:225,521
DA:401,166
DA:406,355
DA:533,355
DA:536,355
DA:539,355
DA:540,355
DA:671,521
DA:827,0
DA:915,0
DA:1483,0
DA:1484,0
DA:6292,0
DA:6485,0
LF:21
LH:15
end_of_record
SF:/home/runner/work/raccoon/raccoon/moose/framework/build/header_symlinks/MooseError.h
FN:173,_ZN5moose8internal14mooseStreamAllINSt7__cxx1112basic_stringIcSt11char_traitsIcESaIcEEEJRA2_KcEEEvRNS2_19basic_ostringstreamIcS5_S6_EEOT_DpOT0_
FNDA:0,_ZN5moose8internal14mooseStreamAllINSt7__cxx1112basic_stringIcSt11char_traitsIcESaIcEEEJRA2_KcEEEvRNS2_19basic_ostringstreamIcS5_S6_EEOT_DpOT0_
FN:173,_ZN5moose8internal14mooseStreamAllINSt7__cxx1112basic_stringIcSt11char_traitsIcESaIcEEEJRA45_KcS7_RA2_S8_EEEvRNS2_19basic_ostringstreamIcS5_S6_EEOT_DpOT0_
FNDA:0,_ZN5moose8internal14mooseStreamAllINSt7__cxx1112basic_stringIcSt11char_traitsIcESaIcEEEJRA45_KcS7_RA2_S8_EEEvRNS2_19basic_ostringstreamIcS5_S6_EEOT_DpOT0_
FN:173,_ZN5moose8internal14mooseStreamAllIRKNSt7__cxx1112basic_stringIcSt11char_traitsIcESaIcEEEJRA14_KcS7_RA45_SA_S7_RA2_SA_EEEvRNS2_19basic_ostringstreamIcS5_S6_EEOT_DpOT0_
FNDA:0,_ZN5moose8internal14mooseStreamAllIRKNSt7__cxx1112basic_stringIcSt11char_traitsIcESaIcEEEJRA14_KcS7_RA45_SA_S7_RA2_SA_EEEvRNS2_19basic_ostringstreamIcS5_S6_EEOT_DpOT0_
FN:299,_Z10mooseErrorIJRA30_KcRKNSt7__cxx1112basic_stringIcSt11char_traitsIcESaIcEEERA14_S0_S8_RA45_S0_S8_RA2_S0_EEvDpOT_
FNDA:0,_Z10mooseErrorIJRA30_KcRKNSt7__cxx1112basic_stringIcSt11char_traitsIcESaIcEEERA14_S0_S8_RA45_S0_S8_RA2_S0_EEvDpOT_
FNF:4
FNH:0
DA:173,0
DA:175,0
DA:176,0
DA:177,0
DA:173,0
DA:175,0
DA:176,0
DA:177,0
DA:173,0
DA:175,0
DA:176,0
DA:177,0
DA:175,0
DA:176,0
DA:177,0
DA:299,0
DA:301,0
DA:303,0
LF:18
LH:0
end_of_record
SF:/home/runner/micromamba/envs/moose/x86_64-conda-linux-gnu/include/c++/10.4.0/bits/unordered_map.h
DA:102,0
LF:1
LH:0
end_of_record
SF:/home/runner/work/raccoon/raccoon/moose/framework/contrib/hit/include/hit/parse.h
LF:0
LH:0
end_of_record
SF:/home/runner/micromamba/envs/moose/x86_64-conda-linux-gnu/include/c++/10.4.0/sstream
DA:678,0
LF:1
LH:0
end_of_record
SF:/home/runner/micromamba/envs/moose/x86_64-conda-linux-gnu/include/c++/10.4.0/optional
LF:0
LH:0
end_of_record
SF:/home/runner/micromamba/envs/moose/x86_64-conda-linux-gnu/include/c++/10.4.0/ext/aligned_buffer.h
DA:65,252
DA:69,0
DA:104,0
LF:3
LH:1
end_of_record
SF:/home/runner/micromamba/envs/moose/x86_64-conda-linux-gnu/include/c++/10.4.0/utility
DA:189,0
LF:1
LH:0
end_of_record
SF:/home/runner/micromamba/envs/moose/x86_64-conda-linux-gnu/include/c++/10.4.0/bits/hashtable.h
FN:425,_ZNSt10_HashtableINSt7__cxx1112basic_stringIcSt11char_traitsIcESaIcEEESt4pairIKS5_S5_ESaIS8_ENSt8__detail10_Select1stESt8equal_toIS5_ESt4hashIS5_ENSA_18_Mod_range_hashingENSA_20_Default_ranged_hashENSA_20_Prime_rehash_policyENSA_17_Hashtable_traitsILb1ELb0ELb1EEEE21_M_deallocate_bucketsEv
FNDA:0,_ZNSt10_HashtableINSt7__cxx1112basic_stringIcSt11char_traitsIcESaIcEEESt4pairIKS5_S5_ESaIS8_ENSt8__detail10_Select1stESt8equal_toIS5_ESt4hashIS5_ENSA_18_Mod_range_hashingENSA_20_Default_ranged_hashENSA_20_Prime_rehash_policyENSA_17_Hashtable_traitsILb1ELb0ELb1EEEE21_M_deallocate_bucketsEv
FN:2081,_ZNSt10_HashtableINSt7__cxx1112basic_stringIcSt11char_traitsIcESaIcEEESt4pairIKS5_S5_ESaIS8_ENSt8__detail10_Select1stESt8equal_toIS5_ESt4hashIS5_ENSA_18_Mod_range_hashingENSA_20_Default_ranged_hashENSA_20_Prime_rehash_policyENSA_17_Hashtable_traitsILb1ELb0ELb1EEEE5clearEv
FNDA:0,_ZNSt10_HashtableINSt7__cxx1112basic_stringIcSt11char_traitsIcESaIcEEESt4pairIKS5_S5_ESaIS8_ENSt8__detail10_Select1stESt8equal_toIS5_ESt4hashIS5_ENSA_18_Mod_range_hashingENSA_20_Default_ranged_hashENSA_20_Prime_rehash_policyENSA_17_Hashtable_traitsILb1ELb0ELb1EEEE5clearEv
FNF:2
FNH:0
DA:394,0
DA:418,0
DA:425,0
DA:426,0
DA:435,0
DA:1442,0
DA:1443,0
DA:2081,0
DA:2086,0
DA:2087,0
DA:2088,0
DA:2089,0
LF:12
LH:0
end_of_record
SF:/home/runner/micromamba/envs/moose/x86_64-conda-linux-gnu/include/c++/10.4.0/initializer_list
DA:71,126
DA:79,126
LF:2
LH:2
end_of_record
SF:/home/runner/micromamba/envs/moose/x86_64-conda-linux-gnu/include/c++/10.4.0/bits/stl_function.h
FN:600,_ZNSt4lessIvE6_S_cmpIRKNSt7__cxx1112basic_stringIcSt11char_traitsIcESaIcEEERKSt17basic_string_viewIcS5_EEEDcOT_OT0_St17integral_constantIbLb0EE
FNDA:0,_ZNSt4lessIvE6_S_cmpIRKNSt7__cxx1112basic_stringIcSt11char_traitsIcESaIcEEERKSt17basic_string_viewIcS5_EEEDcOT_OT0_St17integral_constantIbLb0EE
FN:600,_ZNSt4lessIvE6_S_cmpIRKSt17basic_string_viewIcSt11char_traitsIcEERKNSt7__cxx1112basic_stringIcS4_SaIcEEEEEDcOT_OT0_St17integral_constantIbLb0EE
FNDA:0,_ZNSt4lessIvE6_S_cmpIRKSt17basic_string_viewIcSt11char_traitsIcEERKNSt7__cxx1112basic_stringIcS4_SaIcEEEEEDcOT_OT0_St17integral_constantIbLb0EE
FNF:2
FNH:0
DA:586,0
DA:600,0
DA:601,0
DA:600,0
DA:601,0
DA:1156,40
LF:6
LH:1
end_of_record
SF:/home/runner/micromamba/envs/moose/x86_64-conda-linux-gnu/include/c++/10.4.0/bits/unique_ptr.h
FN:165,_ZNSt15__uniq_ptr_implIN7libMesh10Parameters5ValueESt14default_deleteIS2_EEaSEOS5_
FNDA:0,_ZNSt15__uniq_ptr_implIN7libMesh10Parameters5ValueESt14default_deleteIS2_EEaSEOS5_
FN:355,_ZNSt10unique_ptrI23AppFactoryBuildInfoBaseSt14default_deleteIS0_EED2Ev
FNDA:0,_ZNSt10unique_ptrI23AppFactoryBuildInfoBaseSt14default_deleteIS0_EED2Ev
FN:355,_ZNSt10unique_ptrIN7libMesh10Parameters9ParameterIbEESt14default_deleteIS3_EED2Ev
FNDA:0,_ZNSt10unique_ptrIN7libMesh10Parameters9ParameterIbEESt14default_deleteIS3_EED2Ev
FN:355,_ZNSt10unique_ptrI19AppFactoryBuildInfoI10raccoonAppESt14default_deleteIS2_EED2Ev
FNDA:40,_ZNSt10unique_ptrI19AppFactoryBuildInfoI10raccoonAppESt14default_deleteIS2_EED2Ev
FN:355,_ZNSt10unique_ptrIN7libMesh10Parameters5ValueESt14default_deleteIS2_EED2Ev
FNDA:0,_ZNSt10unique_ptrIN7libMesh10Parameters5ValueESt14default_deleteIS2_EED2Ev
FN:386,_ZNSt10unique_ptrIN7libMesh10Parameters5ValueESt14default_deleteIS2_EEaSINS1_9ParameterIbEES3_IS8_EEENSt9enable_ifIXsrSt6__and_IJSB_IJSt14is_convertibleINS_IT_T0_E7pointerEPS2_ESt6__not_ISt8is_arrayISD_EEEESt13is_assignableIRS4_OSE_EEE5valueERS5_E4typeEOSF_
FNDA:0,_ZNSt10unique_ptrIN7libMesh10Parameters5ValueESt14default_deleteIS2_EEaSINS1_9ParameterIbEES3_IS8_EEENSt9enable_ifIXsrSt6__and_IJSB_IJSt14is_convertibleINS_IT_T0_E7pointerEPS2_ESt6__not_ISt8is_arrayISD_EEEESt13is_assignableIRS4_OSE_EEE5valueERS5_E4typeEOSF_
FN:386,_ZNSt10unique_ptrI23AppFactoryBuildInfoBaseSt14default_deleteIS0_EEaSI19AppFactoryBuildInfoI10raccoonAppES1_IS7_EEENSt9enable_ifIXsrSt6__and_IJSA_IJSt14is_convertibleINS_IT_T0_E7pointerEPS0_ESt6__not_ISt8is_arrayISC_EEEESt13is_assignableIRS2_OSD_EEE5valueERS3_E4typeEOSE_
FNDA:40,_ZNSt10unique_ptrI23AppFactoryBuildInfoBaseSt14default_deleteIS0_EEaSI19AppFactoryBuildInfoI10raccoonAppES1_IS7_EEENSt9enable_ifIXsrSt6__and_IJSA_IJSt14is_convertibleINS_IT_T0_E7pointerEPS0_ESt6__not_ISt8is_arrayISC_EEEESt13is_assignableIRS2_OSD_EEE5valueERS3_E4typeEOSE_
FN:961,_ZSt11make_uniqueIN7libMesh10Parameters9ParameterIbEEJEENSt9_MakeUniqIT_E15__single_objectEDpOT0_
FNDA:0,_ZSt11make_uniqueIN7libMesh10Parameters9ParameterIbEEJEENSt9_MakeUniqIT_E15__single_objectEDpOT0_
FN:961,_ZSt11make_uniqueI19AppFactoryBuildInfoI10raccoonAppEJEENSt9_MakeUniqIT_E15__single_objectEDpOT0_
FNDA:40,_ZSt11make_uniqueI19AppFactoryBuildInfoI10raccoonAppEJEENSt9_MakeUniqIT_E15__single_objectEDpOT0_
FNF:9
FNH:3
DA:85,0
DA:86,0
DA:155,40
DA:165,0
DA:169,0
DA:173,0
DA:179,40
DA:180,40
DA:181,40
DA:187,40
DA:188,0
DA:212,0
DA:355,0
DA:360,0
DA:363,0
DA:355,0
DA:360,0
DA:363,0
DA:355,40
DA:360,40
DA:363,40
DA:355,0
DA:360,0
DA:363,0
DA:386,0
DA:390,0
DA:386,40
DA:390,40
DA:961,0
DA:962,0
DA:961,40
DA:962,40
LF:32
LH:12
end_of_record
SF:/home/runner/micromamba/envs/moose/x86_64-conda-linux-gnu/include/c++/10.4.0/bits/stl_vector.h
FN:333,_ZNSt12_Vector_baseISt5tupleIJNSt7__cxx1112basic_stringIcSt11char_traitsIcESaIcEEEN5Moose23RelationshipManagerTypeESt8functionIFvRK15InputParametersRSA_EEEESaISG_EED2Ev
FNDA:0,_ZNSt12_Vector_baseISt5tupleIJNSt7__cxx1112basic_stringIcSt11char_traitsIcESaIcEEEN5Moose23RelationshipManagerTypeESt8functionIFvRK15InputParametersRSA_EEEESaISG_EED2Ev
FN:333,_ZNSt12_Vector_baseIdSaIdEED2Ev
FNDA:0,_ZNSt12_Vector_baseIdSaIdEED2Ev
FN:333,_ZNSt12_Vector_baseINSt7__cxx1112basic_stringIcSt11char_traitsIcESaIcEEESaIS5_EED2Ev
FNDA:0,_ZNSt12_Vector_baseINSt7__cxx1112basic_stringIcSt11char_traitsIcESaIcEEESaIS5_EED2Ev
FN:625,_ZNSt6vectorIdSaIdEEC2ESt16initializer_listIdERKS0_
FNDA:0,_ZNSt6vectorIdSaIdEEC2ESt16initializer_listIdERKS0_
FN:678,_ZNSt6vectorISt5tupleIJNSt7__cxx1112basic_stringIcSt11char_traitsIcESaIcEEEN5Moose23RelationshipManagerTypeESt8functionIFvRK15InputParametersRSA_EEEESaISG_EED2Ev
FNDA:0,_ZNSt6vectorISt5tupleIJNSt7__cxx1112basic_stringIcSt11char_traitsIcESaIcEEEN5Moose23RelationshipManagerTypeESt8functionIFvRK15InputParametersRSA_EEEESaISG_EED2Ev
FN:678,_ZNSt6vectorINSt7__cxx1112basic_stringIcSt11char_traitsIcESaIcEEESaIS5_EED2Ev
FNDA:0,_ZNSt6vectorINSt7__cxx1112basic_stringIcSt11char_traitsIcESaIcEEESaIS5_EED2Ev
FN:1577,_ZNSt6vectorIdSaIdEE19_M_range_initializeIPKdEEvT_S5_St20forward_iterator_tag
FNDA:0,_ZNSt6vectorIdSaIdEE19_M_range_initializeIPKdEEvT_S5_St20forward_iterator_tag
FNF:7
FNH:0
DA:97,0
DA:98,0
DA:277,0
DA:333,0
DA:336,0
DA:337,0
DA:333,0
DA:336,0
DA:337,0
DA:333,0
DA:336,0
DA:337,0
DA:346,0
DA:353,0
DA:625,0
DA:627,0
DA:629,0
DA:631,0
DA:678,0
DA:680,0
DA:683,0
DA:678,0
DA:680,0
DA:683,0
DA:1577,0
DA:1580,0
DA:1582,0
DA:1583,0
DA:1584,0
DA:1588,0
DA:1769,0
DA:1770,0
LF:32
LH:0
end_of_record
SF:/home/runner/micromamba/envs/moose/x86_64-conda-linux-gnu/include/c++/10.4.0/bits/basic_string.tcc
FN:206,_ZNSt7__cxx1112basic_stringIcSt11char_traitsIcESaIcEE12_M_constructIPcEEvT_S7_St20forward_iterator_tag
FNDA:166,_ZNSt7__cxx1112basic_stringIcSt11char_traitsIcESaIcEE12_M_constructIPcEEvT_S7_St20forward_iterator_tag
FN:206,_ZNSt7__cxx1112basic_stringIcSt11char_traitsIcESaIcEE12_M_constructIPKcEEvT_S8_St20forward_iterator_tag
FNDA:355,_ZNSt7__cxx1112basic_stringIcSt11char_traitsIcESaIcEE12_M_constructIPKcEEvT_S8_St20forward_iterator_tag
FNF:2
FNH:2
DA:206,166
DA:211,166
DA:212,0
DA:215,166
DA:217,166
DA:219,0
DA:220,0
DA:232,166
DA:233,166
DA:206,355
DA:211,355
DA:212,0
DA:215,355
DA:217,355
DA:219,189
DA:220,189
DA:232,355
DA:233,355
LF:18
LH:14
end_of_record
SF:/home/runner/micromamba/envs/moose/x86_64-conda-linux-gnu/include/c++/10.4.0/iostream
LF:0
LH:0
end_of_record
SF:/home/runner/work/raccoon/raccoon/moose/framework/build/header_symlinks/MooseApp.h
FN:107,_ZNK8MooseApp16getPrintableNameB5cxx11Ev
FNDA:0,_ZNK8MooseApp16getPrintableNameB5cxx11Ev
FN:109,_ZNK8MooseApp13appBinaryNameB5cxx11Ev
FNDA:0,_ZNK8MooseApp13appBinaryNameB5cxx11Ev
FN:725,_ZN8MooseApp9preBackupEv
FNDA:0,_ZN8MooseApp9preBackupEv
FN:759,_ZN8MooseApp11postRestoreEb
FNDA:0,_ZN8MooseApp11postRestoreEb
FN:1033,_ZNK8MooseApp34errorOnJacobianNonzeroReallocationEv
FNDA:0,_ZNK8MooseApp34errorOnJacobianNonzeroReallocationEv
FNF:5
FNH:0
DA:107,0
DA:109,0
DA:111,0
DA:112,0
DA:113,0
DA:114,0
DA:115,0
DA:725,0
DA:759,0
DA:1033,0
LF:10
LH:0
end_of_record
SF:/home/runner/micromamba/envs/moose/libmesh/include/libmesh/reference_counter.h
DA:152,0
LF:1
LH:0
end_of_record
SF:/home/runner/micromamba/envs/moose/libmesh/include/libmesh/parameters.h
FN:85,_ZN7libMesh10ParametersD0Ev
FNDA:0,_ZN7libMesh10ParametersD0Ev
FN:85,_ZN7libMesh10ParametersD2Ev
FNDA:0,_ZN7libMesh10ParametersD2Ev
FN:138,_ZN7libMesh10Parameters14set_attributesERKNSt7__cxx1112basic_stringIcSt11char_traitsIcESaIcEEEb
FNDA:0,_ZN7libMesh10Parameters14set_attributesERKNSt7__cxx1112basic_stringIcSt11char_traitsIcESaIcEEEb
FN:295,_ZNK7libMesh10Parameters9ParameterIbE4typeB5cxx11Ev
FNDA:0,_ZNK7libMesh10Parameters9ParameterIbE4typeB5cxx11Ev
FN:303,_ZNK7libMesh10Parameters9ParameterIbE5printERSo
FNDA:0,_ZNK7libMesh10Parameters9ParameterIbE5printERSo
FN:311,_ZNK7libMesh10Parameters9ParameterIbE5cloneEv
FNDA:0,_ZNK7libMesh10Parameters9ParameterIbE5cloneEv
FN:324,_ZN7libMesh10Parameters5clearEv
FNDA:0,_ZN7libMesh10Parameters5clearEv
FN:332,_ZN7libMesh10ParametersaSERKS0_
FNDA:0,_ZN7libMesh10ParametersaSERKS0_
FN:341,_ZN7libMesh10ParameterspLERKS0_
FNDA:0,_ZN7libMesh10ParameterspLERKS0_
FN:395,_ZNK7libMesh10Parameters14have_parameterIbEEbSt17basic_string_viewIcSt11char_traitsIcEE
FNDA:0,_ZNK7libMesh10Parameters14have_parameterIbEEbSt17basic_string_viewIcSt11char_traitsIcEE
FN:469,_ZN7libMesh10Parameters3setIbEERT_RKNSt7__cxx1112basic_stringIcSt11char_traitsIcESaIcEEE
FNDA:0,_ZN7libMesh10Parameters3setIbEERT_RKNSt7__cxx1112basic_stringIcSt11char_traitsIcESaIcEEE
FNF:11
FNH:0
DA:85,0
DA:85,0
DA:85,0
DA:138,0
DA:206,0
DA:218,0
DA:295,0
DA:297,0
DA:303,0
DA:307,0
DA:311,0
DA:313,0
DA:315,0
DA:317,0
DA:324,0
DA:327,0
DA:332,0
DA:335,0
DA:337,0
DA:341,0
DA:344,0
DA:345,0
DA:347,0
DA:395,0
DA:399,0
DA:403,0
DA:404,0
DA:469,0
DA:471,0
DA:472,0
DA:474,0
DA:477,0
DA:480,0
DA:537,0
LF:34
LH:0
end_of_record
SF:/home/runner/micromamba/envs/moose/x86_64-conda-linux-gnu/include/c++/10.4.0/bits/stl_set.h
FN:243,_ZNSt3setINSt7__cxx1112basic_stringIcSt11char_traitsIcESaIcEEESt4lessIS5_ESaIS5_EEC2ESt16initializer_listIS5_ERKS7_RKS8_
FNDA:126,_ZNSt3setINSt7__cxx1112basic_stringIcSt11char_traitsIcESaIcEEESt4lessIS5_ESaIS5_EEC2ESt16initializer_listIS5_ERKS7_RKS8_
FN:281,_ZNSt3setIsSt4lessIsESaIsEED2Ev
FNDA:0,_ZNSt3setIsSt4lessIsESaIsEED2Ev
FN:281,_ZNSt3setItSt4lessItESaItEED2Ev
FNDA:0,_ZNSt3setItSt4lessItESaItEED2Ev
FNF:3
FNH:1
DA:243,126
DA:246,126
DA:247,126
DA:281,0
DA:281,0
DA:281,126
LF:6
LH:4
end_of_record
SF:/home/runner/micromamba/envs/moose/x86_64-conda-linux-gnu/include/c++/10.4.0/bits/stl_iterator.h
DA:1001,0
DA:1005,0
LF:2
LH:0
end_of_record
SF:/home/runner/work/raccoon/raccoon/moose/framework/build/header_symlinks/InputParameters.h
FN:69,_ZN15InputParametersD0Ev
FNDA:0,_ZN15InputParametersD0Ev
FN:69,_ZN15InputParametersD2Ev
FNDA:0,_ZN15InputParametersD2Ev
FN:1301,_ZN15InputParameters3setIbEERT_RKNSt7__cxx1112basic_stringIcSt11char_traitsIcESaIcEEEb
FNDA:0,_ZN15InputParameters3setIbEERT_RKNSt7__cxx1112basic_stringIcSt11char_traitsIcESaIcEEEb
FN:1723,_ZNK15InputParameters19checkConsistentTypeIbEEvRKNSt7__cxx1112basic_stringIcSt11char_traitsIcESaIcEEE
FNDA:0,_ZNK15InputParameters19checkConsistentTypeIbEEvRKNSt7__cxx1112basic_stringIcSt11char_traitsIcESaIcEEE
FNF:4
FNH:0
DA:69,0
DA:69,0
DA:1301,0
DA:1303,0
DA:1305,0
DA:1306,0
DA:1308,0
DA:1310,0
DA:1311,0
DA:1315,0
DA:1723,0
DA:1725,0
DA:1729,0
DA:1734,0
DA:1735,0
DA:1740,0
LF:16
LH:0
end_of_record
SF:/home/runner/micromamba/envs/moose/libmesh/include/libmesh/threads_pthread.h
FN:147,_ZN7libMesh7Threads10spin_mutexD2Ev
FNDA:0,_ZN7libMesh7Threads10spin_mutexD2Ev
FN:502,_ZN7libMesh7Threads6atomicIjEppEv
FNDA:0,_ZN7libMesh7Threads6atomicIjEppEv
FN:516,_ZN7libMesh7Threads6atomicIjEmmEv
FNDA:0,_ZN7libMesh7Threads6atomicIjEmmEv
FNF:3
FNH:0
DA:147,0
DA:149,0
DA:150,0
DA:502,0
DA:505,0
DA:506,0
DA:516,0
DA:519,0
DA:520,0
LF:9
LH:0
end_of_record
SF:/home/runner/micromamba/envs/moose/x86_64-conda-linux-gnu/include/c++/10.4.0/bits/char_traits.h
DA:357,521
DA:374,0
DA:389,0
DA:399,355
LF:4
LH:2
end_of_record
SF:/home/runner/micromamba/envs/moose/x86_64-conda-linux-gnu/include/c++/10.4.0/bits/stl_tree.h
FN:613,_ZNSt8_Rb_treeINSt7__cxx1112basic_stringIcSt11char_traitsIcESaIcEEES5_St9_IdentityIS5_ESt4lessIS5_ESaIS5_EE17_M_construct_nodeIJRKS5_EEEvPSt13_Rb_tree_nodeIS5_EDpOT_
FNDA:126,_ZNSt8_Rb_treeINSt7__cxx1112basic_stringIcSt11char_traitsIcESaIcEEES5_St9_IdentityIS5_ESt4lessIS5_ESaIS5_EE17_M_construct_nodeIJRKS5_EEEvPSt13_Rb_tree_nodeIS5_EDpOT_
FN:613,_ZNSt8_Rb_treeINSt7__cxx1112basic_stringIcSt11char_traitsIcESaIcEEESt4pairIKS5_St10unique_ptrI23AppFactoryBuildInfoBaseSt14default_deleteIS9_EEESt10_Select1stISD_ESt4lessIS5_ESaISD_EE17_M_construct_nodeIJRKSt21piecewise_construct_tSt5tupleIJRS7_EESO_IJEEEEEvPSt13_Rb_tree_nodeISD_EDpOT_
FNDA:40,_ZNSt8_Rb_treeINSt7__cxx1112basic_stringIcSt11char_traitsIcESaIcEEESt4pairIKS5_St10unique_ptrI23AppFactoryBuildInfoBaseSt14default_deleteIS9_EEESt10_Select1stISD_ESt4lessIS5_ESaISD_EE17_M_construct_nodeIJRKSt21piecewise_construct_tSt5tupleIJRS7_EESO_IJEEEEEvPSt13_Rb_tree_nodeISD_EDpOT_
FN:613,_ZNSt8_Rb_treeINSt7__cxx1112basic_stringIcSt11char_traitsIcESaIcEEESt4pairIKS5_St10unique_ptrIN7libMesh10Parameters5ValueESt14default_deleteISB_EEESt10_Select1stISF_ESt4lessIvESaISF_EE17_M_construct_nodeIJRKSt21piecewise_construct_tSt5tupleIJRS7_EESQ_IJEEEEEvPSt13_Rb_tree_nodeISF_EDpOT_
FNDA:0,_ZNSt8_Rb_treeINSt7__cxx1112basic_stringIcSt11char_traitsIcESaIcEEESt4pairIKS5_St10unique_ptrIN7libMesh10Parameters5ValueESt14default_deleteISB_EEESt10_Select1stISF_ESt4lessIvESaISF_EE17_M_construct_nodeIJRKSt21piecewise_construct_tSt5tupleIJRS7_EESQ_IJEEEEEvPSt13_Rb_tree_nodeISF_EDpOT_
FN:613,_ZNSt8_Rb_treeINSt7__cxx1112basic_stringIcSt11char_traitsIcESaIcEEESt4pairIKS5_N15InputParameters8MetadataEESt10_Select1stISA_ESt4lessIS5_ESaISA_EE17_M_construct_nodeIJRKSt21piecewise_construct_tSt5tupleIJRS7_EESL_IJEEEEEvPSt13_Rb_tree_nodeISA_EDpOT_
FNDA:0,_ZNSt8_Rb_treeINSt7__cxx1112basic_stringIcSt11char_traitsIcESaIcEEESt4pairIKS5_N15InputParameters8MetadataEESt10_Select1stISA_ESt4lessIS5_ESaISA_EE17_M_construct_nodeIJRKSt21piecewise_construct_tSt5tupleIJRS7_EESL_IJEEEEEvPSt13_Rb_tree_nodeISA_EDpOT_
FN:632,_ZNSt8_Rb_treeINSt7__cxx1112basic_stringIcSt11char_traitsIcESaIcEEESt4pairIKS5_St10unique_ptrIN7libMesh10Parameters5ValueESt14default_deleteISB_EEESt10_Select1stISF_ESt4lessIvESaISF_EE14_M_create_nodeIJRKSt21piecewise_construct_tSt5tupleIJRS7_EESQ_IJEEEEEPSt13_Rb_tree_nodeISF_EDpOT_
FNDA:0,_ZNSt8_Rb_treeINSt7__cxx1112basic_stringIcSt11char_traitsIcESaIcEEESt4pairIKS5_St10unique_ptrIN7libMesh10Parameters5ValueESt14default_deleteISB_EEESt10_Select1stISF_ESt4lessIvESaISF_EE14_M_create_nodeIJRKSt21piecewise_construct_tSt5tupleIJRS7_EESQ_IJEEEEEPSt13_Rb_tree_nodeISF_EDpOT_
FN:632,_ZNSt8_Rb_treeINSt7__cxx1112basic_stringIcSt11char_traitsIcESaIcEEESt4pairIKS5_N15InputParameters8MetadataEESt10_Select1stISA_ESt4lessIS5_ESaISA_EE14_M_create_nodeIJRKSt21piecewise_construct_tSt5tupleIJRS7_EESL_IJEEEEEPSt13_Rb_tree_nodeISA_EDpOT_
FNDA:0,_ZNSt8_Rb_treeINSt7__cxx1112basic_stringIcSt11char_traitsIcESaIcEEESt4pairIKS5_N15InputParameters8MetadataEESt10_Select1stISA_ESt4lessIS5_ESaISA_EE14_M_create_nodeIJRKSt21piecewise_construct_tSt5tupleIJRS7_EESL_IJEEEEEPSt13_Rb_tree_nodeISA_EDpOT_
FN:632,_ZNSt8_Rb_treeINSt7__cxx1112basic_stringIcSt11char_traitsIcESaIcEEES5_St9_IdentityIS5_ESt4lessIS5_ESaIS5_EE14_M_create_nodeIJRKS5_EEEPSt13_Rb_tree_nodeIS5_EDpOT_
FNDA:126,_ZNSt8_Rb_treeINSt7__cxx1112basic_stringIcSt11char_traitsIcESaIcEEES5_St9_IdentityIS5_ESt4lessIS5_ESaIS5_EE14_M_create_nodeIJRKS5_EEEPSt13_Rb_tree_nodeIS5_EDpOT_
FN:632,_ZNSt8_Rb_treeINSt7__cxx1112basic_stringIcSt11char_traitsIcESaIcEEESt4pairIKS5_St10unique_ptrI23AppFactoryBuildInfoBaseSt14default_deleteIS9_EEESt10_Select1stISD_ESt4lessIS5_ESaISD_EE14_M_create_nodeIJRKSt21piecewise_construct_tSt5tupleIJRS7_EESO_IJEEEEEPSt13_Rb_tree_nodeISD_EDpOT_
FNDA:40,_ZNSt8_Rb_treeINSt7__cxx1112basic_stringIcSt11char_traitsIcESaIcEEESt4pairIKS5_St10unique_ptrI23AppFactoryBuildInfoBaseSt14default_deleteIS9_EEESt10_Select1stISD_ESt4lessIS5_ESaISD_EE14_M_create_nodeIJRKSt21piecewise_construct_tSt5tupleIJRS7_EESO_IJEEEEEPSt13_Rb_tree_nodeISD_EDpOT_
FN:652,_ZNSt8_Rb_treeI13MooseEnumItemS0_St9_IdentityIS0_ESt4lessIS0_ESaIS0_EE12_M_drop_nodeEPSt13_Rb_tree_nodeIS0_E
FNDA:0,_ZNSt8_Rb_treeI13MooseEnumItemS0_St9_IdentityIS0_ESt4lessIS0_ESaIS0_EE12_M_drop_nodeEPSt13_Rb_tree_nodeIS0_E
FN:652,_ZNSt8_Rb_treeINSt7__cxx1112basic_stringIcSt11char_traitsIcESaIcEEESt4pairIKS5_St10unique_ptrIN7libMesh10Parameters5ValueESt14default_deleteISB_EEESt10_Select1stISF_ESt4lessIvESaISF_EE12_M_drop_nodeEPSt13_Rb_tree_nodeISF_E
FNDA:0,_ZNSt8_Rb_treeINSt7__cxx1112basic_stringIcSt11char_traitsIcESaIcEEESt4pairIKS5_St10unique_ptrIN7libMesh10Parameters5ValueESt14default_deleteISB_EEESt10_Select1stISF_ESt4lessIvESaISF_EE12_M_drop_nodeEPSt13_Rb_tree_nodeISF_E
FN:652,_ZNSt8_Rb_treeINSt7__cxx1112basic_stringIcSt11char_traitsIcESaIcEEESt4pairIKS5_N15InputParameters8MetadataEESt10_Select1stISA_ESt4lessIS5_ESaISA_EE12_M_drop_nodeEPSt13_Rb_tree_nodeISA_E
FNDA:0,_ZNSt8_Rb_treeINSt7__cxx1112basic_stringIcSt11char_traitsIcESaIcEEESt4pairIKS5_N15InputParameters8MetadataEESt10_Select1stISA_ESt4lessIS5_ESaISA_EE12_M_drop_nodeEPSt13_Rb_tree_nodeISA_E
FN:652,_ZNSt8_Rb_treeINSt7__cxx1112basic_stringIcSt11char_traitsIcESaIcEEESt4pairIKS5_S5_ESt10_Select1stIS8_ESt4lessIS5_ESaIS8_EE12_M_drop_nodeEPSt13_Rb_tree_nodeIS8_E
FNDA:0,_ZNSt8_Rb_treeINSt7__cxx1112basic_stringIcSt11char_traitsIcESaIcEEESt4pairIKS5_S5_ESt10_Select1stIS8_ESt4lessIS5_ESaIS8_EE12_M_drop_nodeEPSt13_Rb_tree_nodeIS8_E
FN:652,_ZNSt8_Rb_treeINSt7__cxx1112basic_stringIcSt11char_traitsIcESaIcEEESt4pairIKS5_St10unique_ptrI23AppFactoryBuildInfoBaseSt14default_deleteIS9_EEESt10_Select1stISD_ESt4lessIS5_ESaISD_EE12_M_drop_nodeEPSt13_Rb_tree_nodeISD_E
FNDA:0,_ZNSt8_Rb_treeINSt7__cxx1112basic_stringIcSt11char_traitsIcESaIcEEESt4pairIKS5_St10unique_ptrI23AppFactoryBuildInfoBaseSt14default_deleteIS9_EEESt10_Select1stISD_ESt4lessIS5_ESaISD_EE12_M_drop_nodeEPSt13_Rb_tree_nodeISD_E
FN:1107,_ZNSt8_Rb_treeINSt7__cxx1112basic_stringIcSt11char_traitsIcESaIcEEES5_St9_IdentityIS5_ESt4lessIS5_ESaIS5_EE22_M_insert_range_uniqueIPKS5_EENSt9enable_ifIXsrSt7is_sameIS5_NSt15iterator_traitsIT_E10value_typeEE5valueEvE4typeESI_SI_
FNDA:126,_ZNSt8_Rb_treeINSt7__cxx1112basic_stringIcSt11char_traitsIcESaIcEEES5_St9_IdentityIS5_ESt4lessIS5_ESaIS5_EE22_M_insert_range_uniqueIPKS5_EENSt9enable_ifIXsrSt7is_sameIS5_NSt15iterator_traitsIT_E10value_typeEE5valueEvE4typeESI_SI_
FN:1261,_ZNSt8_Rb_treeINSt7__cxx1112basic_stringIcSt11char_traitsIcESaIcEEESt4pairIKS5_St10unique_ptrIN7libMesh10Parameters5ValueESt14default_deleteISB_EEESt10_Select1stISF_ESt4lessIvESaISF_EE5clearEv
FNDA:0,_ZNSt8_Rb_treeINSt7__cxx1112basic_stringIcSt11char_traitsIcESaIcEEESt4pairIKS5_St10unique_ptrIN7libMesh10Parameters5ValueESt14default_deleteISB_EEESt10_Select1stISF_ESt4lessIvESaISF_EE5clearEv
FN:1312,_ZNKSt8_Rb_treeINSt7__cxx1112basic_stringIcSt11char_traitsIcESaIcEEESt4pairIKS5_St10unique_ptrIN7libMesh10Parameters5ValueESt14default_deleteISB_EEESt10_Select1stISF_ESt4lessIvESaISF_EE10_M_find_trISt17basic_string_viewIcS3_EvEESt23_Rb_tree_const_iteratorISF_ERKT_
FNDA:0,_ZNKSt8_Rb_treeINSt7__cxx1112basic_stringIcSt11char_traitsIcESaIcEEESt4pairIKS5_St10unique_ptrIN7libMesh10Parameters5ValueESt14default_deleteISB_EEESt10_Select1stISF_ESt4lessIvESaISF_EE10_M_find_trISt17basic_string_viewIcS3_EvEESt23_Rb_tree_const_iteratorISF_ERKT_
FN:1341,_ZNKSt8_Rb_treeINSt7__cxx1112basic_stringIcSt11char_traitsIcESaIcEEESt4pairIKS5_St10unique_ptrIN7libMesh10Parameters5ValueESt14default_deleteISB_EEESt10_Select1stISF_ESt4lessIvESaISF_EE17_M_lower_bound_trISt17basic_string_viewIcS3_EvEESt23_Rb_tree_const_iteratorISF_ERKT_
FNDA:0,_ZNKSt8_Rb_treeINSt7__cxx1112basic_stringIcSt11char_traitsIcESaIcEEESt4pairIKS5_St10unique_ptrIN7libMesh10Parameters5ValueESt14default_deleteISB_EEESt10_Select1stISF_ESt4lessIvESaISF_EE17_M_lower_bound_trISt17basic_string_viewIcS3_EvEESt23_Rb_tree_const_iteratorISF_ERKT_
FN:1808,_ZNSt8_Rb_treeINSt7__cxx1112basic_stringIcSt11char_traitsIcESaIcEEES5_St9_IdentityIS5_ESt4lessIS5_ESaIS5_EE10_M_insert_IRKS5_NSB_11_Alloc_nodeEEESt17_Rb_tree_iteratorIS5_EPSt18_Rb_tree_node_baseSJ_OT_RT0_
FNDA:126,_ZNSt8_Rb_treeINSt7__cxx1112basic_stringIcSt11char_traitsIcESaIcEEES5_St9_IdentityIS5_ESt4lessIS5_ESaIS5_EE10_M_insert_IRKS5_NSB_11_Alloc_nodeEEESt17_Rb_tree_iteratorIS5_EPSt18_Rb_tree_node_baseSJ_OT_RT0_
FN:1918,_ZNSt8_Rb_treeINSt7__cxx1112basic_stringIcSt11char_traitsIcESaIcEEESt4pairIKS5_N15InputParameters8MetadataEESt10_Select1stISA_ESt4lessIS5_ESaISA_EE8_M_eraseEPSt13_Rb_tree_nodeISA_E
FNDA:0,_ZNSt8_Rb_treeINSt7__cxx1112basic_stringIcSt11char_traitsIcESaIcEEESt4pairIKS5_N15InputParameters8MetadataEESt10_Select1stISA_ESt4lessIS5_ESaISA_EE8_M_eraseEPSt13_Rb_tree_nodeISA_E
FN:1918,_ZNSt8_Rb_treeINSt7__cxx1112basic_stringIcSt11char_traitsIcESaIcEEESt4pairIKS5_St10unique_ptrIN7libMesh10Parameters5ValueESt14default_deleteISB_EEESt10_Select1stISF_ESt4lessIvESaISF_EE8_M_eraseEPSt13_Rb_tree_nodeISF_E
FNDA:0,_ZNSt8_Rb_treeINSt7__cxx1112basic_stringIcSt11char_traitsIcESaIcEEESt4pairIKS5_St10unique_ptrIN7libMesh10Parameters5ValueESt14default_deleteISB_EEESt10_Select1stISF_ESt4lessIvESaISF_EE8_M_eraseEPSt13_Rb_tree_nodeISF_E
FN:1918,_ZNSt8_Rb_treeIttSt9_IdentityItESt4lessItESaItEE8_M_eraseEPSt13_Rb_tree_nodeItE
FNDA:0,_ZNSt8_Rb_treeIttSt9_IdentityItESt4lessItESaItEE8_M_eraseEPSt13_Rb_tree_nodeItE
FN:1918,_ZNSt8_Rb_treeIssSt9_IdentityIsESt4lessIsESaIsEE8_M_eraseEPSt13_Rb_tree_nodeIsE
FNDA:0,_ZNSt8_Rb_treeIssSt9_IdentityIsESt4lessIsESaIsEE8_M_eraseEPSt13_Rb_tree_nodeIsE
FN:1918,_ZNSt8_Rb_treeINSt7__cxx1112basic_stringIcSt11char_traitsIcESaIcEEES5_St9_IdentityIS5_ESt4lessIS5_ESaIS5_EE8_M_eraseEPSt13_Rb_tree_nodeIS5_E
FNDA:252,_ZNSt8_Rb_treeINSt7__cxx1112basic_stringIcSt11char_traitsIcESaIcEEES5_St9_IdentityIS5_ESt4lessIS5_ESaIS5_EE8_M_eraseEPSt13_Rb_tree_nodeIS5_E
FN:1918,_ZNSt8_Rb_treeINSt7__cxx1112basic_stringIcSt11char_traitsIcESaIcEEESt4pairIKS5_S5_ESt10_Select1stIS8_ESt4lessIS5_ESaIS8_EE8_M_eraseEPSt13_Rb_tree_nodeIS8_E
FNDA:0,_ZNSt8_Rb_treeINSt7__cxx1112basic_stringIcSt11char_traitsIcESaIcEEESt4pairIKS5_S5_ESt10_Select1stIS8_ESt4lessIS5_ESaIS8_EE8_M_eraseEPSt13_Rb_tree_nodeIS8_E
FN:1918,_ZNSt8_Rb_treeINSt7__cxx1112basic_stringIcSt11char_traitsIcESaIcEEESt4pairIKS5_S6_IS5_S5_EESt10_Select1stIS9_ESt4lessIS5_ESaIS9_EE8_M_eraseEPSt13_Rb_tree_nodeIS9_E
FNDA:0,_ZNSt8_Rb_treeINSt7__cxx1112basic_stringIcSt11char_traitsIcESaIcEEESt4pairIKS5_S6_IS5_S5_EESt10_Select1stIS9_ESt4lessIS5_ESaIS9_EE8_M_eraseEPSt13_Rb_tree_nodeIS9_E
FN:1918,_ZNSt8_Rb_treeI13MooseEnumItemS0_St9_IdentityIS0_ESt4lessIS0_ESaIS0_EE8_M_eraseEPSt13_Rb_tree_nodeIS0_E
FNDA:0,_ZNSt8_Rb_treeI13MooseEnumItemS0_St9_IdentityIS0_ESt4lessIS0_ESaIS0_EE8_M_eraseEPSt13_Rb_tree_nodeIS0_E
FN:1935,_ZNSt8_Rb_treeINSt7__cxx1112basic_stringIcSt11char_traitsIcESaIcEEESt4pairIKS5_N15InputParameters8MetadataEESt10_Select1stISA_ESt4lessIS5_ESaISA_EE14_M_lower_boundEPSt13_Rb_tree_nodeISA_EPSt18_Rb_tree_node_baseRS7_
FNDA:0,_ZNSt8_Rb_treeINSt7__cxx1112basic_stringIcSt11char_traitsIcESaIcEEESt4pairIKS5_N15InputParameters8MetadataEESt10_Select1stISA_ESt4lessIS5_ESaISA_EE14_M_lower_boundEPSt13_Rb_tree_nodeISA_EPSt18_Rb_tree_node_baseRS7_
FN:1935,_ZNSt8_Rb_treeINSt7__cxx1112basic_stringIcSt11char_traitsIcESaIcEEESt4pairIKS5_St10unique_ptrI23AppFactoryBuildInfoBaseSt14default_deleteIS9_EEESt10_Select1stISD_ESt4lessIS5_ESaISD_EE14_M_lower_boundEPSt13_Rb_tree_nodeISD_EPSt18_Rb_tree_node_baseRS7_
FNDA:40,_ZNSt8_Rb_treeINSt7__cxx1112basic_stringIcSt11char_traitsIcESaIcEEESt4pairIKS5_St10unique_ptrI23AppFactoryBuildInfoBaseSt14default_deleteIS9_EEESt10_Select1stISD_ESt4lessIS5_ESaISD_EE14_M_lower_boundEPSt13_Rb_tree_nodeISD_EPSt18_Rb_tree_node_baseRS7_
FN:1935,_ZNSt8_Rb_treeINSt7__cxx1112basic_stringIcSt11char_traitsIcESaIcEEESt4pairIKS5_St10unique_ptrIN7libMesh10Parameters5ValueESt14default_deleteISB_EEESt10_Select1stISF_ESt4lessIvESaISF_EE14_M_lower_boundEPSt13_Rb_tree_nodeISF_EPSt18_Rb_tree_node_baseRS7_
FNDA:0,_ZNSt8_Rb_treeINSt7__cxx1112basic_stringIcSt11char_traitsIcESaIcEEESt4pairIKS5_St10unique_ptrIN7libMesh10Parameters5ValueESt14default_deleteISB_EEESt10_Select1stISF_ESt4lessIvESaISF_EE14_M_lower_boundEPSt13_Rb_tree_nodeISF_EPSt18_Rb_tree_node_baseRS7_
FN:1951,_ZNKSt8_Rb_treeINSt7__cxx1112basic_stringIcSt11char_traitsIcESaIcEEESt4pairIKS5_St10unique_ptrIN7libMesh10Parameters5ValueESt14default_deleteISB_EEESt10_Select1stISF_ESt4lessIvESaISF_EE14_M_lower_boundEPKSt13_Rb_tree_nodeISF_EPKSt18_Rb_tree_node_baseRS7_
FNDA:0,_ZNKSt8_Rb_treeINSt7__cxx1112basic_stringIcSt11char_traitsIcESaIcEEESt4pairIKS5_St10unique_ptrIN7libMesh10Parameters5ValueESt14default_deleteISB_EEESt10_Select1stISF_ESt4lessIvESaISF_EE14_M_lower_boundEPKSt13_Rb_tree_nodeISF_EPKSt18_Rb_tree_node_baseRS7_
FN:1951,_ZNKSt8_Rb_treeINSt7__cxx1112basic_stringIcSt11char_traitsIcESaIcEEESt4pairIKS5_St10unique_ptrI23AppFactoryBuildInfoBaseSt14default_deleteIS9_EEESt10_Select1stISD_ESt4lessIS5_ESaISD_EE14_M_lower_boundEPKSt13_Rb_tree_nodeISD_EPKSt18_Rb_tree_node_baseRS7_
FNDA:0,_ZNKSt8_Rb_treeINSt7__cxx1112basic_stringIcSt11char_traitsIcESaIcEEESt4pairIKS5_St10unique_ptrI23AppFactoryBuildInfoBaseSt14default_deleteIS9_EEESt10_Select1stISD_ESt4lessIS5_ESaISD_EE14_M_lower_boundEPKSt13_Rb_tree_nodeISD_EPKSt18_Rb_tree_node_baseRS7_
FN:2096,_ZNSt8_Rb_treeINSt7__cxx1112basic_stringIcSt11char_traitsIcESaIcEEESt4pairIKS5_N15InputParameters8MetadataEESt10_Select1stISA_ESt4lessIS5_ESaISA_EE24_M_get_insert_unique_posERS7_
FNDA:0,_ZNSt8_Rb_treeINSt7__cxx1112basic_stringIcSt11char_traitsIcESaIcEEESt4pairIKS5_N15InputParameters8MetadataEESt10_Select1stISA_ESt4lessIS5_ESaISA_EE24_M_get_insert_unique_posERS7_
FN:2096,_ZNSt8_Rb_treeINSt7__cxx1112basic_stringIcSt11char_traitsIcESaIcEEES5_St9_IdentityIS5_ESt4lessIS5_ESaIS5_EE24_M_get_insert_unique_posERKS5_
FNDA:0,_ZNSt8_Rb_treeINSt7__cxx1112basic_stringIcSt11char_traitsIcESaIcEEES5_St9_IdentityIS5_ESt4lessIS5_ESaIS5_EE24_M_get_insert_unique_posERKS5_
FN:2096,_ZNSt8_Rb_treeINSt7__cxx1112basic_stringIcSt11char_traitsIcESaIcEEESt4pairIKS5_St10unique_ptrIN7libMesh10Parameters5ValueESt14default_deleteISB_EEESt10_Select1stISF_ESt4lessIvESaISF_EE24_M_get_insert_unique_posERS7_
FNDA:0,_ZNSt8_Rb_treeINSt7__cxx1112basic_stringIcSt11char_traitsIcESaIcEEESt4pairIKS5_St10unique_ptrIN7libMesh10Parameters5ValueESt14default_deleteISB_EEESt10_Select1stISF_ESt4lessIvESaISF_EE24_M_get_insert_unique_posERS7_
FN:2096,_ZNSt8_Rb_treeINSt7__cxx1112basic_stringIcSt11char_traitsIcESaIcEEESt4pairIKS5_St10unique_ptrI23AppFactoryBuildInfoBaseSt14default_deleteIS9_EEESt10_Select1stISD_ESt4lessIS5_ESaISD_EE24_M_get_insert_unique_posERS7_
FNDA:0,_ZNSt8_Rb_treeINSt7__cxx1112basic_stringIcSt11char_traitsIcESaIcEEESt4pairIKS5_St10unique_ptrI23AppFactoryBuildInfoBaseSt14default_deleteIS9_EEESt10_Select1stISD_ESt4lessIS5_ESaISD_EE24_M_get_insert_unique_posERS7_
FN:2198,_ZNSt8_Rb_treeINSt7__cxx1112basic_stringIcSt11char_traitsIcESaIcEEESt4pairIKS5_N15InputParameters8MetadataEESt10_Select1stISA_ESt4lessIS5_ESaISA_EE29_M_get_insert_hint_unique_posESt23_Rb_tree_const_iteratorISA_ERS7_
FNDA:0,_ZNSt8_Rb_treeINSt7__cxx1112basic_stringIcSt11char_traitsIcESaIcEEESt4pairIKS5_N15InputParameters8MetadataEESt10_Select1stISA_ESt4lessIS5_ESaISA_EE29_M_get_insert_hint_unique_posESt23_Rb_tree_const_iteratorISA_ERS7_
FN:2198,_ZNSt8_Rb_treeINSt7__cxx1112basic_stringIcSt11char_traitsIcESaIcEEESt4pairIKS5_St10unique_ptrI23AppFactoryBuildInfoBaseSt14default_deleteIS9_EEESt10_Select1stISD_ESt4lessIS5_ESaISD_EE29_M_get_insert_hint_unique_posESt23_Rb_tree_const_iteratorISD_ERS7_
FNDA:0,_ZNSt8_Rb_treeINSt7__cxx1112basic_stringIcSt11char_traitsIcESaIcEEESt4pairIKS5_St10unique_ptrI23AppFactoryBuildInfoBaseSt14default_deleteIS9_EEESt10_Select1stISD_ESt4lessIS5_ESaISD_EE29_M_get_insert_hint_unique_posESt23_Rb_tree_const_iteratorISD_ERS7_
FN:2198,_ZNSt8_Rb_treeINSt7__cxx1112basic_stringIcSt11char_traitsIcESaIcEEESt4pairIKS5_St10unique_ptrIN7libMesh10Parameters5ValueESt14default_deleteISB_EEESt10_Select1stISF_ESt4lessIvESaISF_EE29_M_get_insert_hint_unique_posESt23_Rb_tree_const_iteratorISF_ERS7_
FNDA:0,_ZNSt8_Rb_treeINSt7__cxx1112basic_stringIcSt11char_traitsIcESaIcEEESt4pairIKS5_St10unique_ptrIN7libMesh10Parameters5ValueESt14default_deleteISB_EEESt10_Select1stISF_ESt4lessIvESaISF_EE29_M_get_insert_hint_unique_posESt23_Rb_tree_const_iteratorISF_ERS7_
FN:2198,_ZNSt8_Rb_treeINSt7__cxx1112basic_stringIcSt11char_traitsIcESaIcEEES5_St9_IdentityIS5_ESt4lessIS5_ESaIS5_EE29_M_get_insert_hint_unique_posESt23_Rb_tree_const_iteratorIS5_ERKS5_
FNDA:0,_ZNSt8_Rb_treeINSt7__cxx1112basic_stringIcSt11char_traitsIcESaIcEEES5_St9_IdentityIS5_ESt4lessIS5_ESaIS5_EE29_M_get_insert_hint_unique_posESt23_Rb_tree_const_iteratorIS5_ERKS5_
FN:2259,_ZNSt8_Rb_treeINSt7__cxx1112basic_stringIcSt11char_traitsIcESaIcEEES5_St9_IdentityIS5_ESt4lessIS5_ESaIS5_EE17_M_insert_unique_IRKS5_NSB_11_Alloc_nodeEEESt17_Rb_tree_iteratorIS5_ESt23_Rb_tree_const_iteratorIS5_EOT_RT0_
FNDA:126,_ZNSt8_Rb_treeINSt7__cxx1112basic_stringIcSt11char_traitsIcESaIcEEES5_St9_IdentityIS5_ESt4lessIS5_ESaIS5_EE17_M_insert_unique_IRKS5_NSB_11_Alloc_nodeEEESt17_Rb_tree_iteratorIS5_ESt23_Rb_tree_const_iteratorIS5_EOT_RT0_
FN:2365,_ZNSt8_Rb_treeINSt7__cxx1112basic_stringIcSt11char_traitsIcESaIcEEESt4pairIKS5_N15InputParameters8MetadataEESt10_Select1stISA_ESt4lessIS5_ESaISA_EE14_M_insert_nodeEPSt18_Rb_tree_node_baseSI_PSt13_Rb_tree_nodeISA_E
FNDA:0,_ZNSt8_Rb_treeINSt7__cxx1112basic_stringIcSt11char_traitsIcESaIcEEESt4pairIKS5_N15InputParameters8MetadataEESt10_Select1stISA_ESt4lessIS5_ESaISA_EE14_M_insert_nodeEPSt18_Rb_tree_node_baseSI_PSt13_Rb_tree_nodeISA_E
FN:2365,_ZNSt8_Rb_treeINSt7__cxx1112basic_stringIcSt11char_traitsIcESaIcEEESt4pairIKS5_St10unique_ptrIN7libMesh10Parameters5ValueESt14default_deleteISB_EEESt10_Select1stISF_ESt4lessIvESaISF_EE14_M_insert_nodeEPSt18_Rb_tree_node_baseSN_PSt13_Rb_tree_nodeISF_E
FNDA:0,_ZNSt8_Rb_treeINSt7__cxx1112basic_stringIcSt11char_traitsIcESaIcEEESt4pairIKS5_St10unique_ptrIN7libMesh10Parameters5ValueESt14default_deleteISB_EEESt10_Select1stISF_ESt4lessIvESaISF_EE14_M_insert_nodeEPSt18_Rb_tree_node_baseSN_PSt13_Rb_tree_nodeISF_E
FN:2365,_ZNSt8_Rb_treeINSt7__cxx1112basic_stringIcSt11char_traitsIcESaIcEEESt4pairIKS5_St10unique_ptrI23AppFactoryBuildInfoBaseSt14default_deleteIS9_EEESt10_Select1stISD_ESt4lessIS5_ESaISD_EE14_M_insert_nodeEPSt18_Rb_tree_node_baseSL_PSt13_Rb_tree_nodeISD_E
FNDA:40,_ZNSt8_Rb_treeINSt7__cxx1112basic_stringIcSt11char_traitsIcESaIcEEESt4pairIKS5_St10unique_ptrI23AppFactoryBuildInfoBaseSt14default_deleteIS9_EEESt10_Select1stISD_ESt4lessIS5_ESaISD_EE14_M_insert_nodeEPSt18_Rb_tree_node_baseSL_PSt13_Rb_tree_nodeISD_E
FN:2463,_ZNSt8_Rb_treeINSt7__cxx1112basic_stringIcSt11char_traitsIcESaIcEEESt4pairIKS5_St10unique_ptrI23AppFactoryBuildInfoBaseSt14default_deleteIS9_EEESt10_Select1stISD_ESt4lessIS5_ESaISD_EE22_M_emplace_hint_uniqueIJRKSt21piecewise_construct_tSt5tupleIJRS7_EESO_IJEEEEESt17_Rb_tree_iteratorISD_ESt23_Rb_tree_const_iteratorISD_EDpOT_
FNDA:40,_ZNSt8_Rb_treeINSt7__cxx1112basic_stringIcSt11char_traitsIcESaIcEEESt4pairIKS5_St10unique_ptrI23AppFactoryBuildInfoBaseSt14default_deleteIS9_EEESt10_Select1stISD_ESt4lessIS5_ESaISD_EE22_M_emplace_hint_uniqueIJRKSt21piecewise_construct_tSt5tupleIJRS7_EESO_IJEEEEESt17_Rb_tree_iteratorISD_ESt23_Rb_tree_const_iteratorISD_EDpOT_
FN:2463,_ZNSt8_Rb_treeINSt7__cxx1112basic_stringIcSt11char_traitsIcESaIcEEESt4pairIKS5_N15InputParameters8MetadataEESt10_Select1stISA_ESt4lessIS5_ESaISA_EE22_M_emplace_hint_uniqueIJRKSt21piecewise_construct_tSt5tupleIJRS7_EESL_IJEEEEESt17_Rb_tree_iteratorISA_ESt23_Rb_tree_const_iteratorISA_EDpOT_
FNDA:0,_ZNSt8_Rb_treeINSt7__cxx1112basic_stringIcSt11char_traitsIcESaIcEEESt4pairIKS5_N15InputParameters8MetadataEESt10_Select1stISA_ESt4lessIS5_ESaISA_EE22_M_emplace_hint_uniqueIJRKSt21piecewise_construct_tSt5tupleIJRS7_EESL_IJEEEEESt17_Rb_tree_iteratorISA_ESt23_Rb_tree_const_iteratorISA_EDpOT_
FN:2463,_ZNSt8_Rb_treeINSt7__cxx1112basic_stringIcSt11char_traitsIcESaIcEEESt4pairIKS5_St10unique_ptrIN7libMesh10Parameters5ValueESt14default_deleteISB_EEESt10_Select1stISF_ESt4lessIvESaISF_EE22_M_emplace_hint_uniqueIJRKSt21piecewise_construct_tSt5tupleIJRS7_EESQ_IJEEEEESt17_Rb_tree_iteratorISF_ESt23_Rb_tree_const_iteratorISF_EDpOT_
FNDA:0,_ZNSt8_Rb_treeINSt7__cxx1112basic_stringIcSt11char_traitsIcESaIcEEESt4pairIKS5_St10unique_ptrIN7libMesh10Parameters5ValueESt14default_deleteISB_EEESt10_Select1stISF_ESt4lessIvESaISF_EE22_M_emplace_hint_uniqueIJRKSt21piecewise_construct_tSt5tupleIJRS7_EESQ_IJEEEEESt17_Rb_tree_iteratorISF_ESt23_Rb_tree_const_iteratorISF_EDpOT_
FN:2568,_ZNKSt8_Rb_treeINSt7__cxx1112basic_stringIcSt11char_traitsIcESaIcEEESt4pairIKS5_St10unique_ptrI23AppFactoryBuildInfoBaseSt14default_deleteIS9_EEESt10_Select1stISD_ESt4lessIS5_ESaISD_EE4findERS7_
FNDA:0,_ZNKSt8_Rb_treeINSt7__cxx1112basic_stringIcSt11char_traitsIcESaIcEEESt4pairIKS5_St10unique_ptrI23AppFactoryBuildInfoBaseSt14default_deleteIS9_EEESt10_Select1stISD_ESt4lessIS5_ESaISD_EE4findERS7_
FN:2568,_ZNKSt8_Rb_treeINSt7__cxx1112basic_stringIcSt11char_traitsIcESaIcEEESt4pairIKS5_St10unique_ptrIN7libMesh10Parameters5ValueESt14default_deleteISB_EEESt10_Select1stISF_ESt4lessIvESaISF_EE4findERS7_
FNDA:0,_ZNKSt8_Rb_treeINSt7__cxx1112basic_stringIcSt11char_traitsIcESaIcEEESt4pairIKS5_St10unique_ptrIN7libMesh10Parameters5ValueESt14default_deleteISB_EEESt10_Select1stISF_ESt4lessIvESaISF_EE4findERS7_
FNF:48
FNH:11
DA:152,126
DA:174,126
DA:175,126
DA:208,126
DA:209,126
DA:210,126
DA:211,126
DA:287,0
DA:302,0
DA:303,0
DA:350,166
DA:351,40
DA:355,0
DA:368,0
DA:369,0
DA:397,40
DA:542,126
DA:543,126
DA:552,126
DA:571,0
DA:613,126
DA:622,0
DA:624,0
DA:626,0
DA:628,126
DA:613,40
DA:622,0
DA:624,0
DA:626,0
DA:628,40
DA:613,0
DA:622,0
DA:624,0
DA:626,0
DA:628,0
DA:613,0
DA:622,0
DA:624,0
DA:626,0
DA:628,0
DA:632,126
DA:635,126
DA:636,126
DA:632,40
DA:635,40
DA:636,40
DA:632,0
DA:635,0
DA:636,0
DA:632,0
DA:635,0
DA:636,0
DA:647,126
DA:652,0
DA:656,0
DA:652,0
DA:656,0
DA:652,0
DA:656,0
DA:652,0
DA:656,0
DA:652,0
DA:656,0
DA:716,126
DA:751,166
DA:757,0
DA:762,206
DA:766,0
DA:792,126
DA:796,0
DA:800,0
DA:804,0
DA:993,126
DA:1005,0
DA:1009,0
DA:1013,40
DA:1017,40
DA:1041,0
DA:1107,126
DA:1110,252
DA:1111,126
DA:1112,126
DA:1261,0
DA:1263,0
DA:1265,0
DA:1279,40
DA:1312,0
DA:1314,0
DA:1315,0
DA:1317,0
DA:1341,0
DA:1345,0
DA:1346,0
DA:1353,0
DA:1808,126
DA:1817,126
DA:1818,126
DA:1823,126
DA:1824,126
DA:1825,126
DA:1826,126
DA:1918,0
DA:1922,0
DA:1924,0
DA:1926,0
DA:1929,0
DA:1918,0
DA:1922,0
DA:1924,0
DA:1926,0
DA:1929,0
DA:1918,0
DA:1922,0
DA:1924,0
DA:1929,0
DA:1918,0
DA:1922,0
DA:1924,0
DA:1926,0
DA:1929,0
DA:1918,252
DA:1922,378
DA:1924,126
DA:1929,252
DA:1918,0
DA:1922,0
DA:1924,0
DA:1929,0
DA:1918,0
DA:1922,0
DA:1924,0
DA:1929,0
DA:1918,0
DA:1922,0
DA:1924,0
DA:1926,0
DA:1929,0
DA:1935,40
DA:1939,40
DA:1940,0
DA:1944,40
DA:1935,0
DA:1939,0
DA:1940,0
DA:1944,0
DA:1935,0
DA:1939,0
DA:1940,0
DA:1944,0
DA:1951,0
DA:1955,0
DA:1956,0
DA:1960,0
DA:1951,0
DA:1955,0
DA:1956,0
DA:1960,0
DA:2096,0
DA:2103,0
DA:2107,0
DA:2110,0
DA:2112,0
DA:2113,0
DA:2117,0
DA:2118,0
DA:2119,0
DA:2096,0
DA:2103,0
DA:2107,0
DA:2110,0
DA:2112,0
DA:2113,0
DA:2117,0
DA:2118,0
DA:2119,0
DA:2096,0
DA:2103,0
DA:2107,0
DA:2110,0
DA:2112,0
DA:2113,0
DA:2117,0
DA:2118,0
DA:2119,0
DA:2096,0
DA:2103,0
DA:2107,0
DA:2110,0
DA:2112,0
DA:2113,0
DA:2117,0
DA:2118,0
DA:2119,0
DA:2198,0
DA:2206,0
DA:2209,0
DA:2210,0
DA:2212,0
DA:2214,0
DA:2218,0
DA:2219,0
DA:2220,0
DA:2222,0
DA:2223,0
DA:2225,0
DA:2228,0
DA:2230,0
DA:2234,0
DA:2235,0
DA:2236,0
DA:2238,0
DA:2239,0
DA:2241,0
DA:2244,0
DA:2248,0
DA:2198,0
DA:2206,0
DA:2209,0
DA:2210,0
DA:2212,0
DA:2214,0
DA:2218,0
DA:2219,0
DA:2220,0
DA:2222,0
DA:2223,0
DA:2225,0
DA:2228,0
DA:2230,0
DA:2234,0
DA:2235,0
DA:2236,0
DA:2238,0
DA:2239,0
DA:2241,0
DA:2244,0
DA:2248,0
DA:2198,0
DA:2206,0
DA:2209,0
DA:2210,0
DA:2212,0
DA:2214,0
DA:2218,0
DA:2219,0
DA:2220,0
DA:2222,0
DA:2223,0
DA:2225,0
DA:2228,0
DA:2230,0
DA:2234,0
DA:2235,0
DA:2236,0
DA:2238,0
DA:2239,0
DA:2241,0
DA:2244,0
DA:2248,0
DA:2198,0
DA:2206,0
DA:2209,0
DA:2210,0
DA:2212,0
DA:2214,0
DA:2218,0
DA:2219,0
DA:2220,0
DA:2222,0
DA:2223,0
DA:2225,0
DA:2228,0
DA:2230,0
DA:2234,0
DA:2235,0
DA:2236,0
DA:2238,0
DA:2239,0
DA:2241,0
DA:2244,0
DA:2248,0
DA:2259,126
DA:2269,126
DA:2271,126
DA:2272,126
DA:2275,0
DA:2365,40
DA:2368,40
DA:2369,40
DA:2372,40
DA:2373,40
DA:2374,40
DA:2375,40
DA:2365,0
DA:2368,0
DA:2369,0
DA:2372,0
DA:2373,0
DA:2374,0
DA:2375,0
DA:2365,0
DA:2368,0
DA:2369,0
DA:2372,0
DA:2373,0
DA:2374,0
DA:2375,0
DA:2463,40
DA:2466,40
DA:2470,40
DA:2472,40
DA:2473,40
DA:2475,0
DA:2476,0
DA:2463,0
DA:2466,0
DA:2470,0
DA:2472,0
DA:2473,0
DA:2475,0
DA:2476,0
DA:2463,0
DA:2466,0
DA:2470,0
DA:2472,0
DA:2473,0
DA:2475,0
DA:2476,0
DA:2568,0
DA:2571,0
DA:2573,0
DA:2574,0
DA:2568,0
DA:2571,0
DA:2573,0
DA:2574,0
LF:336
LH:66
end_of_record
SF:/home/runner/micromamba/envs/moose/x86_64-conda-linux-gnu/include/c++/10.4.0/bits/stl_algobase.h
DA:235,0
DA:236,0
DA:425,0
DA:426,0
LF:4
LH:0
end_of_record
SF:/home/runner/micromamba/envs/moose/libmesh/include/timpi/message_tag.h
LF:0
LH:0
end_of_record
SF:/home/runner/micromamba/envs/moose/x86_64-conda-linux-gnu/include/c++/10.4.0/bits/allocated_ptr.h
FN:70,_ZNSt15__allocated_ptrISaISt23_Sp_counted_ptr_inplaceI10raccoonAppSaIS1_ELN9__gnu_cxx12_Lock_policyE2EEEED2Ev
FNDA:0,_ZNSt15__allocated_ptrISaISt23_Sp_counted_ptr_inplaceI10raccoonAppSaIS1_ELN9__gnu_cxx12_Lock_policyE2EEEED2Ev
FNF:1
FNH:0
DA:52,0
DA:53,0
DA:70,0
DA:72,0
DA:74,0
DA:80,0
LF:6
LH:0
end_of_record
SF:/home/runner/work/raccoon/raccoon/src/base/raccoonAppTypes.C
LF:0
LH:0
end_of_record
SF:/home/runner/micromamba/envs/moose/x86_64-conda-linux-gnu/include/c++/10.4.0/bits/stl_map.h
FN:492,_ZNSt3mapINSt7__cxx1112basic_stringIcSt11char_traitsIcESaIcEEESt10unique_ptrI23AppFactoryBuildInfoBaseSt14default_deleteIS7_EESt4lessIS5_ESaISt4pairIKS5_SA_EEEixERSE_
FNDA:40,_ZNSt3mapINSt7__cxx1112basic_stringIcSt11char_traitsIcESaIcEEESt10unique_ptrI23AppFactoryBuildInfoBaseSt14default_deleteIS7_EESt4lessIS5_ESaISt4pairIKS5_SA_EEEixERSE_
FN:492,_ZNSt3mapINSt7__cxx1112basic_stringIcSt11char_traitsIcESaIcEEEN15InputParameters8MetadataESt4lessIS5_ESaISt4pairIKS5_S7_EEEixERSB_
FNDA:0,_ZNSt3mapINSt7__cxx1112basic_stringIcSt11char_traitsIcESaIcEEEN15InputParameters8MetadataESt4lessIS5_ESaISt4pairIKS5_S7_EEEixERSB_
FN:492,_ZNSt3mapINSt7__cxx1112basic_stringIcSt11char_traitsIcESaIcEEESt10unique_ptrIN7libMesh10Parameters5ValueESt14default_deleteIS9_EESt4lessIvESaISt4pairIKS5_SC_EEEixERSG_
FNDA:0,_ZNSt3mapINSt7__cxx1112basic_stringIcSt11char_traitsIcESaIcEEESt10unique_ptrIN7libMesh10Parameters5ValueESt14default_deleteIS9_EESt4lessIvESaISt4pairIKS5_SC_EEEixERSG_
FN:1258,_ZNSt3mapINSt7__cxx1112basic_stringIcSt11char_traitsIcESaIcEEESt10unique_ptrI23AppFactoryBuildInfoBaseSt14default_deleteIS7_EESt4lessIS5_ESaISt4pairIKS5_SA_EEE11lower_boundERSE_
FNDA:40,_ZNSt3mapINSt7__cxx1112basic_stringIcSt11char_traitsIcESaIcEEESt10unique_ptrI23AppFactoryBuildInfoBaseSt14default_deleteIS7_EESt4lessIS5_ESaISt4pairIKS5_SA_EEE11lower_boundERSE_
FN:1258,_ZNSt3mapINSt7__cxx1112basic_stringIcSt11char_traitsIcESaIcEEEN15InputParameters8MetadataESt4lessIS5_ESaISt4pairIKS5_S7_EEE11lower_boundERSB_
FNDA:0,_ZNSt3mapINSt7__cxx1112basic_stringIcSt11char_traitsIcESaIcEEEN15InputParameters8MetadataESt4lessIS5_ESaISt4pairIKS5_S7_EEE11lower_boundERSB_
FN:1258,_ZNSt3mapINSt7__cxx1112basic_stringIcSt11char_traitsIcESaIcEEESt10unique_ptrIN7libMesh10Parameters5ValueESt14default_deleteIS9_EESt4lessIvESaISt4pairIKS5_SC_EEE11lower_boundERSG_
FNDA:0,_ZNSt3mapINSt7__cxx1112basic_stringIcSt11char_traitsIcESaIcEEESt10unique_ptrIN7libMesh10Parameters5ValueESt14default_deleteIS9_EESt4lessIvESaISt4pairIKS5_SC_EEE11lower_boundERSG_
FNF:6
FNH:2
DA:302,0
DA:492,40
DA:497,40
DA:499,40
DA:501,40
DA:502,40
DA:503,40
DA:507,40
DA:492,0
DA:497,0
DA:499,0
DA:501,0
DA:502,0
DA:503,0
DA:507,0
DA:492,0
DA:497,0
DA:499,0
DA:501,0
DA:502,0
DA:503,0
DA:507,0
DA:1134,0
DA:1195,0
DA:1201,0
DA:1216,40
DA:1258,40
DA:1259,40
DA:1258,0
DA:1259,0
DA:1258,0
DA:1259,0
LF:32
LH:10
end_of_record
TN:
SF:/home/runner/micromamba/envs/moose/x86_64-conda-linux-gnu/include/c++/10.4.0/bits/stl_iterator.h
DA:996,48
DA:1001,0
DA:1005,0
DA:1022,3
DA:1023,3
DA:1239,3
LF:6
LH:4
end_of_record
SF:/home/runner/work/raccoon/raccoon/src/interfaces/BaseNameInterface.C
FN:8,_ZN17BaseNameInterface11validParamsEv
FNDA:4348,_ZN17BaseNameInterface11validParamsEv
FN:18,_ZN17BaseNameInterfaceC2ERK15InputParameters
FNDA:409,_ZN17BaseNameInterfaceC2ERK15InputParameters
FN:25,_ZNK17BaseNameInterface15prependBaseNameE20MaterialPropertyNameb
FNDA:1524,_ZNK17BaseNameInterface15prependBaseNameE20MaterialPropertyNameb
FN:33,_ZNK17BaseNameInterface15prependBaseNameERKSt6vectorI20MaterialPropertyNameSaIS1_EE
FNDA:48,_ZNK17BaseNameInterface15prependBaseNameERKSt6vectorI20MaterialPropertyNameSaIS1_EE
FNF:4
FNH:4
DA:8,4348
DA:10,4348
DA:11,8696
DA:15,4348
DA:18,409
DA:20,409
DA:22,409
DA:25,1524
DA:27,1524
DA:28,1692
DA:29,1356
DA:33,48
DA:36,51
DA:37,6
DA:38,48
LF:15
LH:15
end_of_record
SF:/home/runner/micromamba/envs/moose/libmesh/include/libmesh/threads_pthread.h
FN:147,_ZN7libMesh7Threads10spin_mutexD2Ev
FNDA:0,_ZN7libMesh7Threads10spin_mutexD2Ev
FN:502,_ZN7libMesh7Threads6atomicIjEppEv
FNDA:0,_ZN7libMesh7Threads6atomicIjEppEv
FN:516,_ZN7libMesh7Threads6atomicIjEmmEv
FNDA:0,_ZN7libMesh7Threads6atomicIjEmmEv
FNF:3
FNH:0
DA:147,0
DA:149,0
DA:150,0
DA:502,0
DA:505,0
DA:506,0
DA:516,0
DA:519,0
DA:520,0
LF:9
LH:0
end_of_record
SF:/home/runner/work/raccoon/raccoon/moose/framework/build/header_symlinks/InputParameters.h
FN:69,_ZN15InputParametersD0Ev
FNDA:0,_ZN15InputParametersD0Ev
FN:69,_ZN15InputParametersD2Ev
FNDA:0,_ZN15InputParametersD2Ev
FN:1550,_ZN15InputParameters8addParamINSt7__cxx1112basic_stringIcSt11char_traitsIcESaIcEEEEEvRKS6_S8_
FNDA:0,_ZN15InputParameters8addParamINSt7__cxx1112basic_stringIcSt11char_traitsIcESaIcEEEEEvRKS6_S8_
FN:1723,_ZNK15InputParameters19checkConsistentTypeINSt7__cxx1112basic_stringIcSt11char_traitsIcESaIcEEEEEvRKS6_
FNDA:0,_ZNK15InputParameters19checkConsistentTypeINSt7__cxx1112basic_stringIcSt11char_traitsIcESaIcEEEEEvRKS6_
FN:2007,_ZNK15InputParameters3getI20MaterialPropertyNameEERKT_St17basic_string_viewIcSt11char_traitsIcEE
FNDA:0,_ZNK15InputParameters3getI20MaterialPropertyNameEERKT_St17basic_string_viewIcSt11char_traitsIcEE
FN:2007,_ZNK15InputParameters3getINSt7__cxx1112basic_stringIcSt11char_traitsIcESaIcEEEEERKT_St17basic_string_viewIcS4_E
FNDA:0,_ZNK15InputParameters3getINSt7__cxx1112basic_stringIcSt11char_traitsIcESaIcEEEEERKT_St17basic_string_viewIcS4_E
FNF:6
FNH:0
DA:69,0
DA:69,0
DA:1550,0
DA:1552,0
DA:1553,0
DA:1555,0
DA:1559,0
DA:1560,0
DA:1723,0
DA:1725,0
DA:1729,0
DA:1734,0
DA:1735,0
DA:1740,0
DA:2007,0
DA:2009,0
DA:2011,0
DA:2007,0
DA:2009,0
DA:2011,0
LF:20
LH:0
end_of_record
SF:/home/runner/micromamba/envs/moose/x86_64-conda-linux-gnu/include/c++/10.4.0/bits/stl_tree.h
FN:613,_ZNSt8_Rb_treeINSt7__cxx1112basic_stringIcSt11char_traitsIcESaIcEEESt4pairIKS5_N15InputParameters8MetadataEESt10_Select1stISA_ESt4lessIS5_ESaISA_EE17_M_construct_nodeIJRKSt21piecewise_construct_tSt5tupleIJRS7_EESL_IJEEEEEvPSt13_Rb_tree_nodeISA_EDpOT_
FNDA:0,_ZNSt8_Rb_treeINSt7__cxx1112basic_stringIcSt11char_traitsIcESaIcEEESt4pairIKS5_N15InputParameters8MetadataEESt10_Select1stISA_ESt4lessIS5_ESaISA_EE17_M_construct_nodeIJRKSt21piecewise_construct_tSt5tupleIJRS7_EESL_IJEEEEEvPSt13_Rb_tree_nodeISA_EDpOT_
FN:613,_ZNSt8_Rb_treeINSt7__cxx1112basic_stringIcSt11char_traitsIcESaIcEEESt4pairIKS5_St10unique_ptrIN7libMesh10Parameters5ValueESt14default_deleteISB_EEESt10_Select1stISF_ESt4lessIvESaISF_EE17_M_construct_nodeIJRKSt21piecewise_construct_tSt5tupleIJRS7_EESQ_IJEEEEEvPSt13_Rb_tree_nodeISF_EDpOT_
FNDA:0,_ZNSt8_Rb_treeINSt7__cxx1112basic_stringIcSt11char_traitsIcESaIcEEESt4pairIKS5_St10unique_ptrIN7libMesh10Parameters5ValueESt14default_deleteISB_EEESt10_Select1stISF_ESt4lessIvESaISF_EE17_M_construct_nodeIJRKSt21piecewise_construct_tSt5tupleIJRS7_EESQ_IJEEEEEvPSt13_Rb_tree_nodeISF_EDpOT_
FN:632,_ZNSt8_Rb_treeINSt7__cxx1112basic_stringIcSt11char_traitsIcESaIcEEESt4pairIKS5_St10unique_ptrIN7libMesh10Parameters5ValueESt14default_deleteISB_EEESt10_Select1stISF_ESt4lessIvESaISF_EE14_M_create_nodeIJRKSt21piecewise_construct_tSt5tupleIJRS7_EESQ_IJEEEEEPSt13_Rb_tree_nodeISF_EDpOT_
FNDA:0,_ZNSt8_Rb_treeINSt7__cxx1112basic_stringIcSt11char_traitsIcESaIcEEESt4pairIKS5_St10unique_ptrIN7libMesh10Parameters5ValueESt14default_deleteISB_EEESt10_Select1stISF_ESt4lessIvESaISF_EE14_M_create_nodeIJRKSt21piecewise_construct_tSt5tupleIJRS7_EESQ_IJEEEEEPSt13_Rb_tree_nodeISF_EDpOT_
FN:632,_ZNSt8_Rb_treeINSt7__cxx1112basic_stringIcSt11char_traitsIcESaIcEEESt4pairIKS5_N15InputParameters8MetadataEESt10_Select1stISA_ESt4lessIS5_ESaISA_EE14_M_create_nodeIJRKSt21piecewise_construct_tSt5tupleIJRS7_EESL_IJEEEEEPSt13_Rb_tree_nodeISA_EDpOT_
FNDA:0,_ZNSt8_Rb_treeINSt7__cxx1112basic_stringIcSt11char_traitsIcESaIcEEESt4pairIKS5_N15InputParameters8MetadataEESt10_Select1stISA_ESt4lessIS5_ESaISA_EE14_M_create_nodeIJRKSt21piecewise_construct_tSt5tupleIJRS7_EESL_IJEEEEEPSt13_Rb_tree_nodeISA_EDpOT_
FN:652,_ZNSt8_Rb_treeINSt7__cxx1112basic_stringIcSt11char_traitsIcESaIcEEESt4pairIKS5_S5_ESt10_Select1stIS8_ESt4lessIS5_ESaIS8_EE12_M_drop_nodeEPSt13_Rb_tree_nodeIS8_E
FNDA:0,_ZNSt8_Rb_treeINSt7__cxx1112basic_stringIcSt11char_traitsIcESaIcEEESt4pairIKS5_S5_ESt10_Select1stIS8_ESt4lessIS5_ESaIS8_EE12_M_drop_nodeEPSt13_Rb_tree_nodeIS8_E
FN:652,_ZNSt8_Rb_treeI13MooseEnumItemS0_St9_IdentityIS0_ESt4lessIS0_ESaIS0_EE12_M_drop_nodeEPSt13_Rb_tree_nodeIS0_E
FNDA:0,_ZNSt8_Rb_treeI13MooseEnumItemS0_St9_IdentityIS0_ESt4lessIS0_ESaIS0_EE12_M_drop_nodeEPSt13_Rb_tree_nodeIS0_E
FN:652,_ZNSt8_Rb_treeINSt7__cxx1112basic_stringIcSt11char_traitsIcESaIcEEESt4pairIKS5_St10unique_ptrIN7libMesh10Parameters5ValueESt14default_deleteISB_EEESt10_Select1stISF_ESt4lessIvESaISF_EE12_M_drop_nodeEPSt13_Rb_tree_nodeISF_E
FNDA:0,_ZNSt8_Rb_treeINSt7__cxx1112basic_stringIcSt11char_traitsIcESaIcEEESt4pairIKS5_St10unique_ptrIN7libMesh10Parameters5ValueESt14default_deleteISB_EEESt10_Select1stISF_ESt4lessIvESaISF_EE12_M_drop_nodeEPSt13_Rb_tree_nodeISF_E
FN:652,_ZNSt8_Rb_treeINSt7__cxx1112basic_stringIcSt11char_traitsIcESaIcEEESt4pairIKS5_N15InputParameters8MetadataEESt10_Select1stISA_ESt4lessIS5_ESaISA_EE12_M_drop_nodeEPSt13_Rb_tree_nodeISA_E
FNDA:0,_ZNSt8_Rb_treeINSt7__cxx1112basic_stringIcSt11char_traitsIcESaIcEEESt4pairIKS5_N15InputParameters8MetadataEESt10_Select1stISA_ESt4lessIS5_ESaISA_EE12_M_drop_nodeEPSt13_Rb_tree_nodeISA_E
FN:1261,_ZNSt8_Rb_treeINSt7__cxx1112basic_stringIcSt11char_traitsIcESaIcEEESt4pairIKS5_St10unique_ptrIN7libMesh10Parameters5ValueESt14default_deleteISB_EEESt10_Select1stISF_ESt4lessIvESaISF_EE5clearEv
FNDA:0,_ZNSt8_Rb_treeINSt7__cxx1112basic_stringIcSt11char_traitsIcESaIcEEESt4pairIKS5_St10unique_ptrIN7libMesh10Parameters5ValueESt14default_deleteISB_EEESt10_Select1stISF_ESt4lessIvESaISF_EE5clearEv
FN:1312,_ZNKSt8_Rb_treeINSt7__cxx1112basic_stringIcSt11char_traitsIcESaIcEEESt4pairIKS5_St10unique_ptrIN7libMesh10Parameters5ValueESt14default_deleteISB_EEESt10_Select1stISF_ESt4lessIvESaISF_EE10_M_find_trISt17basic_string_viewIcS3_EvEESt23_Rb_tree_const_iteratorISF_ERKT_
FNDA:0,_ZNKSt8_Rb_treeINSt7__cxx1112basic_stringIcSt11char_traitsIcESaIcEEESt4pairIKS5_St10unique_ptrIN7libMesh10Parameters5ValueESt14default_deleteISB_EEESt10_Select1stISF_ESt4lessIvESaISF_EE10_M_find_trISt17basic_string_viewIcS3_EvEESt23_Rb_tree_const_iteratorISF_ERKT_
FN:1341,_ZNKSt8_Rb_treeINSt7__cxx1112basic_stringIcSt11char_traitsIcESaIcEEESt4pairIKS5_St10unique_ptrIN7libMesh10Parameters5ValueESt14default_deleteISB_EEESt10_Select1stISF_ESt4lessIvESaISF_EE17_M_lower_bound_trISt17basic_string_viewIcS3_EvEESt23_Rb_tree_const_iteratorISF_ERKT_
FNDA:0,_ZNKSt8_Rb_treeINSt7__cxx1112basic_stringIcSt11char_traitsIcESaIcEEESt4pairIKS5_St10unique_ptrIN7libMesh10Parameters5ValueESt14default_deleteISB_EEESt10_Select1stISF_ESt4lessIvESaISF_EE17_M_lower_bound_trISt17basic_string_viewIcS3_EvEESt23_Rb_tree_const_iteratorISF_ERKT_
FN:1918,_ZNSt8_Rb_treeINSt7__cxx1112basic_stringIcSt11char_traitsIcESaIcEEESt4pairIKS5_S5_ESt10_Select1stIS8_ESt4lessIS5_ESaIS8_EE8_M_eraseEPSt13_Rb_tree_nodeIS8_E
FNDA:0,_ZNSt8_Rb_treeINSt7__cxx1112basic_stringIcSt11char_traitsIcESaIcEEESt4pairIKS5_S5_ESt10_Select1stIS8_ESt4lessIS5_ESaIS8_EE8_M_eraseEPSt13_Rb_tree_nodeIS8_E
FN:1918,_ZNSt8_Rb_treeINSt7__cxx1112basic_stringIcSt11char_traitsIcESaIcEEESt4pairIKS5_St10unique_ptrIN7libMesh10Parameters5ValueESt14default_deleteISB_EEESt10_Select1stISF_ESt4lessIvESaISF_EE8_M_eraseEPSt13_Rb_tree_nodeISF_E
FNDA:0,_ZNSt8_Rb_treeINSt7__cxx1112basic_stringIcSt11char_traitsIcESaIcEEESt4pairIKS5_St10unique_ptrIN7libMesh10Parameters5ValueESt14default_deleteISB_EEESt10_Select1stISF_ESt4lessIvESaISF_EE8_M_eraseEPSt13_Rb_tree_nodeISF_E
FN:1918,_ZNSt8_Rb_treeIttSt9_IdentityItESt4lessItESaItEE8_M_eraseEPSt13_Rb_tree_nodeItE
FNDA:0,_ZNSt8_Rb_treeIttSt9_IdentityItESt4lessItESaItEE8_M_eraseEPSt13_Rb_tree_nodeItE
FN:1918,_ZNSt8_Rb_treeIssSt9_IdentityIsESt4lessIsESaIsEE8_M_eraseEPSt13_Rb_tree_nodeIsE
FNDA:0,_ZNSt8_Rb_treeIssSt9_IdentityIsESt4lessIsESaIsEE8_M_eraseEPSt13_Rb_tree_nodeIsE
FN:1918,_ZNSt8_Rb_treeINSt7__cxx1112basic_stringIcSt11char_traitsIcESaIcEEES5_St9_IdentityIS5_ESt4lessIS5_ESaIS5_EE8_M_eraseEPSt13_Rb_tree_nodeIS5_E
FNDA:0,_ZNSt8_Rb_treeINSt7__cxx1112basic_stringIcSt11char_traitsIcESaIcEEES5_St9_IdentityIS5_ESt4lessIS5_ESaIS5_EE8_M_eraseEPSt13_Rb_tree_nodeIS5_E
FN:1918,_ZNSt8_Rb_treeI13MooseEnumItemS0_St9_IdentityIS0_ESt4lessIS0_ESaIS0_EE8_M_eraseEPSt13_Rb_tree_nodeIS0_E
FNDA:0,_ZNSt8_Rb_treeI13MooseEnumItemS0_St9_IdentityIS0_ESt4lessIS0_ESaIS0_EE8_M_eraseEPSt13_Rb_tree_nodeIS0_E
FN:1918,_ZNSt8_Rb_treeINSt7__cxx1112basic_stringIcSt11char_traitsIcESaIcEEESt4pairIKS5_N15InputParameters8MetadataEESt10_Select1stISA_ESt4lessIS5_ESaISA_EE8_M_eraseEPSt13_Rb_tree_nodeISA_E
FNDA:0,_ZNSt8_Rb_treeINSt7__cxx1112basic_stringIcSt11char_traitsIcESaIcEEESt4pairIKS5_N15InputParameters8MetadataEESt10_Select1stISA_ESt4lessIS5_ESaISA_EE8_M_eraseEPSt13_Rb_tree_nodeISA_E
FN:1918,_ZNSt8_Rb_treeINSt7__cxx1112basic_stringIcSt11char_traitsIcESaIcEEESt4pairIKS5_S6_IS5_S5_EESt10_Select1stIS9_ESt4lessIS5_ESaIS9_EE8_M_eraseEPSt13_Rb_tree_nodeIS9_E
FNDA:0,_ZNSt8_Rb_treeINSt7__cxx1112basic_stringIcSt11char_traitsIcESaIcEEESt4pairIKS5_S6_IS5_S5_EESt10_Select1stIS9_ESt4lessIS5_ESaIS9_EE8_M_eraseEPSt13_Rb_tree_nodeIS9_E
FN:1935,_ZNSt8_Rb_treeINSt7__cxx1112basic_stringIcSt11char_traitsIcESaIcEEESt4pairIKS5_St10unique_ptrIN7libMesh10Parameters5ValueESt14default_deleteISB_EEESt10_Select1stISF_ESt4lessIvESaISF_EE14_M_lower_boundEPSt13_Rb_tree_nodeISF_EPSt18_Rb_tree_node_baseRS7_
FNDA:0,_ZNSt8_Rb_treeINSt7__cxx1112basic_stringIcSt11char_traitsIcESaIcEEESt4pairIKS5_St10unique_ptrIN7libMesh10Parameters5ValueESt14default_deleteISB_EEESt10_Select1stISF_ESt4lessIvESaISF_EE14_M_lower_boundEPSt13_Rb_tree_nodeISF_EPSt18_Rb_tree_node_baseRS7_
FN:1935,_ZNSt8_Rb_treeINSt7__cxx1112basic_stringIcSt11char_traitsIcESaIcEEESt4pairIKS5_N15InputParameters8MetadataEESt10_Select1stISA_ESt4lessIS5_ESaISA_EE14_M_lower_boundEPSt13_Rb_tree_nodeISA_EPSt18_Rb_tree_node_baseRS7_
FNDA:0,_ZNSt8_Rb_treeINSt7__cxx1112basic_stringIcSt11char_traitsIcESaIcEEESt4pairIKS5_N15InputParameters8MetadataEESt10_Select1stISA_ESt4lessIS5_ESaISA_EE14_M_lower_boundEPSt13_Rb_tree_nodeISA_EPSt18_Rb_tree_node_baseRS7_
FN:1951,_ZNKSt8_Rb_treeINSt7__cxx1112basic_stringIcSt11char_traitsIcESaIcEEESt4pairIKS5_St10unique_ptrIN7libMesh10Parameters5ValueESt14default_deleteISB_EEESt10_Select1stISF_ESt4lessIvESaISF_EE14_M_lower_boundEPKSt13_Rb_tree_nodeISF_EPKSt18_Rb_tree_node_baseRS7_
FNDA:0,_ZNKSt8_Rb_treeINSt7__cxx1112basic_stringIcSt11char_traitsIcESaIcEEESt4pairIKS5_St10unique_ptrIN7libMesh10Parameters5ValueESt14default_deleteISB_EEESt10_Select1stISF_ESt4lessIvESaISF_EE14_M_lower_boundEPKSt13_Rb_tree_nodeISF_EPKSt18_Rb_tree_node_baseRS7_
FN:2096,_ZNSt8_Rb_treeINSt7__cxx1112basic_stringIcSt11char_traitsIcESaIcEEESt4pairIKS5_St10unique_ptrIN7libMesh10Parameters5ValueESt14default_deleteISB_EEESt10_Select1stISF_ESt4lessIvESaISF_EE24_M_get_insert_unique_posERS7_
FNDA:0,_ZNSt8_Rb_treeINSt7__cxx1112basic_stringIcSt11char_traitsIcESaIcEEESt4pairIKS5_St10unique_ptrIN7libMesh10Parameters5ValueESt14default_deleteISB_EEESt10_Select1stISF_ESt4lessIvESaISF_EE24_M_get_insert_unique_posERS7_
FN:2096,_ZNSt8_Rb_treeINSt7__cxx1112basic_stringIcSt11char_traitsIcESaIcEEESt4pairIKS5_N15InputParameters8MetadataEESt10_Select1stISA_ESt4lessIS5_ESaISA_EE24_M_get_insert_unique_posERS7_
FNDA:0,_ZNSt8_Rb_treeINSt7__cxx1112basic_stringIcSt11char_traitsIcESaIcEEESt4pairIKS5_N15InputParameters8MetadataEESt10_Select1stISA_ESt4lessIS5_ESaISA_EE24_M_get_insert_unique_posERS7_
FN:2198,_ZNSt8_Rb_treeINSt7__cxx1112basic_stringIcSt11char_traitsIcESaIcEEESt4pairIKS5_N15InputParameters8MetadataEESt10_Select1stISA_ESt4lessIS5_ESaISA_EE29_M_get_insert_hint_unique_posESt23_Rb_tree_const_iteratorISA_ERS7_
FNDA:0,_ZNSt8_Rb_treeINSt7__cxx1112basic_stringIcSt11char_traitsIcESaIcEEESt4pairIKS5_N15InputParameters8MetadataEESt10_Select1stISA_ESt4lessIS5_ESaISA_EE29_M_get_insert_hint_unique_posESt23_Rb_tree_const_iteratorISA_ERS7_
FN:2198,_ZNSt8_Rb_treeINSt7__cxx1112basic_stringIcSt11char_traitsIcESaIcEEESt4pairIKS5_St10unique_ptrIN7libMesh10Parameters5ValueESt14default_deleteISB_EEESt10_Select1stISF_ESt4lessIvESaISF_EE29_M_get_insert_hint_unique_posESt23_Rb_tree_const_iteratorISF_ERS7_
FNDA:0,_ZNSt8_Rb_treeINSt7__cxx1112basic_stringIcSt11char_traitsIcESaIcEEESt4pairIKS5_St10unique_ptrIN7libMesh10Parameters5ValueESt14default_deleteISB_EEESt10_Select1stISF_ESt4lessIvESaISF_EE29_M_get_insert_hint_unique_posESt23_Rb_tree_const_iteratorISF_ERS7_
FN:2365,_ZNSt8_Rb_treeINSt7__cxx1112basic_stringIcSt11char_traitsIcESaIcEEESt4pairIKS5_N15InputParameters8MetadataEESt10_Select1stISA_ESt4lessIS5_ESaISA_EE14_M_insert_nodeEPSt18_Rb_tree_node_baseSI_PSt13_Rb_tree_nodeISA_E
FNDA:0,_ZNSt8_Rb_treeINSt7__cxx1112basic_stringIcSt11char_traitsIcESaIcEEESt4pairIKS5_N15InputParameters8MetadataEESt10_Select1stISA_ESt4lessIS5_ESaISA_EE14_M_insert_nodeEPSt18_Rb_tree_node_baseSI_PSt13_Rb_tree_nodeISA_E
FN:2365,_ZNSt8_Rb_treeINSt7__cxx1112basic_stringIcSt11char_traitsIcESaIcEEESt4pairIKS5_St10unique_ptrIN7libMesh10Parameters5ValueESt14default_deleteISB_EEESt10_Select1stISF_ESt4lessIvESaISF_EE14_M_insert_nodeEPSt18_Rb_tree_node_baseSN_PSt13_Rb_tree_nodeISF_E
FNDA:0,_ZNSt8_Rb_treeINSt7__cxx1112basic_stringIcSt11char_traitsIcESaIcEEESt4pairIKS5_St10unique_ptrIN7libMesh10Parameters5ValueESt14default_deleteISB_EEESt10_Select1stISF_ESt4lessIvESaISF_EE14_M_insert_nodeEPSt18_Rb_tree_node_baseSN_PSt13_Rb_tree_nodeISF_E
FN:2463,_ZNSt8_Rb_treeINSt7__cxx1112basic_stringIcSt11char_traitsIcESaIcEEESt4pairIKS5_N15InputParameters8MetadataEESt10_Select1stISA_ESt4lessIS5_ESaISA_EE22_M_emplace_hint_uniqueIJRKSt21piecewise_construct_tSt5tupleIJRS7_EESL_IJEEEEESt17_Rb_tree_iteratorISA_ESt23_Rb_tree_const_iteratorISA_EDpOT_
FNDA:0,_ZNSt8_Rb_treeINSt7__cxx1112basic_stringIcSt11char_traitsIcESaIcEEESt4pairIKS5_N15InputParameters8MetadataEESt10_Select1stISA_ESt4lessIS5_ESaISA_EE22_M_emplace_hint_uniqueIJRKSt21piecewise_construct_tSt5tupleIJRS7_EESL_IJEEEEESt17_Rb_tree_iteratorISA_ESt23_Rb_tree_const_iteratorISA_EDpOT_
FN:2463,_ZNSt8_Rb_treeINSt7__cxx1112basic_stringIcSt11char_traitsIcESaIcEEESt4pairIKS5_St10unique_ptrIN7libMesh10Parameters5ValueESt14default_deleteISB_EEESt10_Select1stISF_ESt4lessIvESaISF_EE22_M_emplace_hint_uniqueIJRKSt21piecewise_construct_tSt5tupleIJRS7_EESQ_IJEEEEESt17_Rb_tree_iteratorISF_ESt23_Rb_tree_const_iteratorISF_EDpOT_
FNDA:0,_ZNSt8_Rb_treeINSt7__cxx1112basic_stringIcSt11char_traitsIcESaIcEEESt4pairIKS5_St10unique_ptrIN7libMesh10Parameters5ValueESt14default_deleteISB_EEESt10_Select1stISF_ESt4lessIvESaISF_EE22_M_emplace_hint_uniqueIJRKSt21piecewise_construct_tSt5tupleIJRS7_EESQ_IJEEEEESt17_Rb_tree_iteratorISF_ESt23_Rb_tree_const_iteratorISF_EDpOT_
FN:2568,_ZNKSt8_Rb_treeINSt7__cxx1112basic_stringIcSt11char_traitsIcESaIcEEESt4pairIKS5_St10unique_ptrIN7libMesh10Parameters5ValueESt14default_deleteISB_EEESt10_Select1stISF_ESt4lessIvESaISF_EE4findERS7_
FNDA:0,_ZNKSt8_Rb_treeINSt7__cxx1112basic_stringIcSt11char_traitsIcESaIcEEESt4pairIKS5_St10unique_ptrIN7libMesh10Parameters5ValueESt14default_deleteISB_EEESt10_Select1stISF_ESt4lessIvESaISF_EE4findERS7_
FNF:31
FNH:0
DA:208,0
DA:209,0
DA:210,0
DA:211,0
DA:287,0
DA:302,0
DA:303,0
DA:350,0
DA:351,0
DA:355,0
DA:368,0
DA:369,0
DA:571,0
DA:613,0
DA:622,0
DA:624,0
DA:626,0
DA:628,0
DA:613,0
DA:622,0
DA:624,0
DA:626,0
DA:628,0
DA:632,0
DA:635,0
DA:636,0
DA:632,0
DA:635,0
DA:636,0
DA:647,0
DA:652,0
DA:656,0
DA:652,0
DA:656,0
DA:652,0
DA:656,0
DA:652,0
DA:656,0
DA:751,0
DA:757,0
DA:762,0
DA:766,0
DA:792,0
DA:796,0
DA:800,0
DA:804,0
DA:993,0
DA:1005,0
DA:1009,0
DA:1013,0
DA:1017,0
DA:1041,0
DA:1261,0
DA:1263,0
DA:1265,0
DA:1279,0
DA:1312,0
DA:1314,0
DA:1315,0
DA:1317,0
DA:1341,0
DA:1345,0
DA:1346,0
DA:1353,0
DA:1918,0
DA:1922,0
DA:1924,0
DA:1926,0
DA:1929,0
DA:1918,0
DA:1922,0
DA:1924,0
DA:1929,0
DA:1918,0
DA:1922,0
DA:1924,0
DA:1926,0
DA:1929,0
DA:1918,0
DA:1922,0
DA:1924,0
DA:1926,0
DA:1929,0
DA:1918,0
DA:1922,0
DA:1924,0
DA:1929,0
DA:1918,0
DA:1922,0
DA:1924,0
DA:1929,0
DA:1918,0
DA:1922,0
DA:1924,0
DA:1929,0
DA:1918,0
DA:1922,0
DA:1924,0
DA:1926,0
DA:1929,0
DA:1935,0
DA:1939,0
DA:1940,0
DA:1944,0
DA:1935,0
DA:1939,0
DA:1940,0
DA:1944,0
DA:1951,0
DA:1955,0
DA:1956,0
DA:1960,0
DA:2096,0
DA:2103,0
DA:2107,0
DA:2110,0
DA:2112,0
DA:2113,0
DA:2117,0
DA:2118,0
DA:2119,0
DA:2096,0
DA:2103,0
DA:2107,0
DA:2110,0
DA:2112,0
DA:2113,0
DA:2117,0
DA:2118,0
DA:2119,0
DA:2198,0
DA:2206,0
DA:2209,0
DA:2210,0
DA:2212,0
DA:2214,0
DA:2218,0
DA:2219,0
DA:2220,0
DA:2222,0
DA:2223,0
DA:2225,0
DA:2228,0
DA:2230,0
DA:2234,0
DA:2235,0
DA:2236,0
DA:2238,0
DA:2239,0
DA:2241,0
DA:2244,0
DA:2248,0
DA:2198,0
DA:2206,0
DA:2209,0
DA:2210,0
DA:2212,0
DA:2214,0
DA:2218,0
DA:2219,0
DA:2220,0
DA:2222,0
DA:2223,0
DA:2225,0
DA:2228,0
DA:2230,0
DA:2234,0
DA:2235,0
DA:2236,0
DA:2238,0
DA:2239,0
DA:2241,0
DA:2244,0
DA:2248,0
DA:2365,0
DA:2368,0
DA:2369,0
DA:2372,0
DA:2373,0
DA:2374,0
DA:2375,0
DA:2365,0
DA:2368,0
DA:2369,0
DA:2372,0
DA:2373,0
DA:2374,0
DA:2375,0
DA:2463,0
DA:2466,0
DA:2470,0
DA:2472,0
DA:2473,0
DA:2475,0
DA:2476,0
DA:2463,0
DA:2466,0
DA:2470,0
DA:2472,0
DA:2473,0
DA:2475,0
DA:2476,0
DA:2568,0
DA:2571,0
DA:2573,0
DA:2574,0
LF:206
LH:0
end_of_record
SF:/home/runner/micromamba/envs/moose/x86_64-conda-linux-gnu/include/c++/10.4.0/bits/char_traits.h
DA:357,0
DA:374,0
DA:389,0
DA:399,9514
LF:4
LH:1
end_of_record
SF:/home/runner/micromamba/envs/moose/libmesh/include/libmesh/parameters.h
FN:85,_ZN7libMesh10ParametersD0Ev
FNDA:0,_ZN7libMesh10ParametersD0Ev
FN:85,_ZN7libMesh10ParametersD2Ev
FNDA:0,_ZN7libMesh10ParametersD2Ev
FN:138,_ZN7libMesh10Parameters14set_attributesERKNSt7__cxx1112basic_stringIcSt11char_traitsIcESaIcEEEb
FNDA:0,_ZN7libMesh10Parameters14set_attributesERKNSt7__cxx1112basic_stringIcSt11char_traitsIcESaIcEEEb
FN:295,_ZNK7libMesh10Parameters9ParameterINSt7__cxx1112basic_stringIcSt11char_traitsIcESaIcEEEE4typeEv
FNDA:0,_ZNK7libMesh10Parameters9ParameterINSt7__cxx1112basic_stringIcSt11char_traitsIcESaIcEEEE4typeEv
FN:303,_ZNK7libMesh10Parameters9ParameterINSt7__cxx1112basic_stringIcSt11char_traitsIcESaIcEEEE5printERSo
FNDA:0,_ZNK7libMesh10Parameters9ParameterINSt7__cxx1112basic_stringIcSt11char_traitsIcESaIcEEEE5printERSo
FN:311,_ZNK7libMesh10Parameters9ParameterINSt7__cxx1112basic_stringIcSt11char_traitsIcESaIcEEEE5cloneEv
FNDA:0,_ZNK7libMesh10Parameters9ParameterINSt7__cxx1112basic_stringIcSt11char_traitsIcESaIcEEEE5cloneEv
FN:324,_ZN7libMesh10Parameters5clearEv
FNDA:0,_ZN7libMesh10Parameters5clearEv
FN:332,_ZN7libMesh10ParametersaSERKS0_
FNDA:0,_ZN7libMesh10ParametersaSERKS0_
FN:341,_ZN7libMesh10ParameterspLERKS0_
FNDA:0,_ZN7libMesh10ParameterspLERKS0_
FN:360,_ZNK7libMesh10Parameters5printERSo
FNDA:0,_ZNK7libMesh10Parameters5printERSo
FN:395,_ZNK7libMesh10Parameters14have_parameterI20MaterialPropertyNameEEbSt17basic_string_viewIcSt11char_traitsIcEE
FNDA:0,_ZNK7libMesh10Parameters14have_parameterI20MaterialPropertyNameEEbSt17basic_string_viewIcSt11char_traitsIcEE
FN:395,_ZNK7libMesh10Parameters14have_parameterINSt7__cxx1112basic_stringIcSt11char_traitsIcESaIcEEEEEbSt17basic_string_viewIcS5_E
FNDA:0,_ZNK7libMesh10Parameters14have_parameterINSt7__cxx1112basic_stringIcSt11char_traitsIcESaIcEEEEEbSt17basic_string_viewIcS5_E
FN:426,_ZNK7libMesh10Parameters3getI20MaterialPropertyNameEERKT_St17basic_string_viewIcSt11char_traitsIcEE
FNDA:0,_ZNK7libMesh10Parameters3getI20MaterialPropertyNameEERKT_St17basic_string_viewIcSt11char_traitsIcEE
FN:426,_ZNK7libMesh10Parameters3getINSt7__cxx1112basic_stringIcSt11char_traitsIcESaIcEEEEERKT_St17basic_string_viewIcS5_E
FNDA:0,_ZNK7libMesh10Parameters3getINSt7__cxx1112basic_stringIcSt11char_traitsIcESaIcEEEEERKT_St17basic_string_viewIcS5_E
FN:458,_ZN7libMesh10Parameters6insertINSt7__cxx1112basic_stringIcSt11char_traitsIcESaIcEEEEEvRKS7_
FNDA:0,_ZN7libMesh10Parameters6insertINSt7__cxx1112basic_stringIcSt11char_traitsIcESaIcEEEEEvRKS7_
FNF:15
FNH:0
DA:85,0
DA:85,0
DA:85,0
DA:138,0
DA:206,0
DA:213,0
DA:295,0
DA:297,0
DA:303,0
DA:307,0
DA:311,0
DA:313,0
DA:315,0
DA:317,0
DA:324,0
DA:327,0
DA:332,0
DA:335,0
DA:337,0
DA:341,0
DA:344,0
DA:345,0
DA:347,0
DA:360,0
DA:365,0
DA:366,0
DA:370,0
DA:372,0
DA:373,0
DA:377,0
DA:387,0
DA:388,0
DA:395,0
DA:399,0
DA:403,0
DA:404,0
DA:395,0
DA:399,0
DA:403,0
DA:404,0
DA:426,0
DA:428,0
DA:430,0
DA:432,0
DA:434,0
DA:438,0
DA:441,0
DA:453,0
DA:426,0
DA:428,0
DA:430,0
DA:432,0
DA:434,0
DA:438,0
DA:441,0
DA:453,0
DA:458,0
DA:460,0
DA:461,0
DA:463,0
DA:464,0
LF:61
LH:0
end_of_record
SF:/home/runner/micromamba/envs/moose/libmesh/include/libmesh/reference_counter.h
DA:152,0
LF:1
LH:0
end_of_record
SF:/home/runner/micromamba/envs/moose/x86_64-conda-linux-gnu/include/c++/10.4.0/bits/stl_set.h
FN:281,_ZNSt3setIsSt4lessIsESaIsEED2Ev
FNDA:0,_ZNSt3setIsSt4lessIsESaIsEED2Ev
FN:281,_ZNSt3setItSt4lessItESaItEED2Ev
FNDA:0,_ZNSt3setItSt4lessItESaItEED2Ev
FNF:2
FNH:0
DA:281,0
DA:281,0
DA:281,0
LF:3
LH:0
end_of_record
SF:/home/runner/micromamba/envs/moose/libmesh/include/timpi/message_tag.h
LF:0
LH:0
end_of_record
SF:/home/runner/micromamba/envs/moose/x86_64-conda-linux-gnu/include/c++/10.4.0/bits/stl_map.h
FN:492,_ZNSt3mapINSt7__cxx1112basic_stringIcSt11char_traitsIcESaIcEEEN15InputParameters8MetadataESt4lessIS5_ESaISt4pairIKS5_S7_EEEixERSB_
FNDA:0,_ZNSt3mapINSt7__cxx1112basic_stringIcSt11char_traitsIcESaIcEEEN15InputParameters8MetadataESt4lessIS5_ESaISt4pairIKS5_S7_EEEixERSB_
FN:492,_ZNSt3mapINSt7__cxx1112basic_stringIcSt11char_traitsIcESaIcEEESt10unique_ptrIN7libMesh10Parameters5ValueESt14default_deleteIS9_EESt4lessIvESaISt4pairIKS5_SC_EEEixERSG_
FNDA:0,_ZNSt3mapINSt7__cxx1112basic_stringIcSt11char_traitsIcESaIcEEESt10unique_ptrIN7libMesh10Parameters5ValueESt14default_deleteIS9_EESt4lessIvESaISt4pairIKS5_SC_EEEixERSG_
FN:1258,_ZNSt3mapINSt7__cxx1112basic_stringIcSt11char_traitsIcESaIcEEEN15InputParameters8MetadataESt4lessIS5_ESaISt4pairIKS5_S7_EEE11lower_boundERSB_
FNDA:0,_ZNSt3mapINSt7__cxx1112basic_stringIcSt11char_traitsIcESaIcEEEN15InputParameters8MetadataESt4lessIS5_ESaISt4pairIKS5_S7_EEE11lower_boundERSB_
FN:1258,_ZNSt3mapINSt7__cxx1112basic_stringIcSt11char_traitsIcESaIcEEESt10unique_ptrIN7libMesh10Parameters5ValueESt14default_deleteIS9_EESt4lessIvESaISt4pairIKS5_SC_EEE11lower_boundERSG_
FNDA:0,_ZNSt3mapINSt7__cxx1112basic_stringIcSt11char_traitsIcESaIcEEESt10unique_ptrIN7libMesh10Parameters5ValueESt14default_deleteIS9_EESt4lessIvESaISt4pairIKS5_SC_EEE11lower_boundERSG_
FNF:4
FNH:0
DA:302,0
DA:492,0
DA:497,0
DA:499,0
DA:501,0
DA:502,0
DA:503,0
DA:507,0
DA:492,0
DA:497,0
DA:499,0
DA:501,0
DA:502,0
DA:503,0
DA:507,0
DA:1134,0
DA:1195,0
DA:1201,0
DA:1258,0
DA:1259,0
DA:1258,0
DA:1259,0
LF:22
LH:0
end_of_record
SF:/home/runner/micromamba/envs/moose/x86_64-conda-linux-gnu/include/c++/10.4.0/bits/stl_algobase.h
DA:235,0
DA:236,0
DA:259,3
DA:260,3
DA:425,0
DA:426,0
LF:6
LH:2
end_of_record
SF:/home/runner/micromamba/envs/moose/x86_64-conda-linux-gnu/include/c++/10.4.0/utility
DA:189,0
LF:1
LH:0
end_of_record
SF:/home/runner/micromamba/envs/moose/x86_64-conda-linux-gnu/include/c++/10.4.0/bits/hashtable.h
FN:425,_ZNSt10_HashtableINSt7__cxx1112basic_stringIcSt11char_traitsIcESaIcEEESt4pairIKS5_S5_ESaIS8_ENSt8__detail10_Select1stESt8equal_toIS5_ESt4hashIS5_ENSA_18_Mod_range_hashingENSA_20_Default_ranged_hashENSA_20_Prime_rehash_policyENSA_17_Hashtable_traitsILb1ELb0ELb1EEEE21_M_deallocate_bucketsEv
FNDA:0,_ZNSt10_HashtableINSt7__cxx1112basic_stringIcSt11char_traitsIcESaIcEEESt4pairIKS5_S5_ESaIS8_ENSt8__detail10_Select1stESt8equal_toIS5_ESt4hashIS5_ENSA_18_Mod_range_hashingENSA_20_Default_ranged_hashENSA_20_Prime_rehash_policyENSA_17_Hashtable_traitsILb1ELb0ELb1EEEE21_M_deallocate_bucketsEv
FN:2081,_ZNSt10_HashtableINSt7__cxx1112basic_stringIcSt11char_traitsIcESaIcEEESt4pairIKS5_S5_ESaIS8_ENSt8__detail10_Select1stESt8equal_toIS5_ESt4hashIS5_ENSA_18_Mod_range_hashingENSA_20_Default_ranged_hashENSA_20_Prime_rehash_policyENSA_17_Hashtable_traitsILb1ELb0ELb1EEEE5clearEv
FNDA:0,_ZNSt10_HashtableINSt7__cxx1112basic_stringIcSt11char_traitsIcESaIcEEESt4pairIKS5_S5_ESaIS8_ENSt8__detail10_Select1stESt8equal_toIS5_ESt4hashIS5_ENSA_18_Mod_range_hashingENSA_20_Default_ranged_hashENSA_20_Prime_rehash_policyENSA_17_Hashtable_traitsILb1ELb0ELb1EEEE5clearEv
FNF:2
FNH:0
DA:394,0
DA:418,0
DA:425,0
DA:426,0
DA:435,0
DA:1442,0
DA:1443,0
DA:2081,0
DA:2086,0
DA:2087,0
DA:2088,0
DA:2089,0
LF:12
LH:0
end_of_record
SF:/home/runner/micromamba/envs/moose/x86_64-conda-linux-gnu/include/c++/10.4.0/bits/stl_function.h
FN:600,_ZNSt4lessIvE6_S_cmpIRKNSt7__cxx1112basic_stringIcSt11char_traitsIcESaIcEEERKSt17basic_string_viewIcS5_EEEDcOT_OT0_St17integral_constantIbLb0EE
FNDA:0,_ZNSt4lessIvE6_S_cmpIRKNSt7__cxx1112basic_stringIcSt11char_traitsIcESaIcEEERKSt17basic_string_viewIcS5_EEEDcOT_OT0_St17integral_constantIbLb0EE
FN:600,_ZNSt4lessIvE6_S_cmpIRKSt17basic_string_viewIcSt11char_traitsIcEERKNSt7__cxx1112basic_stringIcS4_SaIcEEEEEDcOT_OT0_St17integral_constantIbLb0EE
FNDA:0,_ZNSt4lessIvE6_S_cmpIRKSt17basic_string_viewIcSt11char_traitsIcEERKNSt7__cxx1112basic_stringIcS4_SaIcEEEEEDcOT_OT0_St17integral_constantIbLb0EE
FNF:2
FNH:0
DA:586,0
DA:600,0
DA:601,0
DA:600,0
DA:601,0
DA:1156,0
LF:6
LH:0
end_of_record
SF:/home/runner/micromamba/envs/moose/x86_64-conda-linux-gnu/include/c++/10.4.0/initializer_list
DA:71,0
DA:79,0
LF:2
LH:0
end_of_record
SF:/home/runner/micromamba/envs/moose/x86_64-conda-linux-gnu/include/c++/10.4.0/bits/basic_string.tcc
FN:206,_ZNSt7__cxx1112basic_stringIcSt11char_traitsIcESaIcEE12_M_constructIPcEEvT_S7_St20forward_iterator_tag
FNDA:1530,_ZNSt7__cxx1112basic_stringIcSt11char_traitsIcESaIcEE12_M_constructIPcEEvT_S7_St20forward_iterator_tag
FN:206,_ZNSt7__cxx1112basic_stringIcSt11char_traitsIcESaIcEE12_M_constructIPKcEEvT_S8_St20forward_iterator_tag
FNDA:9514,_ZNSt7__cxx1112basic_stringIcSt11char_traitsIcESaIcEE12_M_constructIPKcEEvT_S8_St20forward_iterator_tag
FNF:2
FNH:2
DA:206,1530
DA:211,1530
DA:212,0
DA:215,1530
DA:217,1530
DA:219,459
DA:220,459
DA:232,1530
DA:233,1530
DA:206,9514
DA:211,9514
DA:212,0
DA:215,9514
DA:217,9514
DA:219,4348
DA:220,4348
DA:232,9514
DA:233,9514
LF:18
LH:16
end_of_record
SF:/home/runner/micromamba/envs/moose/x86_64-conda-linux-gnu/include/c++/10.4.0/bits/stl_vector.h
FN:333,_ZNSt12_Vector_baseISt5tupleIJNSt7__cxx1112basic_stringIcSt11char_traitsIcESaIcEEEN5Moose23RelationshipManagerTypeESt8functionIFvRK15InputParametersRSA_EEEESaISG_EED2Ev
FNDA:0,_ZNSt12_Vector_baseISt5tupleIJNSt7__cxx1112basic_stringIcSt11char_traitsIcESaIcEEEN5Moose23RelationshipManagerTypeESt8functionIFvRK15InputParametersRSA_EEEESaISG_EED2Ev
FN:333,_ZNSt12_Vector_baseINSt7__cxx1112basic_stringIcSt11char_traitsIcESaIcEEESaIS5_EED2Ev
FNDA:0,_ZNSt12_Vector_baseINSt7__cxx1112basic_stringIcSt11char_traitsIcESaIcEEESaIS5_EED2Ev
FN:333,_ZNSt12_Vector_baseIdSaIdEED2Ev
FNDA:0,_ZNSt12_Vector_baseIdSaIdEED2Ev
FN:333,_ZNSt12_Vector_baseI20MaterialPropertyNameSaIS0_EED2Ev
FNDA:0,_ZNSt12_Vector_baseI20MaterialPropertyNameSaIS0_EED2Ev
FN:625,_ZNSt6vectorIdSaIdEEC2ESt16initializer_listIdERKS0_
FNDA:0,_ZNSt6vectorIdSaIdEEC2ESt16initializer_listIdERKS0_
FN:678,_ZNSt6vectorISt5tupleIJNSt7__cxx1112basic_stringIcSt11char_traitsIcESaIcEEEN5Moose23RelationshipManagerTypeESt8functionIFvRK15InputParametersRSA_EEEESaISG_EED2Ev
FNDA:0,_ZNSt6vectorISt5tupleIJNSt7__cxx1112basic_stringIcSt11char_traitsIcESaIcEEEN5Moose23RelationshipManagerTypeESt8functionIFvRK15InputParametersRSA_EEEESaISG_EED2Ev
FN:678,_ZNSt6vectorINSt7__cxx1112basic_stringIcSt11char_traitsIcESaIcEEESaIS5_EED2Ev
FNDA:0,_ZNSt6vectorINSt7__cxx1112basic_stringIcSt11char_traitsIcESaIcEEESaIS5_EED2Ev
FN:678,_ZNSt6vectorI20MaterialPropertyNameSaIS0_EED2Ev
FNDA:0,_ZNSt6vectorI20MaterialPropertyNameSaIS0_EED2Ev
FN:1187,_ZNSt6vectorI20MaterialPropertyNameSaIS0_EE9push_backERKS0_
FNDA:3,_ZNSt6vectorI20MaterialPropertyNameSaIS0_EE9push_backERKS0_
FN:1577,_ZNSt6vectorIdSaIdEE19_M_range_initializeIPKdEEvT_S5_St20forward_iterator_tag
FNDA:0,_ZNSt6vectorIdSaIdEE19_M_range_initializeIPKdEEvT_S5_St20forward_iterator_tag
FN:1756,_ZNKSt6vectorI20MaterialPropertyNameSaIS0_EE12_M_check_lenEmPKc
FNDA:3,_ZNKSt6vectorI20MaterialPropertyNameSaIS0_EE12_M_check_lenEmPKc
FNF:11
FNH:2
DA:97,0
DA:98,48
DA:277,3
DA:333,0
DA:336,0
DA:337,0
DA:333,0
DA:336,0
DA:337,0
DA:333,0
DA:336,0
DA:337,0
DA:333,0
DA:336,0
DA:337,0
DA:346,3
DA:353,3
DA:625,0
DA:627,0
DA:629,0
DA:631,0
DA:678,0
DA:680,0
DA:683,0
DA:678,0
DA:680,0
DA:683,0
DA:678,0
DA:680,0
DA:683,0
DA:919,3
DA:1187,3
DA:1189,3
DA:1194,0
DA:1198,3
DA:1199,3
DA:1577,0
DA:1580,0
DA:1582,0
DA:1583,0
DA:1584,0
DA:1588,0
DA:1756,3
DA:1758,3
DA:1759,0
DA:1761,3
DA:1762,3
DA:1769,0
DA:1770,0
LF:49
LH:13
end_of_record
SF:/home/runner/micromamba/envs/moose/x86_64-conda-linux-gnu/include/c++/10.4.0/bits/unique_ptr.h
FN:165,_ZNSt15__uniq_ptr_implIN7libMesh10Parameters5ValueESt14default_deleteIS2_EEaSEOS5_
FNDA:0,_ZNSt15__uniq_ptr_implIN7libMesh10Parameters5ValueESt14default_deleteIS2_EEaSEOS5_
FN:355,_ZNSt10unique_ptrIN7libMesh10Parameters9ParameterINSt7__cxx1112basic_stringIcSt11char_traitsIcESaIcEEEEESt14default_deleteIS9_EED2Ev
FNDA:0,_ZNSt10unique_ptrIN7libMesh10Parameters9ParameterINSt7__cxx1112basic_stringIcSt11char_traitsIcESaIcEEEEESt14default_deleteIS9_EED2Ev
FN:355,_ZNSt10unique_ptrIN7libMesh10Parameters5ValueESt14default_deleteIS2_EED2Ev
FNDA:0,_ZNSt10unique_ptrIN7libMesh10Parameters5ValueESt14default_deleteIS2_EED2Ev
FN:386,_ZNSt10unique_ptrIN7libMesh10Parameters5ValueESt14default_deleteIS2_EEaSINS1_9ParameterINSt7__cxx1112basic_stringIcSt11char_traitsIcESaIcEEEEES3_ISE_EEENSt9enable_ifIXsrSt6__and_IJSH_IJSt14is_convertibleINS_IT_T0_E7pointerEPS2_ESt6__not_ISt8is_arrayISJ_EEEESt13is_assignableIRS4_OSK_EEE5valueERS5_E4typeEOSL_
FNDA:0,_ZNSt10unique_ptrIN7libMesh10Parameters5ValueESt14default_deleteIS2_EEaSINS1_9ParameterINSt7__cxx1112basic_stringIcSt11char_traitsIcESaIcEEEEES3_ISE_EEENSt9enable_ifIXsrSt6__and_IJSH_IJSt14is_convertibleINS_IT_T0_E7pointerEPS2_ESt6__not_ISt8is_arrayISJ_EEEESt13is_assignableIRS4_OSK_EEE5valueERS5_E4typeEOSL_
FN:961,_ZSt11make_uniqueIN7libMesh10Parameters9ParameterINSt7__cxx1112basic_stringIcSt11char_traitsIcESaIcEEEEEJEENSt9_MakeUniqIT_E15__single_objectEDpOT0_
FNDA:0,_ZSt11make_uniqueIN7libMesh10Parameters9ParameterINSt7__cxx1112basic_stringIcSt11char_traitsIcESaIcEEEEEJEENSt9_MakeUniqIT_E15__single_objectEDpOT0_
FNF:5
FNH:0
DA:85,0
DA:86,0
DA:155,0
DA:165,0
DA:169,0
DA:173,0
DA:179,0
DA:180,0
DA:181,0
DA:187,0
DA:188,0
DA:212,0
DA:355,0
DA:360,0
DA:363,0
DA:355,0
DA:360,0
DA:363,0
DA:386,0
DA:390,0
DA:961,0
DA:962,0
LF:22
LH:0
end_of_record
SF:/home/runner/micromamba/envs/moose/x86_64-conda-linux-gnu/include/c++/10.4.0/iostream
LF:0
LH:0
end_of_record
SF:/home/runner/work/raccoon/raccoon/build/header_symlinks/BaseNameInterface.h
FN:15,_ZN17BaseNameInterfaceD0Ev
FNDA:0,_ZN17BaseNameInterfaceD0Ev
FN:15,_ZN17BaseNameInterfaceD2Ev
FNDA:0,_ZN17BaseNameInterfaceD2Ev
FNF:2
FNH:0
DA:15,0
DA:15,0
LF:2
LH:0
end_of_record
SF:/home/runner/micromamba/envs/moose/x86_64-conda-linux-gnu/include/c++/10.4.0/bits/hashtable_policy.h
FN:2052,_ZNSt8__detail16_Hashtable_allocISaINS_10_Hash_nodeISt4pairIKNSt7__cxx1112basic_stringIcSt11char_traitsIcESaIcEEES8_ELb1EEEEE18_M_deallocate_nodeEPSB_
FNDA:0,_ZNSt8__detail16_Hashtable_allocISaINS_10_Hash_nodeISt4pairIKNSt7__cxx1112basic_stringIcSt11char_traitsIcESaIcEEES8_ELb1EEEEE18_M_deallocate_nodeEPSB_
FNF:1
FNH:0
DA:270,0
DA:2052,0
DA:2056,0
DA:2064,0
DA:2072,0
DA:2076,0
DA:2101,0
LF:7
LH:0
end_of_record
SF:/home/runner/work/raccoon/raccoon/moose/framework/build/header_symlinks/MooseTypes.h
DA:1108,1533
LF:1
LH:1
end_of_record
SF:/home/runner/micromamba/envs/moose/x86_64-conda-linux-gnu/include/c++/10.4.0/bits/vector.tcc
FN:426,_ZNSt6vectorI20MaterialPropertyNameSaIS0_EE17_M_realloc_insertIJRKS0_EEEvN9__gnu_cxx17__normal_iteratorIPS0_S2_EEDpOT_
FNDA:3,_ZNSt6vectorI20MaterialPropertyNameSaIS0_EE17_M_realloc_insertIJRKS0_EEEvN9__gnu_cxx17__normal_iteratorIPS0_S2_EEDpOT_
FNF:1
FNH:1
DA:426,3
DA:436,3
DA:437,3
DA:438,3
DA:449,3
DA:450,3
DA:464,3
DA:485,0
DA:487,0
DA:493,0
DA:501,3
DA:502,3
DA:503,3
DA:504,3
DA:505,3
LF:15
LH:12
end_of_record
SF:/home/runner/micromamba/envs/moose/x86_64-conda-linux-gnu/include/c++/10.4.0/bits/basic_string.h
FN:533,_ZNSt7__cxx1112basic_stringIcSt11char_traitsIcESaIcEEC2IS3_EEPKcRKS3_
FNDA:9514,_ZNSt7__cxx1112basic_stringIcSt11char_traitsIcESaIcEEC2IS3_EEPKcRKS3_
FN:663,_ZNSt7__cxx1112basic_stringIcSt11char_traitsIcESaIcEEC2ISt17basic_string_viewIcS2_EvEERKT_RKS3_
FNDA:0,_ZNSt7__cxx1112basic_stringIcSt11char_traitsIcESaIcEEC2ISt17basic_string_viewIcS2_EvEERKT_RKS3_
FN:1483,_ZNSt7__cxx1112basic_stringIcSt11char_traitsIcESaIcEE6assignIPcvEERS4_T_S8_
FNDA:0,_ZNSt7__cxx1112basic_stringIcSt11char_traitsIcESaIcEE6assignIPcvEERS4_T_S8_
FN:6044,_ZStplIcSt11char_traitsIcESaIcEENSt7__cxx1112basic_stringIT_T0_T1_EERKS8_SA_
FNDA:0,_ZStplIcSt11char_traitsIcESaIcEENSt7__cxx1112basic_stringIT_T0_T1_EERKS8_SA_
FN:6081,_ZStplIcSt11char_traitsIcESaIcEENSt7__cxx1112basic_stringIT_T0_T1_EERKS8_PKS5_
FNDA:0,_ZStplIcSt11char_traitsIcESaIcEENSt7__cxx1112basic_stringIT_T0_T1_EERKS8_PKS5_
FNF:5
FNH:1
DA:164,9514
DA:165,9514
DA:167,0
DA:168,0
DA:187,4807
DA:191,11044
DA:195,22934
DA:201,9514
DA:211,0
DA:219,4807
DA:225,11044
DA:255,0
DA:401,1530
DA:406,9514
DA:439,0
DA:518,0
DA:521,0
DA:533,9514
DA:536,9514
DA:539,9514
DA:540,9514
DA:565,0
DA:568,0
DA:576,0
DA:663,0
DA:664,0
DA:671,6284
DA:680,0
DA:827,0
DA:915,846
DA:921,0
DA:1206,0
DA:1379,0
DA:1483,0
DA:1484,0
DA:6044,0
DA:6047,0
DA:6049,0
DA:6081,0
DA:6084,0
DA:6085,0
DA:6086,0
DA:6292,0
DA:6485,0
LF:44
LH:16
end_of_record
SF:/home/runner/micromamba/envs/moose/x86_64-conda-linux-gnu/include/c++/10.4.0/streambuf
LF:0
LH:0
end_of_record
SF:/home/runner/micromamba/envs/moose/x86_64-conda-linux-gnu/include/c++/10.4.0/bits/stl_uninitialized.h
FN:968,_ZSt19__relocate_object_aI20MaterialPropertyNameS0_SaIS0_EEvPT_PT0_RT1_
FNDA:0,_ZSt19__relocate_object_aI20MaterialPropertyNameS0_SaIS0_EEvPT_PT0_RT1_
FNF:1
FNH:0
DA:968,0
DA:978,0
DA:1013,6
DA:1014,0
LF:4
LH:1
end_of_record
SF:/home/runner/micromamba/envs/moose/x86_64-conda-linux-gnu/include/c++/10.4.0/string_view
FN:288,_ZNKSt17basic_string_viewIcSt11char_traitsIcEE7compareES2_
FNDA:0,_ZNKSt17basic_string_viewIcSt11char_traitsIcEE7compareES2_
FNF:1
FNH:0
DA:127,0
DA:129,0
DA:288,0
DA:290,0
DA:291,0
DA:292,0
DA:294,0
DA:463,0
DA:464,0
DA:466,0
DA:468,0
DA:552,0
DA:558,0
DA:623,0
LF:14
LH:0
end_of_record
SF:/home/runner/micromamba/envs/moose/x86_64-conda-linux-gnu/include/c++/10.4.0/ostream
DA:518,0
LF:1
LH:0
end_of_record
SF:/home/runner/micromamba/envs/moose/x86_64-conda-linux-gnu/include/c++/10.4.0/bits/stl_multimap.h
DA:297,0
LF:1
LH:0
end_of_record
SF:/home/runner/micromamba/envs/moose/x86_64-conda-linux-gnu/include/c++/10.4.0/tuple
FN:1702,_ZNSt4pairIKNSt7__cxx1112basic_stringIcSt11char_traitsIcESaIcEEEN15InputParameters8MetadataEEC2IJRS6_EJLm0EEJEJEEERSt5tupleIJDpT_EERSC_IJDpT1_EESt12_Index_tupleIJXspT0_EEESL_IJXspT2_EEE
FNDA:0,_ZNSt4pairIKNSt7__cxx1112basic_stringIcSt11char_traitsIcESaIcEEEN15InputParameters8MetadataEEC2IJRS6_EJLm0EEJEJEEERSt5tupleIJDpT_EERSC_IJDpT1_EESt12_Index_tupleIJXspT0_EEESL_IJXspT2_EEE
FNF:1
FNH:0
DA:130,0
DA:132,0
DA:133,0
DA:135,0
DA:136,0
DA:143,0
DA:176,0
DA:532,0
DA:1690,0
DA:1695,0
DA:1702,0
DA:1706,0
DA:1707,0
LF:13
LH:0
end_of_record
SF:/home/runner/micromamba/envs/moose/x86_64-conda-linux-gnu/include/c++/10.4.0/ext/aligned_buffer.h
DA:65,0
LF:1
LH:0
end_of_record
SF:/home/runner/micromamba/envs/moose/x86_64-conda-linux-gnu/include/c++/10.4.0/optional
LF:0
LH:0
end_of_record
SF:/home/runner/micromamba/envs/moose/x86_64-conda-linux-gnu/include/c++/10.4.0/sstream
DA:678,0
DA:832,0
LF:2
LH:0
end_of_record
SF:/home/runner/work/raccoon/raccoon/moose/framework/build/header_symlinks/MooseError.h
FN:173,_ZN5moose8internal14mooseStreamAllINSt7__cxx1112basic_stringIcSt11char_traitsIcESaIcEEEJRA2_KcEEEvRNS2_19basic_ostringstreamIcS5_S6_EEOT_DpOT0_
FNDA:0,_ZN5moose8internal14mooseStreamAllINSt7__cxx1112basic_stringIcSt11char_traitsIcESaIcEEEJRA2_KcEEEvRNS2_19basic_ostringstreamIcS5_S6_EEOT_DpOT0_
FN:173,_ZN5moose8internal14mooseStreamAllINSt7__cxx1112basic_stringIcSt11char_traitsIcESaIcEEEJRA45_KcS7_RA2_S8_EEEvRNS2_19basic_ostringstreamIcS5_S6_EEOT_DpOT0_
FNDA:0,_ZN5moose8internal14mooseStreamAllINSt7__cxx1112basic_stringIcSt11char_traitsIcESaIcEEEJRA45_KcS7_RA2_S8_EEEvRNS2_19basic_ostringstreamIcS5_S6_EEOT_DpOT0_
FN:173,_ZN5moose8internal14mooseStreamAllIRKNSt7__cxx1112basic_stringIcSt11char_traitsIcESaIcEEEJRA14_KcS7_RA45_SA_S7_RA2_SA_EEEvRNS2_19basic_ostringstreamIcS5_S6_EEOT_DpOT0_
FNDA:0,_ZN5moose8internal14mooseStreamAllIRKNSt7__cxx1112basic_stringIcSt11char_traitsIcESaIcEEEJRA14_KcS7_RA45_SA_S7_RA2_SA_EEEvRNS2_19basic_ostringstreamIcS5_S6_EEOT_DpOT0_
FN:299,_Z10mooseErrorIJRA30_KcRKNSt7__cxx1112basic_stringIcSt11char_traitsIcESaIcEEERA14_S0_S8_RA45_S0_S8_RA2_S0_EEvDpOT_
FNDA:0,_Z10mooseErrorIJRA30_KcRKNSt7__cxx1112basic_stringIcSt11char_traitsIcESaIcEEERA14_S0_S8_RA45_S0_S8_RA2_S0_EEvDpOT_
FNF:4
FNH:0
DA:173,0
DA:175,0
DA:176,0
DA:177,0
DA:173,0
DA:175,0
DA:176,0
DA:177,0
DA:173,0
DA:175,0
DA:176,0
DA:177,0
DA:175,0
DA:176,0
DA:177,0
DA:299,0
DA:301,0
DA:303,0
LF:18
LH:0
end_of_record
SF:/home/runner/micromamba/envs/moose/x86_64-conda-linux-gnu/include/c++/10.4.0/bits/unordered_map.h
DA:102,0
LF:1
LH:0
end_of_record
SF:/home/runner/micromamba/envs/moose/x86_64-conda-linux-gnu/include/c++/10.4.0/bits/stl_construct.h
FN:149,_ZNSt12_Destroy_auxILb0EE9__destroyIPSt5tupleIJNSt7__cxx1112basic_stringIcSt11char_traitsIcESaIcEEEN5Moose23RelationshipManagerTypeESt8functionIFvRK15InputParametersRSC_EEEEEEvT_SK_
FNDA:0,_ZNSt12_Destroy_auxILb0EE9__destroyIPSt5tupleIJNSt7__cxx1112basic_stringIcSt11char_traitsIcESaIcEEEN5Moose23RelationshipManagerTypeESt8functionIFvRK15InputParametersRSC_EEEEEEvT_SK_
FNF:1
FNH:0
DA:149,0
DA:151,0
DA:153,0
DA:185,0
LF:4
LH:0
end_of_record
SF:/home/runner/micromamba/envs/moose/x86_64-conda-linux-gnu/include/c++/10.4.0/bits/alloc_traits.h
FN:459,_ZNSt16allocator_traitsISaI20MaterialPropertyNameEE8allocateERS1_m
FNDA:3,_ZNSt16allocator_traitsISaI20MaterialPropertyNameEE8allocateERS1_m
FN:459,_ZNSt16allocator_traitsISaIdEE8allocateERS0_m
FNDA:0,_ZNSt16allocator_traitsISaIdEE8allocateERS0_m
FNF:2
FNH:1
DA:459,3
DA:460,3
DA:459,0
DA:460,0
DA:492,0
DA:512,0
DA:516,3
DA:535,0
LF:8
LH:3
end_of_record
SF:/home/runner/micromamba/envs/moose/x86_64-conda-linux-gnu/include/c++/10.4.0/ext/new_allocator.h
FN:154,_ZN9__gnu_cxx13new_allocatorISt13_Rb_tree_nodeISt4pairIKNSt7__cxx1112basic_stringIcSt11char_traitsIcESaIcEEEN15InputParameters8MetadataEEEE9constructISC_JRKSt21piecewise_construct_tSt5tupleIJRS9_EESJ_IJEEEEEvPT_DpOT0_
FNDA:0,_ZN9__gnu_cxx13new_allocatorISt13_Rb_tree_nodeISt4pairIKNSt7__cxx1112basic_stringIcSt11char_traitsIcESaIcEEEN15InputParameters8MetadataEEEE9constructISC_JRKSt21piecewise_construct_tSt5tupleIJRS9_EESJ_IJEEEEEvPT_DpOT0_
FNF:1
FNH:0
DA:111,3
DA:112,0
DA:121,3
DA:139,0
DA:154,0
DA:156,0
DA:162,0
LF:7
LH:2
end_of_record
SF:/home/runner/micromamba/envs/moose/x86_64-conda-linux-gnu/include/c++/10.4.0/bits/stl_iterator_base_funcs.h
DA:104,11044
LF:1
LH:1
end_of_record
SF:/home/runner/work/raccoon/raccoon/moose/framework/build/header_symlinks/MooseEnumItem.h
DA:24,0
LF:1
LH:0
end_of_record
SF:/home/runner/micromamba/envs/moose/libmesh/include/libmesh/libmesh_exceptions.h
DA:39,0
LF:1
LH:0
end_of_record
SF:/home/runner/micromamba/envs/moose/x86_64-conda-linux-gnu/include/c++/10.4.0/bits/std_function.h
FN:242,_ZNSt14_Function_baseD2Ev
FNDA:0,_ZNSt14_Function_baseD2Ev
FNF:1
FNH:0
DA:242,0
DA:243,0
DA:244,0
DA:245,0
DA:246,0
DA:303,0
LF:6
LH:0
end_of_record
SF:/home/runner/micromamba/envs/moose/x86_64-conda-linux-gnu/include/c++/10.4.0/bits/stl_pair.h
DA:211,0
LF:1
LH:0
end_of_record
TN:
SF:/home/runner/work/raccoon/raccoon/build/header_symlinks/PowerLawHardening.h
LF:0
LH:0
end_of_record
SF:/home/runner/work/raccoon/raccoon/moose/framework/build/header_symlinks/BoundaryRestrictable.h
FN:179,_ZNK20BoundaryRestrictable30checkVariableBoundaryIntegrityEv
FNDA:0,_ZNK20BoundaryRestrictable30checkVariableBoundaryIntegrityEv
FNF:1
FNH:0
DA:179,0
LF:1
LH:0
end_of_record
SF:/home/runner/micromamba/envs/moose/x86_64-conda-linux-gnu/include/c++/10.4.0/array
DA:56,0
DA:235,71547988
DA:239,63939746
LF:3
LH:2
end_of_record
SF:/home/runner/micromamba/envs/moose/x86_64-conda-linux-gnu/include/c++/10.4.0/string_view
FN:288,_ZNKSt17basic_string_viewIcSt11char_traitsIcEE7compareES2_
FNDA:0,_ZNKSt17basic_string_viewIcSt11char_traitsIcEE7compareES2_
FNF:1
FNH:0
DA:288,0
DA:290,0
DA:291,0
DA:292,0
DA:294,0
DA:463,0
DA:464,0
DA:466,0
DA:468,0
DA:552,0
DA:558,0
DA:623,0
LF:12
LH:0
end_of_record
SF:/home/runner/micromamba/envs/moose/x86_64-conda-linux-gnu/include/c++/10.4.0/ostream
DA:113,0
DA:175,0
DA:196,0
DA:221,0
DA:246,0
DA:518,0
LF:6
LH:0
end_of_record
SF:/home/runner/work/raccoon/raccoon/src/materials/large_deformation_models/LargeDeformationJ2PowerLawCreep.C
FN:11,_ZN31LargeDeformationJ2PowerLawCreep11validParamsEv
FNDA:134,_ZN31LargeDeformationJ2PowerLawCreep11validParamsEv
FN:24,_ZN31LargeDeformationJ2PowerLawCreepC2ERK15InputParameters
FNDA:6,_ZN31LargeDeformationJ2PowerLawCreepC2ERK15InputParameters
FN:32,_ZN31LargeDeformationJ2PowerLawCreep15computeResidualERKN11MetaPhysicL10DualNumberIdNS0_28SemiDynamicSparseNumberArrayIdmNS0_8NWrapperILm64EEEEELb1EEES8_
FNDA:7368,_ZN31LargeDeformationJ2PowerLawCreep15computeResidualERKN11MetaPhysicL10DualNumberIdNS0_28SemiDynamicSparseNumberArrayIdmNS0_8NWrapperILm64EEEEELb1EEES8_
FN:47,_ZN31LargeDeformationJ2PowerLawCreep17computeDerivativeERKN11MetaPhysicL10DualNumberIdNS0_28SemiDynamicSparseNumberArrayIdmNS0_8NWrapperILm64EEEEELb1EEES8_
FNDA:5600,_ZN31LargeDeformationJ2PowerLawCreep17computeDerivativeERKN11MetaPhysicL10DualNumberIdNS0_28SemiDynamicSparseNumberArrayIdmNS0_8NWrapperILm64EEEEELb1EEES8_
FNF:4
FNH:4
DA:11,134
DA:13,134
DA:14,134
DA:17,268
DA:19,268
DA:21,134
DA:24,6
DA:26,18
DA:27,18
DA:29,6
DA:32,7368
DA:37,22104
DA:38,14736
DA:40,14736
DA:41,14736
DA:42,14736
DA:43,14736
DA:47,5600
DA:52,16800
DA:53,11200
DA:55,5600
DA:56,5600
DA:58,11200
DA:59,11200
DA:61,11200
DA:62,11200
DA:64,16800
DA:65,5600
DA:66,5600
DA:67,5600
DA:68,5600
LF:31
LH:31
end_of_record
SF:/home/runner/micromamba/envs/moose/x86_64-conda-linux-gnu/include/c++/10.4.0/bits/stl_multimap.h
DA:297,0
LF:1
LH:0
end_of_record
SF:/home/runner/micromamba/envs/moose/x86_64-conda-linux-gnu/include/c++/10.4.0/bits/shared_ptr.h
FN:407,_ZNSt10shared_ptrI13RegistryEntryI29ComputeLargeDeformationStressEEC2ISaIS2_EJRK17RegistryEntryDataEEESt20_Sp_alloc_shared_tagIT_EDpOT0_
FNDA:40,_ZNSt10shared_ptrI13RegistryEntryI29ComputeLargeDeformationStressEEC2ISaIS2_EJRK17RegistryEntryDataEEESt20_Sp_alloc_shared_tagIT_EDpOT0_
FN:407,_ZNSt10shared_ptrI13RegistryEntryI12ArrheniusLawEEC2ISaIS2_EJRK17RegistryEntryDataEEESt20_Sp_alloc_shared_tagIT_EDpOT0_
FNDA:40,_ZNSt10shared_ptrI13RegistryEntryI12ArrheniusLawEEC2ISaIS2_EJRK17RegistryEntryDataEEESt20_Sp_alloc_shared_tagIT_EDpOT0_
FN:407,_ZNSt10shared_ptrI13RegistryEntryI43ComputeEigenstrainFromFunctionInitialStressEEC2ISaIS2_EJRK17RegistryEntryDataEEESt20_Sp_alloc_shared_tagIT_EDpOT0_
FNDA:40,_ZNSt10shared_ptrI13RegistryEntryI43ComputeEigenstrainFromFunctionInitialStressEEC2ISaIS2_EJRK17RegistryEntryDataEEESt20_Sp_alloc_shared_tagIT_EDpOT0_
FN:407,_ZNSt10shared_ptrI13RegistryEntryI47ComputeThermalExpansionEigenDeformationGradientEEC2ISaIS2_EJRK17RegistryEntryDataEEESt20_Sp_alloc_shared_tagIT_EDpOT0_
FNDA:40,_ZNSt10shared_ptrI13RegistryEntryI47ComputeThermalExpansionEigenDeformationGradientEEC2ISaIS2_EJRK17RegistryEntryDataEEESt20_Sp_alloc_shared_tagIT_EDpOT0_
FN:407,_ZNSt10shared_ptrI13RegistryEntryI19CrackSurfaceDensityEEC2ISaIS2_EJRK17RegistryEntryDataEEESt20_Sp_alloc_shared_tagIT_EDpOT0_
FNDA:40,_ZNSt10shared_ptrI13RegistryEntryI19CrackSurfaceDensityEEC2ISaIS2_EJRK17RegistryEntryDataEEESt20_Sp_alloc_shared_tagIT_EDpOT0_
FN:407,_ZNSt10shared_ptrI13RegistryEntryI15PressureDensityEEC2ISaIS2_EJRK17RegistryEntryDataEEESt20_Sp_alloc_shared_tagIT_EDpOT0_
FNDA:40,_ZNSt10shared_ptrI13RegistryEntryI15PressureDensityEEC2ISaIS2_EJRK17RegistryEntryDataEEESt20_Sp_alloc_shared_tagIT_EDpOT0_
FN:407,_ZNSt10shared_ptrI13RegistryEntryI30ThinFilmInterfaceEnergyDensityEEC2ISaIS2_EJRK17RegistryEntryDataEEESt20_Sp_alloc_shared_tagIT_EDpOT0_
FNDA:40,_ZNSt10shared_ptrI13RegistryEntryI30ThinFilmInterfaceEnergyDensityEEC2ISaIS2_EJRK17RegistryEntryDataEEESt20_Sp_alloc_shared_tagIT_EDpOT0_
FN:407,_ZNSt10shared_ptrI13RegistryEntryI21ArrheniusLawHardeningEEC2ISaIS2_EJRK17RegistryEntryDataEEESt20_Sp_alloc_shared_tagIT_EDpOT0_
FNDA:40,_ZNSt10shared_ptrI13RegistryEntryI21ArrheniusLawHardeningEEC2ISaIS2_EJRK17RegistryEntryDataEEESt20_Sp_alloc_shared_tagIT_EDpOT0_
FN:407,_ZNSt10shared_ptrI13RegistryEntryI20ExponentialHardeningEEC2ISaIS2_EJRK17RegistryEntryDataEEESt20_Sp_alloc_shared_tagIT_EDpOT0_
FNDA:40,_ZNSt10shared_ptrI13RegistryEntryI20ExponentialHardeningEEC2ISaIS2_EJRK17RegistryEntryDataEEESt20_Sp_alloc_shared_tagIT_EDpOT0_
FN:407,_ZNSt10shared_ptrI13RegistryEntryI20JohnsonCookHardeningEEC2ISaIS2_EJRK17RegistryEntryDataEEESt20_Sp_alloc_shared_tagIT_EDpOT0_
FNDA:40,_ZNSt10shared_ptrI13RegistryEntryI20JohnsonCookHardeningEEC2ISaIS2_EJRK17RegistryEntryDataEEESt20_Sp_alloc_shared_tagIT_EDpOT0_
FN:407,_ZNSt10shared_ptrI13RegistryEntryI15LinearHardeningEEC2ISaIS2_EJRK17RegistryEntryDataEEESt20_Sp_alloc_shared_tagIT_EDpOT0_
FNDA:40,_ZNSt10shared_ptrI13RegistryEntryI15LinearHardeningEEC2ISaIS2_EJRK17RegistryEntryDataEEESt20_Sp_alloc_shared_tagIT_EDpOT0_
FN:407,_ZNSt10shared_ptrI13RegistryEntryI17PowerLawHardeningEEC2ISaIS2_EJRK17RegistryEntryDataEEESt20_Sp_alloc_shared_tagIT_EDpOT0_
FNDA:40,_ZNSt10shared_ptrI13RegistryEntryI17PowerLawHardeningEEC2ISaIS2_EJRK17RegistryEntryDataEEESt20_Sp_alloc_shared_tagIT_EDpOT0_
FN:407,_ZNSt10shared_ptrI13RegistryEntryI22CNHIsotropicElasticityEEC2ISaIS2_EJRK17RegistryEntryDataEEESt20_Sp_alloc_shared_tagIT_EDpOT0_
FNDA:40,_ZNSt10shared_ptrI13RegistryEntryI22CNHIsotropicElasticityEEC2ISaIS2_EJRK17RegistryEntryDataEEESt20_Sp_alloc_shared_tagIT_EDpOT0_
FN:407,_ZNSt10shared_ptrI13RegistryEntryI26ComputeDeformationGradientEEC2ISaIS2_EJRK17RegistryEntryDataEEESt20_Sp_alloc_shared_tagIT_EDpOT0_
FNDA:40,_ZNSt10shared_ptrI13RegistryEntryI26ComputeDeformationGradientEEC2ISaIS2_EJRK17RegistryEntryDataEEESt20_Sp_alloc_shared_tagIT_EDpOT0_
FN:407,_ZNSt10shared_ptrI13RegistryEntryI28SmallDeformationJ2PlasticityEEC2ISaIS2_EJRK17RegistryEntryDataEEESt20_Sp_alloc_shared_tagIT_EDpOT0_
FNDA:40,_ZNSt10shared_ptrI13RegistryEntryI28SmallDeformationJ2PlasticityEEC2ISaIS2_EJRK17RegistryEntryDataEEESt20_Sp_alloc_shared_tagIT_EDpOT0_
FN:407,_ZNSt10shared_ptrI13RegistryEntryI25HenckyIsotropicElasticityEEC2ISaIS2_EJRK17RegistryEntryDataEEESt20_Sp_alloc_shared_tagIT_EDpOT0_
FNDA:40,_ZNSt10shared_ptrI13RegistryEntryI25HenckyIsotropicElasticityEEC2ISaIS2_EJRK17RegistryEntryDataEEESt20_Sp_alloc_shared_tagIT_EDpOT0_
FN:407,_ZNSt10shared_ptrI13RegistryEntryI28LargeDeformationJ2PlasticityEEC2ISaIS2_EJRK17RegistryEntryDataEEESt20_Sp_alloc_shared_tagIT_EDpOT0_
FNDA:40,_ZNSt10shared_ptrI13RegistryEntryI28LargeDeformationJ2PlasticityEEC2ISaIS2_EJRK17RegistryEntryDataEEESt20_Sp_alloc_shared_tagIT_EDpOT0_
FN:407,_ZNSt10shared_ptrI13RegistryEntryI31LargeDeformationJ2PowerLawCreepEEC2ISaIS2_EJRK17RegistryEntryDataEEESt20_Sp_alloc_shared_tagIT_EDpOT0_
FNDA:40,_ZNSt10shared_ptrI13RegistryEntryI31LargeDeformationJ2PowerLawCreepEEC2ISaIS2_EJRK17RegistryEntryDataEEESt20_Sp_alloc_shared_tagIT_EDpOT0_
FN:407,_ZNSt10shared_ptrI13RegistryEntryI34LargeDeformationNewtonianViscosityEEC2ISaIS2_EJRK17RegistryEntryDataEEESt20_Sp_alloc_shared_tagIT_EDpOT0_
FNDA:40,_ZNSt10shared_ptrI13RegistryEntryI34LargeDeformationNewtonianViscosityEEC2ISaIS2_EJRK17RegistryEntryDataEEESt20_Sp_alloc_shared_tagIT_EDpOT0_
FN:407,_ZNSt10shared_ptrI13RegistryEntryI24KLBFNucleationMicroForceEEC2ISaIS2_EJRK17RegistryEntryDataEEESt20_Sp_alloc_shared_tagIT_EDpOT0_
FNDA:40,_ZNSt10shared_ptrI13RegistryEntryI24KLBFNucleationMicroForceEEC2ISaIS2_EJRK17RegistryEntryDataEEESt20_Sp_alloc_shared_tagIT_EDpOT0_
FN:407,_ZNSt10shared_ptrI13RegistryEntryI23KLRNucleationMicroForceEEC2ISaIS2_EJRK17RegistryEntryDataEEESt20_Sp_alloc_shared_tagIT_EDpOT0_
FNDA:40,_ZNSt10shared_ptrI13RegistryEntryI23KLRNucleationMicroForceEEC2ISaIS2_EJRK17RegistryEntryDataEEESt20_Sp_alloc_shared_tagIT_EDpOT0_
FN:407,_ZNSt10shared_ptrI13RegistryEntryI23LDLNucleationMicroForceEEC2ISaIS2_EJRK17RegistryEntryDataEEESt20_Sp_alloc_shared_tagIT_EDpOT0_
FNDA:40,_ZNSt10shared_ptrI13RegistryEntryI23LDLNucleationMicroForceEEC2ISaIS2_EJRK17RegistryEntryDataEEESt20_Sp_alloc_shared_tagIT_EDpOT0_
FN:407,_ZNSt10shared_ptrI13RegistryEntryI22CrackGeometricFunctionEEC2ISaIS2_EJRK17RegistryEntryDataEEESt20_Sp_alloc_shared_tagIT_EDpOT0_
FNDA:40,_ZNSt10shared_ptrI13RegistryEntryI22CrackGeometricFunctionEEC2ISaIS2_EJRK17RegistryEntryDataEEESt20_Sp_alloc_shared_tagIT_EDpOT0_
FN:407,_ZNSt10shared_ptrI13RegistryEntryI13NoDegradationEEC2ISaIS2_EJRK17RegistryEntryDataEEESt20_Sp_alloc_shared_tagIT_EDpOT0_
FNDA:40,_ZNSt10shared_ptrI13RegistryEntryI13NoDegradationEEC2ISaIS2_EJRK17RegistryEntryDataEEESt20_Sp_alloc_shared_tagIT_EDpOT0_
FN:407,_ZNSt10shared_ptrI13RegistryEntryI24PowerDegradationFunctionEEC2ISaIS2_EJRK17RegistryEntryDataEEESt20_Sp_alloc_shared_tagIT_EDpOT0_
FNDA:40,_ZNSt10shared_ptrI13RegistryEntryI24PowerDegradationFunctionEEC2ISaIS2_EJRK17RegistryEntryDataEEESt20_Sp_alloc_shared_tagIT_EDpOT0_
FN:407,_ZNSt10shared_ptrI13RegistryEntryI27RationalDegradationFunctionEEC2ISaIS2_EJRK17RegistryEntryDataEEESt20_Sp_alloc_shared_tagIT_EDpOT0_
FNDA:40,_ZNSt10shared_ptrI13RegistryEntryI27RationalDegradationFunctionEEC2ISaIS2_EJRK17RegistryEntryDataEEESt20_Sp_alloc_shared_tagIT_EDpOT0_
FN:407,_ZNSt10shared_ptrI13RegistryEntryI29ComputeSmallDeformationStressEEC2ISaIS2_EJRK17RegistryEntryDataEEESt20_Sp_alloc_shared_tagIT_EDpOT0_
FNDA:40,_ZNSt10shared_ptrI13RegistryEntryI29ComputeSmallDeformationStressEEC2ISaIS2_EJRK17RegistryEntryDataEEESt20_Sp_alloc_shared_tagIT_EDpOT0_
FN:407,_ZNSt10shared_ptrI13RegistryEntryI35SmallDeformationIsotropicElasticityEEC2ISaIS2_EJRK17RegistryEntryDataEEESt20_Sp_alloc_shared_tagIT_EDpOT0_
FNDA:40,_ZNSt10shared_ptrI13RegistryEntryI35SmallDeformationIsotropicElasticityEEC2ISaIS2_EJRK17RegistryEntryDataEEESt20_Sp_alloc_shared_tagIT_EDpOT0_
FNF:28
FNH:28
DA:121,2240
DA:407,40
DA:408,40
DA:409,40
DA:407,40
DA:408,40
DA:409,40
DA:407,40
DA:408,40
DA:409,40
DA:407,40
DA:408,40
DA:409,40
DA:407,40
DA:408,40
DA:409,40
DA:407,40
DA:408,40
DA:409,40
DA:407,40
DA:408,40
DA:409,40
DA:407,40
DA:408,40
DA:409,40
DA:407,40
DA:408,40
DA:409,40
DA:407,40
DA:408,40
DA:409,40
DA:407,40
DA:408,40
DA:409,40
DA:407,40
DA:408,40
DA:409,40
DA:407,40
DA:408,40
DA:409,40
DA:407,40
DA:408,40
DA:409,40
DA:407,40
DA:408,40
DA:409,40
DA:407,40
DA:408,40
DA:409,40
DA:407,40
DA:408,40
DA:409,40
DA:407,40
DA:408,40
DA:409,40
DA:407,40
DA:408,40
DA:409,40
DA:407,40
DA:408,40
DA:409,40
DA:407,40
DA:408,40
DA:409,40
DA:407,40
DA:408,40
DA:409,40
DA:407,40
DA:408,40
DA:409,40
DA:407,40
DA:408,40
DA:409,40
DA:407,40
DA:408,40
DA:409,40
DA:407,40
DA:408,40
DA:409,40
DA:407,40
DA:408,40
DA:409,40
DA:407,40
DA:408,40
DA:409,40
DA:802,0
DA:862,1120
DA:877,1120
LF:88
LH:87
end_of_record
SF:/home/runner/micromamba/envs/moose/x86_64-conda-linux-gnu/include/c++/10.4.0/bits/hashtable_policy.h
FN:701,_ZNSt8__detail9_Map_baseImSt4pairIKmSt6vectorIS3_IS1_IbdESaIS4_EESaIS6_EEESaIS9_ENS_10_Select1stESt8equal_toImESt4hashImENS_18_Mod_range_hashingENS_20_Default_ranged_hashENS_20_Prime_rehash_policyENS_17_Hashtable_traitsILb0ELb0ELb1EEELb1EEixERS2_
FNDA:0,_ZNSt8__detail9_Map_baseImSt4pairIKmSt6vectorIS3_IS1_IbdESaIS4_EESaIS6_EEESaIS9_ENS_10_Select1stESt8equal_toImESt4hashImENS_18_Mod_range_hashingENS_20_Default_ranged_hashENS_20_Prime_rehash_policyENS_17_Hashtable_traitsILb0ELb0ELb1EEELb1EEixERS2_
FN:701,_ZNSt8__detail9_Map_baseImSt4pairIKmSt6vectorIS1_IbdESaIS4_EEESaIS7_ENS_10_Select1stESt8equal_toImESt4hashImENS_18_Mod_range_hashingENS_20_Default_ranged_hashENS_20_Prime_rehash_policyENS_17_Hashtable_traitsILb0ELb0ELb1EEELb1EEixERS2_
FNDA:0,_ZNSt8__detail9_Map_baseImSt4pairIKmSt6vectorIS1_IbdESaIS4_EEESaIS7_ENS_10_Select1stESt8equal_toImESt4hashImENS_18_Mod_range_hashingENS_20_Default_ranged_hashENS_20_Prime_rehash_policyENS_17_Hashtable_traitsILb0ELb0ELb1EEELb1EEixERS2_
FN:701,_ZNSt8__detail9_Map_baseImSt4pairIKmSt6vectorIS3_IS1_IbN11MetaPhysicL10DualNumberIdNS4_28SemiDynamicSparseNumberArrayIdmNS4_8NWrapperILm64EEEEELb1EEEESaISB_EESaISD_EEESaISG_ENS_10_Select1stESt8equal_toImESt4hashImENS_18_Mod_range_hashingENS_20_Default_ranged_hashENS_20_Prime_rehash_policyENS_17_Hashtable_traitsILb0ELb0ELb1EEELb1EEixERS2_
FNDA:0,_ZNSt8__detail9_Map_baseImSt4pairIKmSt6vectorIS3_IS1_IbN11MetaPhysicL10DualNumberIdNS4_28SemiDynamicSparseNumberArrayIdmNS4_8NWrapperILm64EEEEELb1EEEESaISB_EESaISD_EEESaISG_ENS_10_Select1stESt8equal_toImESt4hashImENS_18_Mod_range_hashingENS_20_Default_ranged_hashENS_20_Prime_rehash_policyENS_17_Hashtable_traitsILb0ELb0ELb1EEELb1EEixERS2_
FN:701,_ZNSt8__detail9_Map_baseImSt4pairIKmSt6vectorIS1_IbN11MetaPhysicL10DualNumberIdNS4_28SemiDynamicSparseNumberArrayIdmNS4_8NWrapperILm64EEEEELb1EEEESaISB_EEESaISE_ENS_10_Select1stESt8equal_toImESt4hashImENS_18_Mod_range_hashingENS_20_Default_ranged_hashENS_20_Prime_rehash_policyENS_17_Hashtable_traitsILb0ELb0ELb1EEELb1EEixERS2_
FNDA:0,_ZNSt8__detail9_Map_baseImSt4pairIKmSt6vectorIS1_IbN11MetaPhysicL10DualNumberIdNS4_28SemiDynamicSparseNumberArrayIdmNS4_8NWrapperILm64EEEEELb1EEEESaISB_EEESaISE_ENS_10_Select1stESt8equal_toImESt4hashImENS_18_Mod_range_hashingENS_20_Default_ranged_hashENS_20_Prime_rehash_policyENS_17_Hashtable_traitsILb0ELb0ELb1EEELb1EEixERS2_
FN:967,_ZNSt8__detail7_InsertIjjSaIjENS_9_IdentityESt8equal_toIjESt4hashIjENS_18_Mod_range_hashingENS_20_Default_ranged_hashENS_20_Prime_rehash_policyENS_17_Hashtable_traitsILb0ELb1ELb1EEELb1EE6insertEOj
FNDA:0,_ZNSt8__detail7_InsertIjjSaIjENS_9_IdentityESt8equal_toIjESt4hashIjENS_18_Mod_range_hashingENS_20_Default_ranged_hashENS_20_Prime_rehash_policyENS_17_Hashtable_traitsILb0ELb1ELb1EEELb1EE6insertEOj
FN:2030,_ZNSt8__detail16_Hashtable_allocISaINS_10_Hash_nodeISt4pairIKmSt6vectorIS4_IS2_IbdESaIS5_EESaIS7_EEELb0EEEEE16_M_allocate_nodeIJRKSt21piecewise_construct_tSt5tupleIJRS3_EESI_IJEEEEEPSB_DpOT_
FNDA:0,_ZNSt8__detail16_Hashtable_allocISaINS_10_Hash_nodeISt4pairIKmSt6vectorIS4_IS2_IbdESaIS5_EESaIS7_EEELb0EEEEE16_M_allocate_nodeIJRKSt21piecewise_construct_tSt5tupleIJRS3_EESI_IJEEEEEPSB_DpOT_
FN:2030,_ZNSt8__detail16_Hashtable_allocISaINS_10_Hash_nodeISt4pairIKmSt6vectorIS2_IbdESaIS5_EEELb0EEEEE16_M_allocate_nodeIJRKSt21piecewise_construct_tSt5tupleIJRS3_EESG_IJEEEEEPS9_DpOT_
FNDA:0,_ZNSt8__detail16_Hashtable_allocISaINS_10_Hash_nodeISt4pairIKmSt6vectorIS2_IbdESaIS5_EEELb0EEEEE16_M_allocate_nodeIJRKSt21piecewise_construct_tSt5tupleIJRS3_EESG_IJEEEEEPS9_DpOT_
FN:2030,_ZNSt8__detail16_Hashtable_allocISaINS_10_Hash_nodeISt4pairIKmSt6vectorIS4_IS2_IbN11MetaPhysicL10DualNumberIdNS5_28SemiDynamicSparseNumberArrayIdmNS5_8NWrapperILm64EEEEELb1EEEESaISC_EESaISE_EEELb0EEEEE16_M_allocate_nodeIJRKSt21piecewise_construct_tSt5tupleIJRS3_EESP_IJEEEEEPSI_DpOT_
FNDA:0,_ZNSt8__detail16_Hashtable_allocISaINS_10_Hash_nodeISt4pairIKmSt6vectorIS4_IS2_IbN11MetaPhysicL10DualNumberIdNS5_28SemiDynamicSparseNumberArrayIdmNS5_8NWrapperILm64EEEEELb1EEEESaISC_EESaISE_EEELb0EEEEE16_M_allocate_nodeIJRKSt21piecewise_construct_tSt5tupleIJRS3_EESP_IJEEEEEPSI_DpOT_
FN:2030,_ZNSt8__detail16_Hashtable_allocISaINS_10_Hash_nodeISt4pairIKmSt6vectorIS2_IbN11MetaPhysicL10DualNumberIdNS5_28SemiDynamicSparseNumberArrayIdmNS5_8NWrapperILm64EEEEELb1EEEESaISC_EEELb0EEEEE16_M_allocate_nodeIJRKSt21piecewise_construct_tSt5tupleIJRS3_EESN_IJEEEEEPSG_DpOT_
FNDA:0,_ZNSt8__detail16_Hashtable_allocISaINS_10_Hash_nodeISt4pairIKmSt6vectorIS2_IbN11MetaPhysicL10DualNumberIdNS5_28SemiDynamicSparseNumberArrayIdmNS5_8NWrapperILm64EEEEELb1EEEESaISC_EEELb0EEEEE16_M_allocate_nodeIJRKSt21piecewise_construct_tSt5tupleIJRS3_EESN_IJEEEEEPSG_DpOT_
FN:2052,_ZNSt8__detail16_Hashtable_allocISaINS_10_Hash_nodeISt4pairIKNSt7__cxx1112basic_stringIcSt11char_traitsIcESaIcEEESt6vectorIjSaIjEEELb1EEEEE18_M_deallocate_nodeEPSE_
FNDA:0,_ZNSt8__detail16_Hashtable_allocISaINS_10_Hash_nodeISt4pairIKNSt7__cxx1112basic_stringIcSt11char_traitsIcESaIcEEESt6vectorIjSaIjEEELb1EEEEE18_M_deallocate_nodeEPSE_
FN:2052,_ZNSt8__detail16_Hashtable_allocISaINS_10_Hash_nodeISt4pairIKNSt7__cxx1112basic_stringIcSt11char_traitsIcESaIcEEESt10unique_ptrI10MooseArrayIN7libMesh11VectorValueIN11MetaPhysicL10DualNumberIdNSE_28SemiDynamicSparseNumberArrayIdmNSE_8NWrapperILm64EEEEELb1EEEEEESt14default_deleteISM_EEELb1EEEEE18_M_deallocate_nodeEPSR_
FNDA:0,_ZNSt8__detail16_Hashtable_allocISaINS_10_Hash_nodeISt4pairIKNSt7__cxx1112basic_stringIcSt11char_traitsIcESaIcEEESt10unique_ptrI10MooseArrayIN7libMesh11VectorValueIN11MetaPhysicL10DualNumberIdNSE_28SemiDynamicSparseNumberArrayIdmNSE_8NWrapperILm64EEEEELb1EEEEEESt14default_deleteISM_EEELb1EEEEE18_M_deallocate_nodeEPSR_
FN:2052,_ZNSt8__detail16_Hashtable_allocISaINS_10_Hash_nodeISt4pairIKNSt7__cxx1112basic_stringIcSt11char_traitsIcESaIcEEESt10unique_ptrI10MooseArrayIN5Eigen6MatrixIdLin1ELi1ELi0ELin1ELi1EEEESt14default_deleteISF_EEELb1EEEEE18_M_deallocate_nodeEPSK_
FNDA:0,_ZNSt8__detail16_Hashtable_allocISaINS_10_Hash_nodeISt4pairIKNSt7__cxx1112basic_stringIcSt11char_traitsIcESaIcEEESt10unique_ptrI10MooseArrayIN5Eigen6MatrixIdLin1ELi1ELi0ELin1ELi1EEEESt14default_deleteISF_EEELb1EEEEE18_M_deallocate_nodeEPSK_
FN:2052,_ZNSt8__detail16_Hashtable_allocISaINS_10_Hash_nodeISt4pairIKNSt7__cxx1112basic_stringIcSt11char_traitsIcESaIcEEESt10unique_ptrI10MooseArrayIN7libMesh11VectorValueIdEEESt14default_deleteISF_EEELb1EEEEE18_M_deallocate_nodeEPSK_
FNDA:0,_ZNSt8__detail16_Hashtable_allocISaINS_10_Hash_nodeISt4pairIKNSt7__cxx1112basic_stringIcSt11char_traitsIcESaIcEEESt10unique_ptrI10MooseArrayIN7libMesh11VectorValueIdEEESt14default_deleteISF_EEELb1EEEEE18_M_deallocate_nodeEPSK_
FN:2052,_ZNSt8__detail16_Hashtable_allocISaINS_10_Hash_nodeISt4pairIKNSt7__cxx1112basic_stringIcSt11char_traitsIcESaIcEEESt6vectorISt10unique_ptrI10MooseArrayIdESt14default_deleteISD_EESaISG_EEELb1EEEEE18_M_deallocate_nodeEPSK_
FNDA:0,_ZNSt8__detail16_Hashtable_allocISaINS_10_Hash_nodeISt4pairIKNSt7__cxx1112basic_stringIcSt11char_traitsIcESaIcEEESt6vectorISt10unique_ptrI10MooseArrayIdESt14default_deleteISD_EESaISG_EEELb1EEEEE18_M_deallocate_nodeEPSK_
FN:2052,_ZNSt8__detail16_Hashtable_allocISaINS_10_Hash_nodeISt4pairIKNSt7__cxx1112basic_stringIcSt11char_traitsIcESaIcEEESt6vectorIP22MooseVariableFieldBaseSaISC_EEELb1EEEEE18_M_deallocate_nodeEPSG_
FNDA:0,_ZNSt8__detail16_Hashtable_allocISaINS_10_Hash_nodeISt4pairIKNSt7__cxx1112basic_stringIcSt11char_traitsIcESaIcEEESt6vectorIP22MooseVariableFieldBaseSaISC_EEELb1EEEEE18_M_deallocate_nodeEPSG_
FN:2052,_ZNSt8__detail16_Hashtable_allocISaINS_10_Hash_nodeISt4pairIKNSt7__cxx1112basic_stringIcSt11char_traitsIcESaIcEEES8_ELb1EEEEE18_M_deallocate_nodeEPSB_
FNDA:0,_ZNSt8__detail16_Hashtable_allocISaINS_10_Hash_nodeISt4pairIKNSt7__cxx1112basic_stringIcSt11char_traitsIcESaIcEEES8_ELb1EEEEE18_M_deallocate_nodeEPSB_
FN:2052,_ZNSt8__detail16_Hashtable_allocISaINS_10_Hash_nodeISt4pairIKNSt7__cxx1112basic_stringIcSt11char_traitsIcESaIcEEESt10unique_ptrI10MooseArrayIN11MetaPhysicL10DualNumberIdNSC_28SemiDynamicSparseNumberArrayIdmNSC_8NWrapperILm64EEEEELb1EEEESt14default_deleteISJ_EEELb1EEEEE18_M_deallocate_nodeEPSO_
FNDA:0,_ZNSt8__detail16_Hashtable_allocISaINS_10_Hash_nodeISt4pairIKNSt7__cxx1112basic_stringIcSt11char_traitsIcESaIcEEESt10unique_ptrI10MooseArrayIN11MetaPhysicL10DualNumberIdNSC_28SemiDynamicSparseNumberArrayIdmNSC_8NWrapperILm64EEEEELb1EEEESt14default_deleteISJ_EEELb1EEEEE18_M_deallocate_nodeEPSO_
FN:2052,_ZNSt8__detail16_Hashtable_allocISaINS_10_Hash_nodeISt4pairIKNSt7__cxx1112basic_stringIcSt11char_traitsIcESaIcEEESt10unique_ptrI10MooseArrayIdESt14default_deleteISC_EEELb1EEEEE18_M_deallocate_nodeEPSH_
FNDA:0,_ZNSt8__detail16_Hashtable_allocISaINS_10_Hash_nodeISt4pairIKNSt7__cxx1112basic_stringIcSt11char_traitsIcESaIcEEESt10unique_ptrI10MooseArrayIdESt14default_deleteISC_EEELb1EEEEE18_M_deallocate_nodeEPSH_
FN:2052,_ZNSt8__detail16_Hashtable_allocISaINS_10_Hash_nodeISt4pairIKNSt7__cxx1112basic_stringIcSt11char_traitsIcESaIcEEESt6vectorIP19MooseVariableScalarSaISC_EEELb1EEEEE18_M_deallocate_nodeEPSG_
FNDA:0,_ZNSt8__detail16_Hashtable_allocISaINS_10_Hash_nodeISt4pairIKNSt7__cxx1112basic_stringIcSt11char_traitsIcESaIcEEESt6vectorIP19MooseVariableScalarSaISC_EEELb1EEEEE18_M_deallocate_nodeEPSG_
FN:2070,_ZNSt8__detail16_Hashtable_allocISaINS_10_Hash_nodeISt4pairIKmSt6vectorIS2_IbN11MetaPhysicL10DualNumberIdNS5_28SemiDynamicSparseNumberArrayIdmNS5_8NWrapperILm64EEEEELb1EEEESaISC_EEELb0EEEEE19_M_deallocate_nodesEPSG_
FNDA:0,_ZNSt8__detail16_Hashtable_allocISaINS_10_Hash_nodeISt4pairIKmSt6vectorIS2_IbN11MetaPhysicL10DualNumberIdNS5_28SemiDynamicSparseNumberArrayIdmNS5_8NWrapperILm64EEEEELb1EEEESaISC_EEELb0EEEEE19_M_deallocate_nodesEPSG_
FN:2070,_ZNSt8__detail16_Hashtable_allocISaINS_10_Hash_nodeISt4pairIKmSt6vectorIS2_IbdESaIS5_EEELb0EEEEE19_M_deallocate_nodesEPS9_
FNDA:0,_ZNSt8__detail16_Hashtable_allocISaINS_10_Hash_nodeISt4pairIKmSt6vectorIS2_IbdESaIS5_EEELb0EEEEE19_M_deallocate_nodesEPS9_
FN:2070,_ZNSt8__detail16_Hashtable_allocISaINS_10_Hash_nodeISt4pairIKmSt6vectorIS4_IS2_IbdESaIS5_EESaIS7_EEELb0EEEEE19_M_deallocate_nodesEPSB_
FNDA:0,_ZNSt8__detail16_Hashtable_allocISaINS_10_Hash_nodeISt4pairIKmSt6vectorIS4_IS2_IbdESaIS5_EESaIS7_EEELb0EEEEE19_M_deallocate_nodesEPSB_
FN:2070,_ZNSt8__detail16_Hashtable_allocISaINS_10_Hash_nodeISt4pairIKmSt6vectorIS4_IS2_IbN11MetaPhysicL10DualNumberIdNS5_28SemiDynamicSparseNumberArrayIdmNS5_8NWrapperILm64EEEEELb1EEEESaISC_EESaISE_EEELb0EEEEE19_M_deallocate_nodesEPSI_
FNDA:0,_ZNSt8__detail16_Hashtable_allocISaINS_10_Hash_nodeISt4pairIKmSt6vectorIS4_IS2_IbN11MetaPhysicL10DualNumberIdNS5_28SemiDynamicSparseNumberArrayIdmNS5_8NWrapperILm64EEEEELb1EEEESaISC_EESaISE_EEELb0EEEEE19_M_deallocate_nodesEPSI_
FN:2082,_ZNSt8__detail16_Hashtable_allocISaINS_10_Hash_nodeIjLb0EEEEE19_M_allocate_bucketsEm
FNDA:0,_ZNSt8__detail16_Hashtable_allocISaINS_10_Hash_nodeIjLb0EEEEE19_M_allocate_bucketsEm
FN:2082,_ZNSt8__detail16_Hashtable_allocISaINS_10_Hash_nodeISt4pairIKmSt6vectorIS4_IS2_IbdESaIS5_EESaIS7_EEELb0EEEEE19_M_allocate_bucketsEm
FNDA:0,_ZNSt8__detail16_Hashtable_allocISaINS_10_Hash_nodeISt4pairIKmSt6vectorIS4_IS2_IbdESaIS5_EESaIS7_EEELb0EEEEE19_M_allocate_bucketsEm
FN:2082,_ZNSt8__detail16_Hashtable_allocISaINS_10_Hash_nodeISt4pairIKmSt6vectorIS2_IbN11MetaPhysicL10DualNumberIdNS5_28SemiDynamicSparseNumberArrayIdmNS5_8NWrapperILm64EEEEELb1EEEESaISC_EEELb0EEEEE19_M_allocate_bucketsEm
FNDA:0,_ZNSt8__detail16_Hashtable_allocISaINS_10_Hash_nodeISt4pairIKmSt6vectorIS2_IbN11MetaPhysicL10DualNumberIdNS5_28SemiDynamicSparseNumberArrayIdmNS5_8NWrapperILm64EEEEELb1EEEESaISC_EEELb0EEEEE19_M_allocate_bucketsEm
FN:2082,_ZNSt8__detail16_Hashtable_allocISaINS_10_Hash_nodeISt4pairIKmSt6vectorIS4_IS2_IbN11MetaPhysicL10DualNumberIdNS5_28SemiDynamicSparseNumberArrayIdmNS5_8NWrapperILm64EEEEELb1EEEESaISC_EESaISE_EEELb0EEEEE19_M_allocate_bucketsEm
FNDA:0,_ZNSt8__detail16_Hashtable_allocISaINS_10_Hash_nodeISt4pairIKmSt6vectorIS4_IS2_IbN11MetaPhysicL10DualNumberIdNS5_28SemiDynamicSparseNumberArrayIdmNS5_8NWrapperILm64EEEEELb1EEEESaISC_EESaISE_EEELb0EEEEE19_M_allocate_bucketsEm
FN:2082,_ZNSt8__detail16_Hashtable_allocISaINS_10_Hash_nodeISt4pairIKmSt6vectorIS2_IbdESaIS5_EEELb0EEEEE19_M_allocate_bucketsEm
FNDA:0,_ZNSt8__detail16_Hashtable_allocISaINS_10_Hash_nodeISt4pairIKmSt6vectorIS2_IbdESaIS5_EEELb0EEEEE19_M_allocate_bucketsEm
FNF:28
FNH:0
DA:161,0
DA:162,0
DA:218,0
DA:270,0
DA:283,0
DA:349,0
DA:355,0
DA:433,0
DA:477,0
DA:485,0
DA:701,0
DA:709,0
DA:710,0
DA:712,0
DA:715,0
DA:716,0
DA:719,0
DA:720,0
DA:721,0
DA:701,0
DA:709,0
DA:710,0
DA:712,0
DA:715,0
DA:716,0
DA:719,0
DA:720,0
DA:721,0
DA:701,0
DA:709,0
DA:710,0
DA:712,0
DA:715,0
DA:716,0
DA:719,0
DA:720,0
DA:721,0
DA:701,0
DA:709,0
DA:710,0
DA:712,0
DA:715,0
DA:716,0
DA:719,0
DA:720,0
DA:721,0
DA:967,0
DA:971,0
DA:1294,0
DA:1307,0
DA:1805,0
DA:2030,0
DA:2041,0
DA:2030,0
DA:2041,0
DA:2030,0
DA:2041,0
DA:2030,0
DA:2041,0
DA:2052,0
DA:2056,0
DA:2052,0
DA:2056,0
DA:2052,0
DA:2056,0
DA:2052,0
DA:2056,0
DA:2052,0
DA:2056,0
DA:2052,0
DA:2056,0
DA:2052,0
DA:2056,0
DA:2052,0
DA:2056,0
DA:2052,0
DA:2056,0
DA:2052,0
DA:2056,0
DA:2056,1860
DA:2064,1860
DA:2070,0
DA:2072,0
DA:2078,0
DA:2070,0
DA:2072,0
DA:2078,0
DA:2070,0
DA:2072,0
DA:2078,0
DA:2070,0
DA:2072,0
DA:2078,0
DA:2072,2541
DA:2076,0
DA:2082,0
DA:2086,0
DA:2088,0
DA:2089,0
DA:2082,0
DA:2086,0
DA:2088,0
DA:2089,0
DA:2082,0
DA:2086,0
DA:2088,0
DA:2089,0
DA:2082,0
DA:2086,0
DA:2088,0
DA:2089,0
DA:2082,0
DA:2086,0
DA:2088,0
DA:2089,0
DA:2101,1209
LF:116
LH:4
end_of_record
SF:/home/runner/work/raccoon/raccoon/src/materials/pff_constitutive_functions/NoDegradation.C
FN:10,_ZN13NoDegradation11validParamsEv
FNDA:154,_ZN13NoDegradation11validParamsEv
FN:20,_ZN13NoDegradationC2ERK15InputParameters
FNDA:21,_ZN13NoDegradationC2ERK15InputParameters
FNF:2
FNH:2
DA:10,154
DA:12,154
DA:13,154
DA:15,154
DA:17,154
DA:20,21
DA:21,21
DA:23,21
LF:8
LH:8
end_of_record
SF:/home/runner/work/raccoon/raccoon/moose/framework/build/header_symlinks/ADFunctorInterface.h
FN:27,_ZNK18ADFunctorInterface10isADObjectEv
FNDA:0,_ZNK18ADFunctorInterface10isADObjectEv
FNF:1
FNH:0
DA:27,0
LF:1
LH:0
end_of_record
SF:/home/runner/micromamba/envs/moose/libmesh/include/libmesh/tensor_tools.h
DA:105,272800
LF:1
LH:1
end_of_record
SF:/home/runner/work/raccoon/raccoon/src/materials/pff_constitutive_functions/DegradationFunctionBase.C
FN:8,_ZN23DegradationFunctionBase11validParamsEv
FNDA:602,_ZN23DegradationFunctionBase11validParamsEv
FN:20,_ZN23DegradationFunctionBaseC2ERK15InputParameters
FNDA:168,_ZN23DegradationFunctionBaseC2ERK15InputParameters
FNF:2
FNH:2
DA:8,602
DA:10,602
DA:12,602
DA:13,1204
DA:15,602
DA:16,602
DA:17,602
DA:20,168
DA:21,168
DA:23,168
LF:10
LH:10
end_of_record
SF:/home/runner/work/raccoon/raccoon/build/header_symlinks/KLRNucleationMicroForce.h
LF:0
LH:0
end_of_record
SF:/home/runner/work/raccoon/raccoon/src/materials/hardening_models/ArrheniusLawHardening.C
FN:10,_ZN21ArrheniusLawHardening11validParamsEv
FNDA:142,_ZN21ArrheniusLawHardening11validParamsEv
FN:41,_ZN21ArrheniusLawHardeningC2ERK15InputParameters
FNDA:12,_ZN21ArrheniusLawHardeningC2ERK15InputParameters
FN:73,_ZN21ArrheniusLawHardening13plasticEnergyERKN11MetaPhysicL10DualNumberIdNS0_28SemiDynamicSparseNumberArrayIdmNS0_8NWrapperILm64EEEEELb1EEEj
FNDA:168412,_ZN21ArrheniusLawHardening13plasticEnergyERKN11MetaPhysicL10DualNumberIdNS0_28SemiDynamicSparseNumberArrayIdmNS0_8NWrapperILm64EEEEELb1EEEj
FN:95,_ZN21ArrheniusLawHardening18plasticDissipationERKN11MetaPhysicL10DualNumberIdNS0_28SemiDynamicSparseNumberArrayIdmNS0_8NWrapperILm64EEEEELb1EEES8_j
FNDA:168412,_ZN21ArrheniusLawHardening18plasticDissipationERKN11MetaPhysicL10DualNumberIdNS0_28SemiDynamicSparseNumberArrayIdmNS0_8NWrapperILm64EEEEELb1EEES8_j
FN:115,_ZN21ArrheniusLawHardening16thermalConjugateERKN11MetaPhysicL10DualNumberIdNS0_28SemiDynamicSparseNumberArrayIdmNS0_8NWrapperILm64EEEEELb1EEE
FNDA:33336,_ZN21ArrheniusLawHardening16thermalConjugateERKN11MetaPhysicL10DualNumberIdNS0_28SemiDynamicSparseNumberArrayIdmNS0_8NWrapperILm64EEEEELb1EEE
FNF:5
FNH:5
DA:10,142
DA:12,142
DA:13,142
DA:15,284
DA:17,284
DA:19,284
DA:22,284
DA:23,284
DA:27,284
DA:28,284
DA:34,284
DA:38,142
DA:41,12
DA:44,24
DA:45,24
DA:48,48
DA:49,12
DA:51,24
DA:55,12
DA:56,12
DA:57,36
DA:61,12
DA:62,36
DA:65,12
DA:68,192
DA:70,12
DA:73,168412
DA:75,168412
DA:77,33336
DA:78,100008
DA:79,66672
DA:80,66672
DA:81,33336
DA:84,135076
DA:85,348024
DA:87,48070
DA:88,96140
DA:90,0
DA:95,168412
DA:99,168412
DA:101,0
DA:104,168412
DA:105,481368
DA:107,48070
DA:108,96140
DA:110,0
DA:115,33336
DA:117,33336
DA:118,66672
LF:49
LH:46
end_of_record
SF:/home/runner/work/raccoon/raccoon/moose/framework/build/header_symlinks/MooseEnum.h
FN:64,_ZN9MooseEnumaSERKS_
FNDA:0,_ZN9MooseEnumaSERKS_
FN:66,_ZN9MooseEnumD0Ev
FNDA:0,_ZN9MooseEnumD0Ev
FN:66,_ZN9MooseEnumD2Ev
FNDA:514,_ZN9MooseEnumD2Ev
FNF:3
FNH:1
DA:64,0
DA:66,0
DA:66,1028
DA:155,102
LF:4
LH:2
end_of_record
SF:/home/runner/work/raccoon/raccoon/moose/modules/solid_mechanics/build/header_symlinks/SingleVariableReturnMappingSolution.h
FN:30,_ZN40SingleVariableReturnMappingSolutionTemplILb1EED0Ev
FNDA:0,_ZN40SingleVariableReturnMappingSolutionTemplILb1EED0Ev
FN:30,_ZN40SingleVariableReturnMappingSolutionTemplILb1EED2Ev
FNDA:45,_ZN40SingleVariableReturnMappingSolutionTemplILb1EED2Ev
FN:66,_ZN40SingleVariableReturnMappingSolutionTemplILb1EE12initialGuessERKN11MetaPhysicL10DualNumberIdNS1_28SemiDynamicSparseNumberArrayIdmNS1_8NWrapperILm64EEEEELb1EEE
FNDA:134,_ZN40SingleVariableReturnMappingSolutionTemplILb1EE12initialGuessERKN11MetaPhysicL10DualNumberIdNS1_28SemiDynamicSparseNumberArrayIdmNS1_8NWrapperILm64EEEEELb1EEE
FN:97,_ZN40SingleVariableReturnMappingSolutionTemplILb1EE28computeResidualAndDerivativeERKN11MetaPhysicL10DualNumberIdNS1_28SemiDynamicSparseNumberArrayIdmNS1_8NWrapperILm64EEEEELb1EEERKNS2_IS7_S7_Lb0EEE
FNDA:0,_ZN40SingleVariableReturnMappingSolutionTemplILb1EE28computeResidualAndDerivativeERKN11MetaPhysicL10DualNumberIdNS1_28SemiDynamicSparseNumberArrayIdmNS1_8NWrapperILm64EEEEELb1EEERKNS2_IS7_S7_Lb0EEE
FN:118,_ZN40SingleVariableReturnMappingSolutionTemplILb1EE7preStepERKN11MetaPhysicL10DualNumberIdNS1_28SemiDynamicSparseNumberArrayIdmNS1_8NWrapperILm64EEEEELb1EEES9_S9_
FNDA:182986,_ZN40SingleVariableReturnMappingSolutionTemplILb1EE7preStepERKN11MetaPhysicL10DualNumberIdNS1_28SemiDynamicSparseNumberArrayIdmNS1_8NWrapperILm64EEEEELb1EEES9_S9_
FN:128,_ZN40SingleVariableReturnMappingSolutionTemplILb1EE17iterationFinalizeERKN11MetaPhysicL10DualNumberIdNS1_28SemiDynamicSparseNumberArrayIdmNS1_8NWrapperILm64EEEEELb1EEE
FNDA:223544,_ZN40SingleVariableReturnMappingSolutionTemplILb1EE17iterationFinalizeERKN11MetaPhysicL10DualNumberIdNS1_28SemiDynamicSparseNumberArrayIdmNS1_8NWrapperILm64EEEEELb1EEE
FNF:6
FNH:4
DA:30,0
DA:30,45
DA:66,134
DA:68,134
DA:97,0
DA:100,0
DA:118,182986
DA:122,182986
DA:128,223544
LF:9
LH:6
end_of_record
SF:/home/runner/work/raccoon/raccoon/moose/framework/build/header_symlinks/Function.h
FN:150,_ZNK8Function9hasBlocksEt
FNDA:0,_ZNK8Function9hasBlocksEt
FNF:1
FNH:0
DA:150,0
LF:1
LH:0
end_of_record
SF:/home/runner/micromamba/envs/moose/libmesh/include/metaphysicl/semidynamicsparsenumberarray_decl.h
DA:34,36997007
DA:56,603476
DA:58,35019649
DA:60,1842382
DA:62,0
LF:5
LH:4
end_of_record
SF:/home/runner/work/raccoon/raccoon/moose/framework/build/header_symlinks/MooseVariableDependencyInterface.h
LF:0
LH:0
end_of_record
SF:/home/runner/micromamba/envs/moose/libmesh/include/libmesh/dof_object.h
DA:828,0
LF:1
LH:0
end_of_record
SF:/home/runner/work/raccoon/raccoon/build/header_symlinks/LargeDeformationElasticityModel.h
FN:55,_ZN31LargeDeformationElasticityModel17resetQpPropertiesEv
FNDA:0,_ZN31LargeDeformationElasticityModel17resetQpPropertiesEv
FN:56,_ZN31LargeDeformationElasticityModel15resetPropertiesEv
FNDA:54913,_ZN31LargeDeformationElasticityModel15resetPropertiesEv
FNF:2
FNH:1
DA:55,0
DA:56,54913
LF:2
LH:1
end_of_record
SF:/home/runner/micromamba/envs/moose/x86_64-conda-linux-gnu/include/c++/10.4.0/bits/charconv.h
FN:47,_ZNSt8__detail14__to_chars_lenImEEjT_i
FNDA:0,_ZNSt8__detail14__to_chars_lenImEEjT_i
FN:72,_ZNSt8__detail18__to_chars_10_implImEEvPcjT_
FNDA:0,_ZNSt8__detail18__to_chars_10_implImEEvPcjT_
FNF:2
FNH:0
DA:47,0
DA:53,0
DA:54,0
DA:55,0
DA:58,0
DA:59,0
DA:60,0
DA:61,0
DA:62,0
DA:63,0
DA:72,0
DA:83,0
DA:84,0
DA:86,0
DA:87,0
DA:88,0
DA:89,0
DA:90,0
DA:92,0
DA:94,0
DA:95,0
DA:96,0
DA:99,0
DA:100,0
LF:24
LH:0
end_of_record
SF:/home/runner/work/raccoon/raccoon/moose/framework/build/header_symlinks/Registry.h
FN:124,_ZNK17RegistryEntryBase4nameB5cxx11Ev
FNDA:0,_ZNK17RegistryEntryBase4nameB5cxx11Ev
FN:165,_ZN8Registry3addI23KLRNucleationMicroForceEEcRK17RegistryEntryData
FNDA:40,_ZN8Registry3addI23KLRNucleationMicroForceEEcRK17RegistryEntryData
FN:165,_ZN8Registry3addI28SmallDeformationJ2PlasticityEEcRK17RegistryEntryData
FNDA:40,_ZN8Registry3addI28SmallDeformationJ2PlasticityEEcRK17RegistryEntryData
FN:165,_ZN8Registry3addI35SmallDeformationIsotropicElasticityEEcRK17RegistryEntryData
FNDA:40,_ZN8Registry3addI35SmallDeformationIsotropicElasticityEEcRK17RegistryEntryData
FN:165,_ZN8Registry3addI29ComputeSmallDeformationStressEEcRK17RegistryEntryData
FNDA:40,_ZN8Registry3addI29ComputeSmallDeformationStressEEcRK17RegistryEntryData
FN:165,_ZN8Registry3addI27RationalDegradationFunctionEEcRK17RegistryEntryData
FNDA:40,_ZN8Registry3addI27RationalDegradationFunctionEEcRK17RegistryEntryData
FN:165,_ZN8Registry3addI24PowerDegradationFunctionEEcRK17RegistryEntryData
FNDA:40,_ZN8Registry3addI24PowerDegradationFunctionEEcRK17RegistryEntryData
FN:165,_ZN8Registry3addI13NoDegradationEEcRK17RegistryEntryData
FNDA:40,_ZN8Registry3addI13NoDegradationEEcRK17RegistryEntryData
FN:165,_ZN8Registry3addI22CrackGeometricFunctionEEcRK17RegistryEntryData
FNDA:40,_ZN8Registry3addI22CrackGeometricFunctionEEcRK17RegistryEntryData
FN:165,_ZN8Registry3addI23LDLNucleationMicroForceEEcRK17RegistryEntryData
FNDA:40,_ZN8Registry3addI23LDLNucleationMicroForceEEcRK17RegistryEntryData
FN:165,_ZN8Registry3addI24KLBFNucleationMicroForceEEcRK17RegistryEntryData
FNDA:40,_ZN8Registry3addI24KLBFNucleationMicroForceEEcRK17RegistryEntryData
FN:165,_ZN8Registry3addI34LargeDeformationNewtonianViscosityEEcRK17RegistryEntryData
FNDA:40,_ZN8Registry3addI34LargeDeformationNewtonianViscosityEEcRK17RegistryEntryData
FN:165,_ZN8Registry3addI31LargeDeformationJ2PowerLawCreepEEcRK17RegistryEntryData
FNDA:40,_ZN8Registry3addI31LargeDeformationJ2PowerLawCreepEEcRK17RegistryEntryData
FN:165,_ZN8Registry3addI28LargeDeformationJ2PlasticityEEcRK17RegistryEntryData
FNDA:40,_ZN8Registry3addI28LargeDeformationJ2PlasticityEEcRK17RegistryEntryData
FN:165,_ZN8Registry3addI25HenckyIsotropicElasticityEEcRK17RegistryEntryData
FNDA:40,_ZN8Registry3addI25HenckyIsotropicElasticityEEcRK17RegistryEntryData
FN:165,_ZN8Registry3addI26ComputeDeformationGradientEEcRK17RegistryEntryData
FNDA:40,_ZN8Registry3addI26ComputeDeformationGradientEEcRK17RegistryEntryData
FN:165,_ZN8Registry3addI12ArrheniusLawEEcRK17RegistryEntryData
FNDA:40,_ZN8Registry3addI12ArrheniusLawEEcRK17RegistryEntryData
FN:165,_ZN8Registry3addI43ComputeEigenstrainFromFunctionInitialStressEEcRK17RegistryEntryData
FNDA:40,_ZN8Registry3addI43ComputeEigenstrainFromFunctionInitialStressEEcRK17RegistryEntryData
FN:165,_ZN8Registry3addI47ComputeThermalExpansionEigenDeformationGradientEEcRK17RegistryEntryData
FNDA:40,_ZN8Registry3addI47ComputeThermalExpansionEigenDeformationGradientEEcRK17RegistryEntryData
FN:165,_ZN8Registry3addI19CrackSurfaceDensityEEcRK17RegistryEntryData
FNDA:40,_ZN8Registry3addI19CrackSurfaceDensityEEcRK17RegistryEntryData
FN:165,_ZN8Registry3addI15PressureDensityEEcRK17RegistryEntryData
FNDA:40,_ZN8Registry3addI15PressureDensityEEcRK17RegistryEntryData
FN:165,_ZN8Registry3addI30ThinFilmInterfaceEnergyDensityEEcRK17RegistryEntryData
FNDA:40,_ZN8Registry3addI30ThinFilmInterfaceEnergyDensityEEcRK17RegistryEntryData
FN:165,_ZN8Registry3addI21ArrheniusLawHardeningEEcRK17RegistryEntryData
FNDA:40,_ZN8Registry3addI21ArrheniusLawHardeningEEcRK17RegistryEntryData
FN:165,_ZN8Registry3addI20JohnsonCookHardeningEEcRK17RegistryEntryData
FNDA:40,_ZN8Registry3addI20JohnsonCookHardeningEEcRK17RegistryEntryData
FN:165,_ZN8Registry3addI15LinearHardeningEEcRK17RegistryEntryData
FNDA:40,_ZN8Registry3addI15LinearHardeningEEcRK17RegistryEntryData
FN:165,_ZN8Registry3addI17PowerLawHardeningEEcRK17RegistryEntryData
FNDA:40,_ZN8Registry3addI17PowerLawHardeningEEcRK17RegistryEntryData
FN:165,_ZN8Registry3addI22CNHIsotropicElasticityEEcRK17RegistryEntryData
FNDA:40,_ZN8Registry3addI22CNHIsotropicElasticityEEcRK17RegistryEntryData
FN:165,_ZN8Registry3addI29ComputeLargeDeformationStressEEcRK17RegistryEntryData
FNDA:40,_ZN8Registry3addI29ComputeLargeDeformationStressEEcRK17RegistryEntryData
FN:165,_ZN8Registry3addI20ExponentialHardeningEEcRK17RegistryEntryData
FNDA:40,_ZN8Registry3addI20ExponentialHardeningEEcRK17RegistryEntryData
FN:273,_ZN13RegistryEntryI27RationalDegradationFunctionE5buildERK15InputParameters
FNDA:111,_ZN13RegistryEntryI27RationalDegradationFunctionE5buildERK15InputParameters
FN:273,_ZN13RegistryEntryI25HenckyIsotropicElasticityE5buildERK15InputParameters
FNDA:45,_ZN13RegistryEntryI25HenckyIsotropicElasticityE5buildERK15InputParameters
FN:273,_ZN13RegistryEntryI28LargeDeformationJ2PlasticityE5buildERK15InputParameters
FNDA:33,_ZN13RegistryEntryI28LargeDeformationJ2PlasticityE5buildERK15InputParameters
FN:273,_ZN13RegistryEntryI31LargeDeformationJ2PowerLawCreepE5buildERK15InputParameters
FNDA:6,_ZN13RegistryEntryI31LargeDeformationJ2PowerLawCreepE5buildERK15InputParameters
FN:273,_ZN13RegistryEntryI34LargeDeformationNewtonianViscosityE5buildERK15InputParameters
FNDA:3,_ZN13RegistryEntryI34LargeDeformationNewtonianViscosityE5buildERK15InputParameters
FN:273,_ZN13RegistryEntryI23KLRNucleationMicroForceE5buildERK15InputParameters
FNDA:3,_ZN13RegistryEntryI23KLRNucleationMicroForceE5buildERK15InputParameters
FN:273,_ZN13RegistryEntryI23LDLNucleationMicroForceE5buildERK15InputParameters
FNDA:3,_ZN13RegistryEntryI23LDLNucleationMicroForceE5buildERK15InputParameters
FN:273,_ZN13RegistryEntryI22CrackGeometricFunctionE5buildERK15InputParameters
FNDA:138,_ZN13RegistryEntryI22CrackGeometricFunctionE5buildERK15InputParameters
FN:273,_ZN13RegistryEntryI13NoDegradationE5buildERK15InputParameters
FNDA:21,_ZN13RegistryEntryI13NoDegradationE5buildERK15InputParameters
FN:273,_ZN13RegistryEntryI24PowerDegradationFunctionE5buildERK15InputParameters
FNDA:36,_ZN13RegistryEntryI24PowerDegradationFunctionE5buildERK15InputParameters
FN:273,_ZN13RegistryEntryI29ComputeSmallDeformationStressE5buildERK15InputParameters
FNDA:54,_ZN13RegistryEntryI29ComputeSmallDeformationStressE5buildERK15InputParameters
FN:273,_ZN13RegistryEntryI35SmallDeformationIsotropicElasticityE5buildERK15InputParameters
FNDA:54,_ZN13RegistryEntryI35SmallDeformationIsotropicElasticityE5buildERK15InputParameters
FN:273,_ZN13RegistryEntryI28SmallDeformationJ2PlasticityE5buildERK15InputParameters
FNDA:6,_ZN13RegistryEntryI28SmallDeformationJ2PlasticityE5buildERK15InputParameters
FN:273,_ZN13RegistryEntryI24KLBFNucleationMicroForceE5buildERK15InputParameters
FNDA:3,_ZN13RegistryEntryI24KLBFNucleationMicroForceE5buildERK15InputParameters
FN:273,_ZN13RegistryEntryI17PowerLawHardeningE5buildERK15InputParameters
FNDA:21,_ZN13RegistryEntryI17PowerLawHardeningE5buildERK15InputParameters
FN:273,_ZN13RegistryEntryI12ArrheniusLawE5buildERK15InputParameters
FNDA:12,_ZN13RegistryEntryI12ArrheniusLawE5buildERK15InputParameters
FN:273,_ZN13RegistryEntryI20ExponentialHardeningE5buildERK15InputParameters
FNDA:3,_ZN13RegistryEntryI20ExponentialHardeningE5buildERK15InputParameters
FN:273,_ZN13RegistryEntryI29ComputeLargeDeformationStressE5buildERK15InputParameters
FNDA:48,_ZN13RegistryEntryI29ComputeLargeDeformationStressE5buildERK15InputParameters
FN:273,_ZN13RegistryEntryI21ArrheniusLawHardeningE5buildERK15InputParameters
FNDA:12,_ZN13RegistryEntryI21ArrheniusLawHardeningE5buildERK15InputParameters
FN:273,_ZN13RegistryEntryI22CNHIsotropicElasticityE5buildERK15InputParameters
FNDA:3,_ZN13RegistryEntryI22CNHIsotropicElasticityE5buildERK15InputParameters
FN:273,_ZN13RegistryEntryI20JohnsonCookHardeningE5buildERK15InputParameters
FNDA:3,_ZN13RegistryEntryI20JohnsonCookHardeningE5buildERK15InputParameters
FN:273,_ZN13RegistryEntryI15PressureDensityE5buildERK15InputParameters
FNDA:6,_ZN13RegistryEntryI15PressureDensityE5buildERK15InputParameters
FN:273,_ZN13RegistryEntryI43ComputeEigenstrainFromFunctionInitialStressE5buildERK15InputParameters
FNDA:0,_ZN13RegistryEntryI43ComputeEigenstrainFromFunctionInitialStressE5buildERK15InputParameters
FN:273,_ZN13RegistryEntryI15LinearHardeningE5buildERK15InputParameters
FNDA:6,_ZN13RegistryEntryI15LinearHardeningE5buildERK15InputParameters
FN:273,_ZN13RegistryEntryI19CrackSurfaceDensityE5buildERK15InputParameters
FNDA:0,_ZN13RegistryEntryI19CrackSurfaceDensityE5buildERK15InputParameters
FN:273,_ZN13RegistryEntryI30ThinFilmInterfaceEnergyDensityE5buildERK15InputParameters
FNDA:0,_ZN13RegistryEntryI30ThinFilmInterfaceEnergyDensityE5buildERK15InputParameters
FN:273,_ZN13RegistryEntryI47ComputeThermalExpansionEigenDeformationGradientE5buildERK15InputParameters
FNDA:3,_ZN13RegistryEntryI47ComputeThermalExpansionEigenDeformationGradientE5buildERK15InputParameters
FN:273,_ZN13RegistryEntryI26ComputeDeformationGradientE5buildERK15InputParameters
FNDA:48,_ZN13RegistryEntryI26ComputeDeformationGradientE5buildERK15InputParameters
FN:282,_ZN13RegistryEntryI27RationalDegradationFunctionE11buildActionERK15InputParameters
FNDA:0,_ZN13RegistryEntryI27RationalDegradationFunctionE11buildActionERK15InputParameters
FN:282,_ZN13RegistryEntryI29ComputeSmallDeformationStressE11buildActionERK15InputParameters
FNDA:0,_ZN13RegistryEntryI29ComputeSmallDeformationStressE11buildActionERK15InputParameters
FN:282,_ZN13RegistryEntryI30ThinFilmInterfaceEnergyDensityE11buildActionERK15InputParameters
FNDA:0,_ZN13RegistryEntryI30ThinFilmInterfaceEnergyDensityE11buildActionERK15InputParameters
FN:282,_ZN13RegistryEntryI22CNHIsotropicElasticityE11buildActionERK15InputParameters
FNDA:0,_ZN13RegistryEntryI22CNHIsotropicElasticityE11buildActionERK15InputParameters
FN:282,_ZN13RegistryEntryI13NoDegradationE11buildActionERK15InputParameters
FNDA:0,_ZN13RegistryEntryI13NoDegradationE11buildActionERK15InputParameters
FN:282,_ZN13RegistryEntryI25HenckyIsotropicElasticityE11buildActionERK15InputParameters
FNDA:0,_ZN13RegistryEntryI25HenckyIsotropicElasticityE11buildActionERK15InputParameters
FN:282,_ZN13RegistryEntryI35SmallDeformationIsotropicElasticityE11buildActionERK15InputParameters
FNDA:0,_ZN13RegistryEntryI35SmallDeformationIsotropicElasticityE11buildActionERK15InputParameters
FN:282,_ZN13RegistryEntryI17PowerLawHardeningE11buildActionERK15InputParameters
FNDA:0,_ZN13RegistryEntryI17PowerLawHardeningE11buildActionERK15InputParameters
FN:282,_ZN13RegistryEntryI28SmallDeformationJ2PlasticityE11buildActionERK15InputParameters
FNDA:0,_ZN13RegistryEntryI28SmallDeformationJ2PlasticityE11buildActionERK15InputParameters
FN:282,_ZN13RegistryEntryI15LinearHardeningE11buildActionERK15InputParameters
FNDA:0,_ZN13RegistryEntryI15LinearHardeningE11buildActionERK15InputParameters
FN:282,_ZN13RegistryEntryI21ArrheniusLawHardeningE11buildActionERK15InputParameters
FNDA:0,_ZN13RegistryEntryI21ArrheniusLawHardeningE11buildActionERK15InputParameters
FN:282,_ZN13RegistryEntryI20JohnsonCookHardeningE11buildActionERK15InputParameters
FNDA:0,_ZN13RegistryEntryI20JohnsonCookHardeningE11buildActionERK15InputParameters
FN:282,_ZN13RegistryEntryI20ExponentialHardeningE11buildActionERK15InputParameters
FNDA:0,_ZN13RegistryEntryI20ExponentialHardeningE11buildActionERK15InputParameters
FN:282,_ZN13RegistryEntryI47ComputeThermalExpansionEigenDeformationGradientE11buildActionERK15InputParameters
FNDA:0,_ZN13RegistryEntryI47ComputeThermalExpansionEigenDeformationGradientE11buildActionERK15InputParameters
FN:282,_ZN13RegistryEntryI12ArrheniusLawE11buildActionERK15InputParameters
FNDA:0,_ZN13RegistryEntryI12ArrheniusLawE11buildActionERK15InputParameters
FN:282,_ZN13RegistryEntryI28LargeDeformationJ2PlasticityE11buildActionERK15InputParameters
FNDA:0,_ZN13RegistryEntryI28LargeDeformationJ2PlasticityE11buildActionERK15InputParameters
FN:282,_ZN13RegistryEntryI31LargeDeformationJ2PowerLawCreepE11buildActionERK15InputParameters
FNDA:0,_ZN13RegistryEntryI31LargeDeformationJ2PowerLawCreepE11buildActionERK15InputParameters
FN:282,_ZN13RegistryEntryI29ComputeLargeDeformationStressE11buildActionERK15InputParameters
FNDA:0,_ZN13RegistryEntryI29ComputeLargeDeformationStressE11buildActionERK15InputParameters
FN:282,_ZN13RegistryEntryI43ComputeEigenstrainFromFunctionInitialStressE11buildActionERK15InputParameters
FNDA:0,_ZN13RegistryEntryI43ComputeEigenstrainFromFunctionInitialStressE11buildActionERK15InputParameters
FN:282,_ZN13RegistryEntryI34LargeDeformationNewtonianViscosityE11buildActionERK15InputParameters
FNDA:0,_ZN13RegistryEntryI34LargeDeformationNewtonianViscosityE11buildActionERK15InputParameters
FN:282,_ZN13RegistryEntryI24KLBFNucleationMicroForceE11buildActionERK15InputParameters
FNDA:0,_ZN13RegistryEntryI24KLBFNucleationMicroForceE11buildActionERK15InputParameters
FN:282,_ZN13RegistryEntryI24PowerDegradationFunctionE11buildActionERK15InputParameters
FNDA:0,_ZN13RegistryEntryI24PowerDegradationFunctionE11buildActionERK15InputParameters
FN:282,_ZN13RegistryEntryI23KLRNucleationMicroForceE11buildActionERK15InputParameters
FNDA:0,_ZN13RegistryEntryI23KLRNucleationMicroForceE11buildActionERK15InputParameters
FN:282,_ZN13RegistryEntryI23LDLNucleationMicroForceE11buildActionERK15InputParameters
FNDA:0,_ZN13RegistryEntryI23LDLNucleationMicroForceE11buildActionERK15InputParameters
FN:282,_ZN13RegistryEntryI26ComputeDeformationGradientE11buildActionERK15InputParameters
FNDA:0,_ZN13RegistryEntryI26ComputeDeformationGradientE11buildActionERK15InputParameters
FN:282,_ZN13RegistryEntryI19CrackSurfaceDensityE11buildActionERK15InputParameters
FNDA:0,_ZN13RegistryEntryI19CrackSurfaceDensityE11buildActionERK15InputParameters
FN:282,_ZN13RegistryEntryI22CrackGeometricFunctionE11buildActionERK15InputParameters
FNDA:0,_ZN13RegistryEntryI22CrackGeometricFunctionE11buildActionERK15InputParameters
FN:282,_ZN13RegistryEntryI15PressureDensityE11buildActionERK15InputParameters
FNDA:0,_ZN13RegistryEntryI15PressureDensityE11buildActionERK15InputParameters
FN:292,_ZN13RegistryEntryI19CrackSurfaceDensityE15buildParametersEv
FNDA:126,_ZN13RegistryEntryI19CrackSurfaceDensityE15buildParametersEv
FN:292,_ZN13RegistryEntryI21ArrheniusLawHardeningE15buildParametersEv
FNDA:142,_ZN13RegistryEntryI21ArrheniusLawHardeningE15buildParametersEv
FN:292,_ZN13RegistryEntryI47ComputeThermalExpansionEigenDeformationGradientE15buildParametersEv
FNDA:130,_ZN13RegistryEntryI47ComputeThermalExpansionEigenDeformationGradientE15buildParametersEv
FN:292,_ZN13RegistryEntryI30ThinFilmInterfaceEnergyDensityE15buildParametersEv
FNDA:126,_ZN13RegistryEntryI30ThinFilmInterfaceEnergyDensityE15buildParametersEv
FN:292,_ZN13RegistryEntryI15PressureDensityE15buildParametersEv
FNDA:134,_ZN13RegistryEntryI15PressureDensityE15buildParametersEv
FN:292,_ZN13RegistryEntryI43ComputeEigenstrainFromFunctionInitialStressE15buildParametersEv
FNDA:126,_ZN13RegistryEntryI43ComputeEigenstrainFromFunctionInitialStressE15buildParametersEv
FN:292,_ZN13RegistryEntryI35SmallDeformationIsotropicElasticityE15buildParametersEv
FNDA:198,_ZN13RegistryEntryI35SmallDeformationIsotropicElasticityE15buildParametersEv
FN:292,_ZN13RegistryEntryI26ComputeDeformationGradientE15buildParametersEv
FNDA:190,_ZN13RegistryEntryI26ComputeDeformationGradientE15buildParametersEv
FN:292,_ZN13RegistryEntryI25HenckyIsotropicElasticityE15buildParametersEv
FNDA:186,_ZN13RegistryEntryI25HenckyIsotropicElasticityE15buildParametersEv
FN:292,_ZN13RegistryEntryI28LargeDeformationJ2PlasticityE15buildParametersEv
FNDA:170,_ZN13RegistryEntryI28LargeDeformationJ2PlasticityE15buildParametersEv
FN:292,_ZN13RegistryEntryI31LargeDeformationJ2PowerLawCreepE15buildParametersEv
FNDA:134,_ZN13RegistryEntryI31LargeDeformationJ2PowerLawCreepE15buildParametersEv
FN:292,_ZN13RegistryEntryI34LargeDeformationNewtonianViscosityE15buildParametersEv
FNDA:130,_ZN13RegistryEntryI34LargeDeformationNewtonianViscosityE15buildParametersEv
FN:292,_ZN13RegistryEntryI29ComputeLargeDeformationStressE15buildParametersEv
FNDA:190,_ZN13RegistryEntryI29ComputeLargeDeformationStressE15buildParametersEv
FN:292,_ZN13RegistryEntryI24KLBFNucleationMicroForceE15buildParametersEv
FNDA:130,_ZN13RegistryEntryI24KLBFNucleationMicroForceE15buildParametersEv
FN:292,_ZN13RegistryEntryI12ArrheniusLawE15buildParametersEv
FNDA:142,_ZN13RegistryEntryI12ArrheniusLawE15buildParametersEv
FN:292,_ZN13RegistryEntryI23KLRNucleationMicroForceE15buildParametersEv
FNDA:130,_ZN13RegistryEntryI23KLRNucleationMicroForceE15buildParametersEv
FN:292,_ZN13RegistryEntryI23LDLNucleationMicroForceE15buildParametersEv
FNDA:130,_ZN13RegistryEntryI23LDLNucleationMicroForceE15buildParametersEv
FN:292,_ZN13RegistryEntryI22CrackGeometricFunctionE15buildParametersEv
FNDA:310,_ZN13RegistryEntryI22CrackGeometricFunctionE15buildParametersEv
FN:292,_ZN13RegistryEntryI20ExponentialHardeningE15buildParametersEv
FNDA:130,_ZN13RegistryEntryI20ExponentialHardeningE15buildParametersEv
FN:292,_ZN13RegistryEntryI13NoDegradationE15buildParametersEv
FNDA:154,_ZN13RegistryEntryI13NoDegradationE15buildParametersEv
FN:292,_ZN13RegistryEntryI24PowerDegradationFunctionE15buildParametersEv
FNDA:174,_ZN13RegistryEntryI24PowerDegradationFunctionE15buildParametersEv
FN:292,_ZN13RegistryEntryI27RationalDegradationFunctionE15buildParametersEv
FNDA:274,_ZN13RegistryEntryI27RationalDegradationFunctionE15buildParametersEv
FN:292,_ZN13RegistryEntryI22CNHIsotropicElasticityE15buildParametersEv
FNDA:130,_ZN13RegistryEntryI22CNHIsotropicElasticityE15buildParametersEv
FN:292,_ZN13RegistryEntryI29ComputeSmallDeformationStressE15buildParametersEv
FNDA:198,_ZN13RegistryEntryI29ComputeSmallDeformationStressE15buildParametersEv
FN:292,_ZN13RegistryEntryI28SmallDeformationJ2PlasticityE15buildParametersEv
FNDA:134,_ZN13RegistryEntryI28SmallDeformationJ2PlasticityE15buildParametersEv
FN:292,_ZN13RegistryEntryI17PowerLawHardeningE15buildParametersEv
FNDA:154,_ZN13RegistryEntryI17PowerLawHardeningE15buildParametersEv
FN:292,_ZN13RegistryEntryI15LinearHardeningE15buildParametersEv
FNDA:134,_ZN13RegistryEntryI15LinearHardeningE15buildParametersEv
FN:292,_ZN13RegistryEntryI20JohnsonCookHardeningE15buildParametersEv
FNDA:130,_ZN13RegistryEntryI20JohnsonCookHardeningE15buildParametersEv
FNF:113
FNH:81
DA:117,1120
DA:124,0
DA:126,0
DA:127,0
DA:128,0
DA:129,0
DA:130,0
DA:131,0
DA:138,1120
DA:165,40
DA:168,80
DA:169,80
DA:170,40
DA:165,40
DA:168,80
DA:169,80
DA:170,40
DA:165,40
DA:168,80
DA:169,80
DA:170,40
DA:165,40
DA:168,80
DA:169,80
DA:170,40
DA:165,40
DA:168,80
DA:169,80
DA:170,40
DA:165,40
DA:168,80
DA:169,80
DA:170,40
DA:165,40
DA:168,80
DA:169,80
DA:170,40
DA:165,40
DA:168,80
DA:169,80
DA:170,40
DA:165,40
DA:168,80
DA:169,80
DA:170,40
DA:165,40
DA:168,80
DA:169,80
DA:170,40
DA:165,40
DA:168,80
DA:169,80
DA:170,40
DA:165,40
DA:168,80
DA:169,80
DA:170,40
DA:165,40
DA:168,80
DA:169,80
DA:170,40
DA:165,40
DA:168,80
DA:169,80
DA:170,40
DA:165,40
DA:168,80
DA:169,80
DA:170,40
DA:165,40
DA:168,80
DA:169,80
DA:170,40
DA:165,40
DA:168,80
DA:169,80
DA:170,40
DA:165,40
DA:168,80
DA:169,80
DA:170,40
DA:165,40
DA:168,80
DA:169,80
DA:170,40
DA:165,40
DA:168,80
DA:169,80
DA:170,40
DA:165,40
DA:168,80
DA:169,80
DA:170,40
DA:165,40
DA:168,80
DA:169,80
DA:170,40
DA:165,40
DA:168,80
DA:169,80
DA:170,40
DA:165,40
DA:168,80
DA:169,80
DA:170,40
DA:165,40
DA:168,80
DA:169,80
DA:170,40
DA:165,40
DA:168,80
DA:169,80
DA:170,40
DA:165,40
DA:168,80
DA:169,80
DA:170,40
DA:165,40
DA:168,80
DA:169,80
DA:170,40
DA:273,45
DA:276,45
DA:273,6
DA:276,6
DA:273,54
DA:276,54
DA:273,54
DA:276,54
DA:273,111
DA:276,111
DA:273,36
DA:276,36
DA:273,21
DA:276,21
DA:273,138
DA:276,138
DA:273,3
DA:276,3
DA:273,3
DA:276,3
DA:273,3
DA:276,3
DA:273,3
DA:276,3
DA:273,6
DA:276,6
DA:273,33
DA:276,33
DA:273,12
DA:276,12
DA:273,48
DA:276,48
DA:273,48
DA:276,48
DA:273,3
DA:276,3
DA:273,21
DA:276,21
DA:273,6
DA:276,6
DA:273,3
DA:276,3
DA:273,3
DA:276,3
DA:273,12
DA:276,12
DA:273,0
DA:276,0
DA:273,6
DA:276,6
DA:273,0
DA:276,0
DA:273,3
DA:276,3
DA:273,0
DA:276,0
DA:282,0
DA:285,0
DA:282,0
DA:285,0
DA:282,0
DA:285,0
DA:282,0
DA:285,0
DA:282,0
DA:285,0
DA:282,0
DA:285,0
DA:282,0
DA:285,0
DA:282,0
DA:285,0
DA:282,0
DA:285,0
DA:282,0
DA:285,0
DA:282,0
DA:285,0
DA:282,0
DA:285,0
DA:282,0
DA:285,0
DA:282,0
DA:285,0
DA:282,0
DA:285,0
DA:282,0
DA:285,0
DA:282,0
DA:285,0
DA:282,0
DA:285,0
DA:282,0
DA:285,0
DA:282,0
DA:285,0
DA:282,0
DA:285,0
DA:282,0
DA:285,0
DA:282,0
DA:285,0
DA:282,0
DA:285,0
DA:282,0
DA:285,0
DA:282,0
DA:285,0
DA:282,0
DA:285,0
DA:282,0
DA:285,0
DA:292,186
DA:294,186
DA:295,186
DA:292,134
DA:294,134
DA:295,134
DA:292,198
DA:294,198
DA:295,198
DA:292,198
DA:294,198
DA:295,198
DA:292,274
DA:294,274
DA:295,274
DA:292,174
DA:294,174
DA:295,174
DA:292,154
DA:294,154
DA:295,154
DA:292,310
DA:294,310
DA:295,310
DA:292,130
DA:294,130
DA:295,130
DA:292,130
DA:294,130
DA:295,130
DA:292,130
DA:294,130
DA:295,130
DA:292,130
DA:294,130
DA:295,130
DA:292,134
DA:294,134
DA:295,134
DA:292,170
DA:294,170
DA:295,170
DA:292,142
DA:294,142
DA:295,142
DA:292,190
DA:294,190
DA:295,190
DA:292,190
DA:294,190
DA:295,190
DA:292,130
DA:294,130
DA:295,130
DA:292,154
DA:294,154
DA:295,154
DA:292,134
DA:294,134
DA:295,134
DA:292,130
DA:294,130
DA:295,130
DA:292,130
DA:294,130
DA:295,130
DA:292,142
DA:294,142
DA:295,142
DA:292,126
DA:294,126
DA:295,126
DA:292,134
DA:294,134
DA:295,134
DA:292,126
DA:294,126
DA:295,126
DA:292,130
DA:294,130
DA:295,130
DA:292,126
DA:294,126
DA:295,126
LF:317
LH:248
end_of_record
SF:/home/runner/micromamba/envs/moose/x86_64-conda-linux-gnu/include/c++/10.4.0/bits/unordered_map.h
DA:102,0
DA:985,0
LF:2
LH:0
end_of_record
SF:/home/runner/work/raccoon/raccoon/build/header_symlinks/NoDegradation.h
LF:0
LH:0
end_of_record
SF:/home/runner/work/raccoon/raccoon/moose/framework/build/header_symlinks/MeshChangedInterface.h
FN:34,_ZN20MeshChangedInterface11meshChangedEv
FNDA:0,_ZN20MeshChangedInterface11meshChangedEv
FNF:1
FNH:0
DA:34,0
LF:1
LH:0
end_of_record
SF:/home/runner/work/raccoon/raccoon/build/header_symlinks/SmallDeformationPlasticityModel.h
FN:41,_ZN31SmallDeformationPlasticityModel17resetQpPropertiesEv
FNDA:0,_ZN31SmallDeformationPlasticityModel17resetQpPropertiesEv
FN:42,_ZN31SmallDeformationPlasticityModel15resetPropertiesEv
FNDA:34902,_ZN31SmallDeformationPlasticityModel15resetPropertiesEv
FNF:2
FNH:1
DA:41,0
DA:42,34902
LF:2
LH:1
end_of_record
SF:/home/runner/work/raccoon/raccoon/src/materials/large_deformation_models/LargeDeformationElasticityModel.C
FN:9,_ZN31LargeDeformationElasticityModel11validParamsEv
FNDA:316,_ZN31LargeDeformationElasticityModel11validParamsEv
FN:20,_ZN31LargeDeformationElasticityModelC2ERK15InputParameters
FNDA:48,_ZN31LargeDeformationElasticityModelC2ERK15InputParameters
FN:29,_ZN31LargeDeformationElasticityModel5setQpEj
FNDA:287080,_ZN31LargeDeformationElasticityModel5setQpEj
FN:37,_ZN31LargeDeformationElasticityModel18setPlasticityModelEP31LargeDeformationPlasticityModel
FNDA:39,_ZN31LargeDeformationElasticityModel18setPlasticityModelEP31LargeDeformationPlasticityModel
FN:45,_ZN31LargeDeformationElasticityModel24initQpStatefulPropertiesEv
FNDA:0,_ZN31LargeDeformationElasticityModel24initQpStatefulPropertiesEv
FN:51,_ZN31LargeDeformationElasticityModel11updateStateERK18RankTwoTensorTemplIN11MetaPhysicL10DualNumberIdNS1_28SemiDynamicSparseNumberArrayIdmNS1_8NWrapperILm64EEEEELb1EEEERS8_
FNDA:287080,_ZN31LargeDeformationElasticityModel11updateStateERK18RankTwoTensorTemplIN11MetaPhysicL10DualNumberIdNS1_28SemiDynamicSparseNumberArrayIdmNS1_8NWrapperILm64EEEEELb1EEEERS8_
FN:62,_ZN31LargeDeformationElasticityModel19computeCauchyStressERK18RankTwoTensorTemplIN11MetaPhysicL10DualNumberIdNS1_28SemiDynamicSparseNumberArrayIdmNS1_8NWrapperILm64EEEEELb1EEEE
FNDA:287080,_ZN31LargeDeformationElasticityModel19computeCauchyStressERK18RankTwoTensorTemplIN11MetaPhysicL10DualNumberIdNS1_28SemiDynamicSparseNumberArrayIdmNS1_8NWrapperILm64EEEEELb1EEEE
FNF:7
FNH:6
DA:9,316
DA:11,316
DA:12,316
DA:14,316
DA:15,316
DA:17,316
DA:20,48
DA:24,48
DA:26,48
DA:29,287080
DA:31,287080
DA:32,287080
DA:33,233968
DA:34,287080
DA:37,39
DA:40,39
DA:41,39
DA:42,39
DA:45,0
DA:47,0
DA:48,0
DA:51,287080
DA:53,287080
DA:55,287080
DA:56,233968
DA:58,53112
DA:59,287080
DA:62,287080
DA:64,287080
LF:29
LH:26
end_of_record
SF:/home/runner/work/raccoon/raccoon/moose/framework/contrib/hit/include/hit/parse.h
LF:0
LH:0
end_of_record
SF:/home/runner/micromamba/envs/moose/x86_64-conda-linux-gnu/include/c++/10.4.0/optional
LF:0
LH:0
end_of_record
SF:/home/runner/work/raccoon/raccoon/build/header_symlinks/ExponentialHardening.h
LF:0
LH:0
end_of_record
SF:/home/runner/micromamba/envs/moose/x86_64-conda-linux-gnu/include/c++/10.4.0/ext/aligned_buffer.h
DA:65,3777
DA:69,0
DA:104,1120
LF:3
LH:2
end_of_record
SF:/home/runner/micromamba/envs/moose/x86_64-conda-linux-gnu/include/c++/10.4.0/sstream
DA:678,0
DA:832,0
LF:2
LH:0
end_of_record
SF:/home/runner/micromamba/envs/moose/x86_64-conda-linux-gnu/include/c++/10.4.0/bits/stl_construct.h
FN:149,_ZNSt12_Destroy_auxILb0EE9__destroyIPSt10shared_ptrI17RegistryEntryBaseEEEvT_S6_
FNDA:0,_ZNSt12_Destroy_auxILb0EE9__destroyIPSt10shared_ptrI17RegistryEntryBaseEEEvT_S6_
FN:149,_ZNSt12_Destroy_auxILb0EE9__destroyIPSt5tupleIJNSt7__cxx1112basic_stringIcSt11char_traitsIcESaIcEEEN5Moose23RelationshipManagerTypeESt8functionIFvRK15InputParametersRSC_EEEEEEvT_SK_
FNDA:0,_ZNSt12_Destroy_auxILb0EE9__destroyIPSt5tupleIJNSt7__cxx1112basic_stringIcSt11char_traitsIcESaIcEEEN5Moose23RelationshipManagerTypeESt8functionIFvRK15InputParametersRSC_EEEEEEvT_SK_
FN:149,_ZNSt12_Destroy_auxILb0EE9__destroyIPSt3setIP18MooseVariableFieldIdESt4lessIS5_ESaIS5_EEEEvT_SB_
FNDA:0,_ZNSt12_Destroy_auxILb0EE9__destroyIPSt3setIP18MooseVariableFieldIdESt4lessIS5_ESaIS5_EEEEvT_SB_
FN:149,_ZNSt12_Destroy_auxILb0EE9__destroyIPSt10unique_ptrIN5Moose15FunctorEnvelopeIN11MetaPhysicL10DualNumberIdNS5_28SemiDynamicSparseNumberArrayIdmNS5_8NWrapperILm64EEEEELb1EEEEESt14default_deleteISC_EEEEvT_SH_
FNDA:681,_ZNSt12_Destroy_auxILb0EE9__destroyIPSt10unique_ptrIN5Moose15FunctorEnvelopeIN11MetaPhysicL10DualNumberIdNS5_28SemiDynamicSparseNumberArrayIdmNS5_8NWrapperILm64EEEEELb1EEEEESt14default_deleteISC_EEEEvT_SH_
FN:149,_ZNSt12_Destroy_auxILb0EE9__destroyIPSt10unique_ptrIN5Moose15FunctorEnvelopeIdEESt14default_deleteIS5_EEEEvT_SA_
FNDA:681,_ZNSt12_Destroy_auxILb0EE9__destroyIPSt10unique_ptrIN5Moose15FunctorEnvelopeIdEESt14default_deleteIS5_EEEEvT_SA_
FNF:5
FNH:2
DA:109,4407
DA:140,861
DA:149,0
DA:151,0
DA:153,0
DA:149,0
DA:151,0
DA:153,0
DA:149,0
DA:151,0
DA:153,0
DA:149,681
DA:151,681
DA:153,681
DA:149,681
DA:151,681
DA:153,681
DA:151,5839
DA:185,1362
LF:19
LH:10
end_of_record
SF:/home/runner/micromamba/envs/moose/x86_64-conda-linux-gnu/include/c++/10.4.0/bits/alloc_traits.h
FN:459,_ZNSt16allocator_traitsISaIPK10MooseArrayIN7libMesh11VectorValueIN11MetaPhysicL10DualNumberIdNS3_28SemiDynamicSparseNumberArrayIdmNS3_8NWrapperILm64EEEEELb1EEEEEEEE8allocateERSE_m
FNDA:66,_ZNSt16allocator_traitsISaIPK10MooseArrayIN7libMesh11VectorValueIN11MetaPhysicL10DualNumberIdNS3_28SemiDynamicSparseNumberArrayIdmNS3_8NWrapperILm64EEEEELb1EEEEEEEE8allocateERSE_m
FN:459,_ZNSt16allocator_traitsISaIdEE8allocateERS0_m
FNDA:0,_ZNSt16allocator_traitsISaIdEE8allocateERS0_m
FN:459,_ZNSt16allocator_traitsISaINSt7__cxx1112basic_stringIcSt11char_traitsIcESaIcEEEEE8allocateERS6_m
FNDA:1133,_ZNSt16allocator_traitsISaINSt7__cxx1112basic_stringIcSt11char_traitsIcESaIcEEEEE8allocateERS6_m
FN:459,_ZNSt16allocator_traitsISaIPK8FunctionEE8allocateERS3_m
FNDA:0,_ZNSt16allocator_traitsISaIPK8FunctionEE8allocateERS3_m
FN:459,_ZNSt16allocator_traitsISaISt10unique_ptrI13PropertyValueSt14default_deleteIS1_EEEE8allocateERS5_m
FNDA:0,_ZNSt16allocator_traitsISaISt10unique_ptrI13PropertyValueSt14default_deleteIS1_EEEE8allocateERS5_m
FN:459,_ZNSt16allocator_traitsISaIN11MetaPhysicL10DualNumberIdNS0_28SemiDynamicSparseNumberArrayIdmNS0_8NWrapperILm64EEEEELb1EEEEE8allocateERS7_m
FNDA:0,_ZNSt16allocator_traitsISaIN11MetaPhysicL10DualNumberIdNS0_28SemiDynamicSparseNumberArrayIdmNS0_8NWrapperILm64EEEEELb1EEEEE8allocateERS7_m
FN:459,_ZNSt16allocator_traitsISaIPK10MooseArrayIN11MetaPhysicL10DualNumberIdNS1_28SemiDynamicSparseNumberArrayIdmNS1_8NWrapperILm64EEEEELb1EEEEEE8allocateERSB_m
FNDA:0,_ZNSt16allocator_traitsISaIPK10MooseArrayIN11MetaPhysicL10DualNumberIdNS1_28SemiDynamicSparseNumberArrayIdmNS1_8NWrapperILm64EEEEELb1EEEEEE8allocateERSB_m
FN:459,_ZNSt16allocator_traitsISaI20MaterialPropertyNameEE8allocateERS1_m
FNDA:0,_ZNSt16allocator_traitsISaI20MaterialPropertyNameEE8allocateERS1_m
FN:459,_ZNSt16allocator_traitsISaIPK18ADMaterialPropertyI18RankTwoTensorTemplIdEEEE8allocateERS6_m
FNDA:3,_ZNSt16allocator_traitsISaIPK18ADMaterialPropertyI18RankTwoTensorTemplIdEEEE8allocateERS6_m
FN:459,_ZNSt16allocator_traitsISaISt4pairIbdEEE8allocateERS2_m
FNDA:0,_ZNSt16allocator_traitsISaISt4pairIbdEEE8allocateERS2_m
FN:459,_ZNSt16allocator_traitsISaIPSt4pairIddEEE8allocateERS3_m
FNDA:138,_ZNSt16allocator_traitsISaIPSt4pairIddEEE8allocateERS3_m
FN:459,_ZNSt16allocator_traitsISaISt10shared_ptrI17RegistryEntryBaseEEE8allocateERS3_m
FNDA:0,_ZNSt16allocator_traitsISaISt10shared_ptrI17RegistryEntryBaseEEE8allocateERS3_m
FN:459,_ZNSt16allocator_traitsISaIPNSt8__detail15_Hash_node_baseEEE8allocateERS3_m
FNDA:0,_ZNSt16allocator_traitsISaIPNSt8__detail15_Hash_node_baseEEE8allocateERS3_m
FN:459,_ZNSt16allocator_traitsISaI12FunctionNameEE8allocateERS1_m
FNDA:0,_ZNSt16allocator_traitsISaI12FunctionNameEE8allocateERS1_m
FN:459,_ZNSt16allocator_traitsISaISt6vectorISt4pairIbN11MetaPhysicL10DualNumberIdNS2_28SemiDynamicSparseNumberArrayIdmNS2_8NWrapperILm64EEEEELb1EEEESaIS9_EEEE8allocateERSC_m
FNDA:0,_ZNSt16allocator_traitsISaISt6vectorISt4pairIbN11MetaPhysicL10DualNumberIdNS2_28SemiDynamicSparseNumberArrayIdmNS2_8NWrapperILm64EEEEELb1EEEESaIS9_EEEE8allocateERSC_m
FN:459,_ZNSt16allocator_traitsISaISt6vectorISt4pairIbdESaIS2_EEEE8allocateERS5_m
FNDA:0,_ZNSt16allocator_traitsISaISt6vectorISt4pairIbdESaIS2_EEEE8allocateERS5_m
FN:459,_ZNSt16allocator_traitsISaISt4pairIbN11MetaPhysicL10DualNumberIdNS1_28SemiDynamicSparseNumberArrayIdmNS1_8NWrapperILm64EEEEELb1EEEEEE8allocateERS9_m
FNDA:0,_ZNSt16allocator_traitsISaISt4pairIbN11MetaPhysicL10DualNumberIdNS1_28SemiDynamicSparseNumberArrayIdmNS1_8NWrapperILm64EEEEELb1EEEEEE8allocateERS9_m
FNF:17
FNH:4
DA:459,66
DA:460,66
DA:459,0
DA:460,0
DA:459,1133
DA:460,1133
DA:459,0
DA:460,0
DA:459,0
DA:460,0
DA:459,0
DA:460,0
DA:459,0
DA:460,0
DA:459,0
DA:460,0
DA:459,3
DA:460,3
DA:459,0
DA:460,0
DA:459,138
DA:460,138
DA:459,0
DA:460,0
DA:459,0
DA:460,0
DA:459,0
DA:460,0
DA:459,0
DA:460,0
DA:459,0
DA:460,0
DA:459,0
DA:460,0
DA:492,3078
DA:512,0
DA:516,0
DA:535,2208690
LF:38
LH:10
end_of_record
SF:/home/runner/micromamba/envs/moose/libmesh/include/libmesh/tensor_value.h
DA:44,1644938
DA:261,139608
DA:262,139608
DA:304,10499948
DA:305,17623076
LF:5
LH:5
end_of_record
SF:/home/runner/work/raccoon/raccoon/moose/framework/build/header_symlinks/MooseBaseParameterInterface.h
FN:175,_ZNK27MooseBaseParameterInterface13paramErrorMsgIJPKcEEENSt7__cxx1112basic_stringIcSt11char_traitsIcESaIcEEERKS8_DpT_
FNDA:0,_ZNK27MooseBaseParameterInterface13paramErrorMsgIJPKcEEENSt7__cxx1112basic_stringIcSt11char_traitsIcESaIcEEERKS8_DpT_
FN:175,_ZNK27MooseBaseParameterInterface13paramErrorMsgIJNSt7__cxx1112basic_stringIcSt11char_traitsIcESaIcEEEEEES6_RKS6_DpT_
FNDA:0,_ZNK27MooseBaseParameterInterface13paramErrorMsgIJNSt7__cxx1112basic_stringIcSt11char_traitsIcESaIcEEEEEES6_RKS6_DpT_
FN:237,_ZNK27MooseBaseParameterInterface10paramErrorIJPKcEEEvRKNSt7__cxx1112basic_stringIcSt11char_traitsIcESaIcEEEDpT_
FNDA:0,_ZNK27MooseBaseParameterInterface10paramErrorIJPKcEEEvRKNSt7__cxx1112basic_stringIcSt11char_traitsIcESaIcEEEDpT_
FN:237,_ZNK27MooseBaseParameterInterface10paramErrorIJNSt7__cxx1112basic_stringIcSt11char_traitsIcESaIcEEEEEEvRKS6_DpT_
FNDA:0,_ZNK27MooseBaseParameterInterface10paramErrorIJNSt7__cxx1112basic_stringIcSt11char_traitsIcESaIcEEEEEEvRKS6_DpT_
FNF:4
FNH:0
DA:47,0
DA:62,195
DA:111,198
DA:175,0
DA:177,0
DA:180,0
DA:181,0
DA:183,0
DA:184,0
DA:191,0
DA:192,0
DA:194,0
DA:196,0
DA:198,0
DA:175,0
DA:177,0
DA:180,0
DA:181,0
DA:183,0
DA:184,0
DA:191,0
DA:192,0
DA:194,0
DA:196,0
DA:198,0
DA:206,2208
DA:237,0
DA:239,0
DA:240,0
DA:237,0
DA:239,0
DA:240,0
LF:32
LH:3
end_of_record
SF:/home/runner/work/raccoon/raccoon/src/materials/pff_constitutive_functions/CrackGeometricFunction.C
FN:10,_ZN22CrackGeometricFunction11validParamsEv
FNDA:310,_ZN22CrackGeometricFunction11validParamsEv
FN:43,_ZN22CrackGeometricFunctionC2ERK15InputParameters
FNDA:138,_ZN22CrackGeometricFunctionC2ERK15InputParameters
FN:58,_ZN22CrackGeometricFunction28computeNormalizationConstantEv
FNDA:138,_ZN22CrackGeometricFunction28computeNormalizationConstantEv
FN:97,_ZN22CrackGeometricFunction22normalizationIntegrandERKN11MetaPhysicL10DualNumberIdNS0_28SemiDynamicSparseNumberArrayIdmNS0_8NWrapperILm64EEEEELb1EEE
FNDA:11043450,_ZN22CrackGeometricFunction22normalizationIntegrandERKN11MetaPhysicL10DualNumberIdNS0_28SemiDynamicSparseNumberArrayIdmNS0_8NWrapperILm64EEEEELb1EEE
FN:104,_ZN22CrackGeometricFunction19computeQpPropertiesEv
FNDA:4390561,_ZN22CrackGeometricFunction19computeQpPropertiesEv
FNF:5
FNH:5
DA:10,310
DA:12,310
DA:13,310
DA:18,310
DA:19,620
DA:21,310
DA:22,310
DA:24,620
DA:29,620
DA:34,620
DA:35,620
DA:36,620
DA:37,620
DA:40,310
DA:43,138
DA:45,138
DA:46,276
DA:47,276
DA:48,138
DA:49,828
DA:52,138
DA:53,138
DA:54,138
DA:55,138
DA:58,138
DA:62,138
DA:63,138
DA:64,138
DA:66,2208828
DA:68,2208690
DA:71,2208690
DA:72,2208690
DA:73,2208690
DA:75,2208690
DA:77,2208690
DA:78,2208690
DA:80,2208690
DA:86,1104276
DA:89,2208690
DA:90,0
DA:93,138
DA:97,11043450
DA:99,11043450
DA:100,11043450
DA:104,4390561
DA:106,4390561
DA:107,4390561
DA:109,4390561
DA:110,4390561
LF:49
LH:48
end_of_record
SF:/home/runner/micromamba/envs/moose/libmesh/include/metaphysicl/dynamicsparsenumberbase_decl.h
FN:72,_ZN11MetaPhysicL23DynamicSparseNumberBaseINS_22DynamicStdArrayWrapperIdNS_8NWrapperILm64EEEEENS1_ImS3_EENS_28SemiDynamicSparseNumberArrayEJdmS3_EEC2EOS7_
FNDA:603476,_ZN11MetaPhysicL23DynamicSparseNumberBaseINS_22DynamicStdArrayWrapperIdNS_8NWrapperILm64EEEEENS1_ImS3_EENS_28SemiDynamicSparseNumberArrayEJdmS3_EEC2EOS7_
FN:75,_ZN11MetaPhysicL23DynamicSparseNumberBaseINS_22DynamicStdArrayWrapperIdNS_8NWrapperILm64EEEEENS1_ImS3_EENS_28SemiDynamicSparseNumberArrayEJdmS3_EEaSEOS7_
FNDA:35019649,_ZN11MetaPhysicL23DynamicSparseNumberBaseINS_22DynamicStdArrayWrapperIdNS_8NWrapperILm64EEEEENS1_ImS3_EENS_28SemiDynamicSparseNumberArrayEJdmS3_EEaSEOS7_
FN:79,_ZN11MetaPhysicL23DynamicSparseNumberBaseINS_22DynamicStdArrayWrapperIdNS_8NWrapperILm64EEEEENS1_ImS3_EENS_28SemiDynamicSparseNumberArrayEJdmS3_EEC2ERKS7_
FNDA:1842382,_ZN11MetaPhysicL23DynamicSparseNumberBaseINS_22DynamicStdArrayWrapperIdNS_8NWrapperILm64EEEEENS1_ImS3_EENS_28SemiDynamicSparseNumberArrayEJdmS3_EEC2ERKS7_
FN:81,_ZN11MetaPhysicL23DynamicSparseNumberBaseINS_22DynamicStdArrayWrapperIdNS_8NWrapperILm64EEEEENS1_ImS3_EENS_28SemiDynamicSparseNumberArrayEJdmS3_EEaSERKS7_
FNDA:0,_ZN11MetaPhysicL23DynamicSparseNumberBaseINS_22DynamicStdArrayWrapperIdNS_8NWrapperILm64EEEEENS1_ImS3_EENS_28SemiDynamicSparseNumberArrayEJdmS3_EEaSERKS7_
FNF:4
FNH:3
DA:72,603476
DA:75,35019649
DA:79,1842382
DA:81,0
LF:4
LH:3
end_of_record
SF:/home/runner/work/raccoon/raccoon/moose/framework/build/header_symlinks/MaterialBase.h
FN:95,_ZN12MaterialBase19isInterfaceMaterialEv
FNDA:0,_ZN12MaterialBase19isInterfaceMaterialEv
FN:185,_ZN12MaterialBase17getRequestedItemsB5cxx11Ev
FNDA:1244,_ZN12MaterialBase17getRequestedItemsB5cxx11Ev
FN:191,_ZN12MaterialBase16getSuppliedItemsB5cxx11Ev
FNDA:3869,_ZN12MaterialBase16getSuppliedItemsB5cxx11Ev
FN:299,_ZNK12MaterialBase9miProblemEv
FNDA:0,_ZNK12MaterialBase9miProblemEv
FN:300,_ZN12MaterialBase9miProblemEv
FNDA:0,_ZN12MaterialBase9miProblemEv
FN:401,_ZN12MaterialBase28declareGenericPropertyByNameI18RankTwoTensorTemplIdELb1EEERN29GenericMaterialPropertyStructIT_XT0_EE4typeERKNSt7__cxx1112basic_stringIcSt11char_traitsIcESaIcEEE
FNDA:0,_ZN12MaterialBase28declareGenericPropertyByNameI18RankTwoTensorTemplIdELb1EEERN29GenericMaterialPropertyStructIT_XT0_EE4typeERKNSt7__cxx1112basic_stringIcSt11char_traitsIcESaIcEEE
FN:401,_ZN12MaterialBase28declareGenericPropertyByNameIdLb1EEERN29GenericMaterialPropertyStructIT_XT0_EE4typeERKNSt7__cxx1112basic_stringIcSt11char_traitsIcESaIcEEE
FNDA:0,_ZN12MaterialBase28declareGenericPropertyByNameIdLb1EEERN29GenericMaterialPropertyStructIT_XT0_EE4typeERKNSt7__cxx1112basic_stringIcSt11char_traitsIcESaIcEEE
FN:479,_ZN12MaterialBase17declareADPropertyI18RankTwoTensorTemplIdEEER18ADMaterialPropertyIT_ERKNSt7__cxx1112basic_stringIcSt11char_traitsIcESaIcEEE
FNDA:0,_ZN12MaterialBase17declareADPropertyI18RankTwoTensorTemplIdEEER18ADMaterialPropertyIT_ERKNSt7__cxx1112basic_stringIcSt11char_traitsIcESaIcEEE
FN:479,_ZN12MaterialBase17declareADPropertyIdEER18ADMaterialPropertyIT_ERKNSt7__cxx1112basic_stringIcSt11char_traitsIcESaIcEEE
FNDA:0,_ZN12MaterialBase17declareADPropertyIdEER18ADMaterialPropertyIT_ERKNSt7__cxx1112basic_stringIcSt11char_traitsIcESaIcEEE
FNF:9
FNH:2
DA:95,0
DA:133,0
DA:185,1244
DA:191,3869
DA:299,0
DA:300,0
DA:401,0
DA:403,0
DA:406,0
DA:409,0
DA:411,0
DA:412,0
DA:401,0
DA:403,0
DA:406,0
DA:409,0
DA:411,0
DA:412,0
DA:479,0
DA:482,0
DA:483,0
DA:484,0
DA:486,0
DA:479,0
DA:482,0
DA:483,0
DA:484,0
DA:486,0
LF:28
LH:2
end_of_record
SF:/home/runner/work/raccoon/raccoon/moose/framework/build/header_symlinks/FunctionMaterialBase.h
DA:60,138
DA:98,138
DA:99,138
LF:3
LH:3
end_of_record
SF:/home/runner/work/raccoon/raccoon/moose/framework/build/header_symlinks/VectorPostprocessorInterface.h
FN:311,_ZNK28VectorPostprocessorInterface38addVectorPostprocessorDependencyHelperERK23VectorPostprocessorName
FNDA:0,_ZNK28VectorPostprocessorInterface38addVectorPostprocessorDependencyHelperERK23VectorPostprocessorName
FNF:1
FNH:0
DA:311,0
DA:313,0
LF:2
LH:0
end_of_record
SF:/home/runner/work/raccoon/raccoon/moose/framework/build/header_symlinks/MooseObjectName.h
FN:56,_ZN15MooseObjectNameD0Ev
FNDA:0,_ZN15MooseObjectNameD0Ev
FN:56,_ZN15MooseObjectNameD2Ev
FNDA:0,_ZN15MooseObjectNameD2Ev
FNF:2
FNH:0
DA:56,0
DA:56,0
LF:2
LH:0
end_of_record
SF:/home/runner/work/raccoon/raccoon/moose/framework/build/header_symlinks/BlockRestrictable.h
FN:86,_ZN17BlockRestrictableD0Ev
FNDA:0,_ZN17BlockRestrictableD0Ev
FN:86,_ZN17BlockRestrictableD2Ev
FNDA:0,_ZN17BlockRestrictableD2Ev
FNF:2
FNH:0
DA:86,0
DA:86,0
LF:2
LH:0
end_of_record
SF:/home/runner/micromamba/envs/moose/x86_64-conda-linux-gnu/include/c++/10.4.0/bits/unordered_set.h
DA:426,0
LF:1
LH:0
end_of_record
SF:/home/runner/work/raccoon/raccoon/moose/framework/build/header_symlinks/OutputInterface.h
LF:0
LH:0
end_of_record
SF:/home/runner/work/raccoon/raccoon/moose/framework/build/header_symlinks/MooseBase.h
FN:40,_ZN9MooseBaseD0Ev
FNDA:0,_ZN9MooseBaseD0Ev
FN:40,_ZN9MooseBaseD2Ev
FNDA:0,_ZN9MooseBaseD2Ev
FN:57,_ZNK9MooseBase4nameB5cxx11Ev
FNDA:0,_ZNK9MooseBase4nameB5cxx11Ev
FNF:3
FNH:0
DA:40,0
DA:40,0
DA:57,0
LF:3
LH:0
end_of_record
SF:/home/runner/micromamba/envs/moose/x86_64-conda-linux-gnu/include/c++/10.4.0/bits/move.h
DA:197,0
DA:198,0
DA:199,0
LF:3
LH:0
end_of_record
SF:/home/runner/micromamba/envs/moose/x86_64-conda-linux-gnu/include/c++/10.4.0/future
FN:328,_ZNSt13__future_base13_State_baseV2D0Ev
FNDA:0,_ZNSt13__future_base13_State_baseV2D0Ev
FN:328,_ZNSt13__future_base13_State_baseV2D2Ev
FNDA:0,_ZNSt13__future_base13_State_baseV2D2Ev
FN:581,_ZNSt13__future_base13_State_baseV217_M_complete_asyncEv
FNDA:0,_ZNSt13__future_base13_State_baseV217_M_complete_asyncEv
FN:584,_ZNKSt13__future_base13_State_baseV221_M_is_deferred_futureEv
FNDA:0,_ZNKSt13__future_base13_State_baseV221_M_is_deferred_futureEv
FN:663,_ZNSt13__future_base7_ResultIvE10_M_destroyEv
FNDA:0,_ZNSt13__future_base7_ResultIvE10_M_destroyEv
FNF:5
FNH:0
DA:213,0
DA:328,0
DA:328,0
DA:581,0
DA:584,0
DA:663,0
LF:6
LH:0
end_of_record
SF:/home/runner/micromamba/envs/moose/libmesh/include/metaphysicl/metaphysicl_exceptions.h
DA:45,0
LF:1
LH:0
end_of_record
SF:/home/runner/micromamba/envs/moose/x86_64-conda-linux-gnu/include/c++/10.4.0/bits/std_function.h
FN:242,_ZNSt14_Function_baseD2Ev
FNDA:0,_ZNSt14_Function_baseD2Ev
FNF:1
FNH:0
DA:242,0
DA:243,0
DA:244,0
DA:245,0
DA:246,0
DA:303,0
LF:6
LH:0
end_of_record
SF:/home/runner/micromamba/envs/moose/x86_64-conda-linux-gnu/include/c++/10.4.0/ext/new_allocator.h
FN:154,_ZN9__gnu_cxx13new_allocatorISt13_Rb_tree_nodeISt4pairIKNSt7__cxx1112basic_stringIcSt11char_traitsIcESaIcEEES8_EEE9constructISA_JRKSt21piecewise_construct_tSt5tupleIJOS8_EESH_IJEEEEEvPT_DpOT0_
FNDA:0,_ZN9__gnu_cxx13new_allocatorISt13_Rb_tree_nodeISt4pairIKNSt7__cxx1112basic_stringIcSt11char_traitsIcESaIcEEES8_EEE9constructISA_JRKSt21piecewise_construct_tSt5tupleIJOS8_EESH_IJEEEEEvPT_DpOT0_
FN:154,_ZN9__gnu_cxx13new_allocatorISt13_Rb_tree_nodeISt4pairIKNSt7__cxx1112basic_stringIcSt11char_traitsIcESaIcEEEN15InputParameters8MetadataEEEE9constructISC_JRKSt21piecewise_construct_tSt5tupleIJRS9_EESJ_IJEEEEEvPT_DpOT0_
FNDA:0,_ZN9__gnu_cxx13new_allocatorISt13_Rb_tree_nodeISt4pairIKNSt7__cxx1112basic_stringIcSt11char_traitsIcESaIcEEEN15InputParameters8MetadataEEEE9constructISC_JRKSt21piecewise_construct_tSt5tupleIJRS9_EESJ_IJEEEEEvPT_DpOT0_
FNF:2
FNH:0
DA:111,1340
DA:112,0
DA:121,2598
DA:139,14916
DA:154,0
DA:156,0
DA:154,0
DA:156,0
DA:156,66
DA:162,2208690
LF:10
LH:5
end_of_record
SF:/home/runner/work/raccoon/raccoon/src/materials/hardening_models/ExponentialHardening.C
FN:10,_ZN20ExponentialHardening11validParamsEv
FNDA:130,_ZN20ExponentialHardening11validParamsEv
FN:32,_ZN20ExponentialHardeningC2ERK15InputParameters
FNDA:3,_ZN20ExponentialHardeningC2ERK15InputParameters
FN:56,_ZN20ExponentialHardening13plasticEnergyERKN11MetaPhysicL10DualNumberIdNS0_28SemiDynamicSparseNumberArrayIdmNS0_8NWrapperILm64EEEEELb1EEEj
FNDA:89874,_ZN20ExponentialHardening13plasticEnergyERKN11MetaPhysicL10DualNumberIdNS0_28SemiDynamicSparseNumberArrayIdmNS0_8NWrapperILm64EEEEELb1EEEj
FNF:3
FNH:3
DA:10,130
DA:12,130
DA:13,130
DA:15,260
DA:16,260
DA:18,260
DA:20,260
DA:22,260
DA:23,260
DA:27,260
DA:29,130
DA:32,3
DA:35,6
DA:36,6
DA:37,6
DA:38,6
DA:40,6
DA:44,3
DA:45,3
DA:46,9
DA:50,3
DA:51,42
DA:53,3
DA:56,89874
DA:58,89874
DA:60,15024
DA:61,15024
DA:62,60096
DA:63,30048
DA:64,30048
DA:65,30048
DA:66,15024
DA:69,74850
DA:70,44937
DA:71,134811
DA:72,89874
DA:74,29913
DA:75,29913
DA:76,89739
DA:78,0
LF:40
LH:39
end_of_record
SF:/home/runner/micromamba/envs/moose/x86_64-conda-linux-gnu/include/c++/10.4.0/bits/deque.tcc
FN:164,_ZNSt5dequeISt4pairIddESaIS1_EE12emplace_backIJRdS5_EEERS1_DpOT_
FNDA:2208552,_ZNSt5dequeISt4pairIddESaIS1_EE12emplace_backIJRdS5_EEERS1_DpOT_
FN:164,_ZNSt5dequeISt4pairIddESaIS1_EE12emplace_backIJiiEEERS1_DpOT_
FNDA:138,_ZNSt5dequeISt4pairIddESaIS1_EE12emplace_backIJiiEEERS1_DpOT_
FN:481,_ZNSt5dequeISt4pairIddESaIS1_EE16_M_push_back_auxIJRdS5_EEEvDpOT_
FNDA:0,_ZNSt5dequeISt4pairIddESaIS1_EE16_M_push_back_auxIJRdS5_EEEvDpOT_
FN:481,_ZNSt5dequeISt4pairIddESaIS1_EE16_M_push_back_auxIJiiEEEvDpOT_
FNDA:0,_ZNSt5dequeISt4pairIddESaIS1_EE16_M_push_back_auxIJiiEEEvDpOT_
FN:557,_ZNSt5dequeISt4pairIddESaIS1_EE15_M_pop_back_auxEv
FNDA:0,_ZNSt5dequeISt4pairIddESaIS1_EE15_M_pop_back_auxEv
FN:928,_ZNSt5dequeISt4pairIddESaIS1_EE17_M_reallocate_mapEmb
FNDA:0,_ZNSt5dequeISt4pairIddESaIS1_EE17_M_reallocate_mapEmb
FNF:6
FNH:2
DA:164,2208552
DA:167,2208552
DA:168,2208552
DA:173,2208552
DA:176,0
DA:178,2208552
DA:164,138
DA:167,138
DA:168,138
DA:173,138
DA:176,0
DA:178,138
DA:481,0
DA:489,0
DA:490,0
DA:493,0
DA:494,0
DA:498,0
DA:504,0
DA:506,0
DA:513,0
DA:481,0
DA:489,0
DA:490,0
DA:493,0
DA:494,0
DA:498,0
DA:504,0
DA:506,0
DA:513,0
DA:557,0
DA:560,0
DA:561,0
DA:562,0
DA:565,0
DA:928,0
DA:931,0
DA:932,0
DA:933,0
DA:936,0
DA:938,0
DA:939,0
DA:940,0
DA:941,0
DA:942,0
DA:946,0
DA:952,0
DA:953,0
DA:957,0
DA:958,0
DA:959,0
DA:960,0
DA:962,0
DA:964,0
DA:965,0
DA:969,0
DA:970,0
LF:57
LH:10
end_of_record
SF:/home/runner/work/raccoon/raccoon/build/header_symlinks/ComputeLargeDeformationStress.h
LF:0
LH:0
end_of_record
SF:/home/runner/work/raccoon/raccoon/src/materials/large_deformation_models/LargeDeformationViscoelasticityModel.C
FN:8,_ZN36LargeDeformationViscoelasticityModel11validParamsEv
FNDA:130,_ZN36LargeDeformationViscoelasticityModel11validParamsEv
FN:19,_ZN36LargeDeformationViscoelasticityModelC2ERK15InputParameters
FNDA:3,_ZN36LargeDeformationViscoelasticityModelC2ERK15InputParameters
FN:26,_ZN36LargeDeformationViscoelasticityModel5setQpEj
FNDA:62224,_ZN36LargeDeformationViscoelasticityModel5setQpEj
FNF:3
FNH:3
DA:8,130
DA:10,130
DA:11,130
DA:13,130
DA:14,130
DA:16,130
DA:19,3
DA:20,3
DA:21,3
DA:23,3
DA:26,62224
DA:28,62224
DA:29,62224
LF:13
LH:13
end_of_record
SF:/home/runner/micromamba/envs/moose/x86_64-conda-linux-gnu/include/c++/10.4.0/bits/stl_deque.h
FN:208,_ZNSt15_Deque_iteratorISt4pairIddERS1_PS1_EmmEv
FNDA:4417380,_ZNSt15_Deque_iteratorISt4pairIddERS1_PS1_EmmEv
FN:353,_ZStmiRKSt15_Deque_iteratorISt4pairIddERS1_PS1_ES6_
FNDA:0,_ZStmiRKSt15_Deque_iteratorISt4pairIddERS1_PS1_ES6_
FN:434,_ZNSt11_Deque_baseISt4pairIddESaIS1_EEC2Ev
FNDA:138,_ZNSt11_Deque_baseISt4pairIddESaIS1_EEC2Ev
FN:593,_ZNSt11_Deque_baseISt4pairIddESaIS1_EED2Ev
FNDA:138,_ZNSt11_Deque_baseISt4pairIddESaIS1_EED2Ev
FN:614,_ZNSt11_Deque_baseISt4pairIddESaIS1_EE17_M_initialize_mapEm
FNDA:138,_ZNSt11_Deque_baseISt4pairIddESaIS1_EE17_M_initialize_mapEm
FN:653,_ZNSt11_Deque_baseISt4pairIddESaIS1_EE15_M_create_nodesEPPS1_S5_
FNDA:138,_ZNSt11_Deque_baseISt4pairIddESaIS1_EE15_M_create_nodesEPPS1_S5_
FN:1424,_ZNSt5dequeISt4pairIddESaIS1_EE4backEv
FNDA:4417380,_ZNSt5dequeISt4pairIddESaIS1_EE4backEv
FN:1552,_ZNSt5dequeISt4pairIddESaIS1_EE8pop_backEv
FNDA:2208690,_ZNSt5dequeISt4pairIddESaIS1_EE8pop_backEv
FN:2123,_ZNSt5dequeISt4pairIddESaIS1_EE22_M_reserve_map_at_backEm
FNDA:0,_ZNSt5dequeISt4pairIddESaIS1_EE22_M_reserve_map_at_backEm
FNF:9
FNH:7
DA:151,138
DA:152,138
DA:169,4417380
DA:170,4417380
DA:181,4417380
DA:208,4417380
DA:210,4417380
DA:212,0
DA:213,0
DA:215,4417380
DA:216,4417380
DA:262,138
DA:263,138
DA:264,0
DA:269,2208828
DA:353,0
DA:356,0
DA:357,0
DA:434,138
DA:436,276
DA:492,138
DA:493,138
DA:573,0
DA:581,138
DA:593,138
DA:596,138
DA:598,138
DA:599,138
DA:600,138
DA:602,138
DA:614,138
DA:617,138
DA:620,276
DA:621,138
DA:622,138
DA:629,138
DA:630,138
DA:631,138
DA:634,138
DA:635,0
DA:637,0
DA:638,0
DA:639,0
DA:640,0
DA:644,138
DA:645,138
DA:646,138
DA:647,138
DA:648,138
DA:649,138
DA:653,138
DA:659,276
DA:660,138
DA:662,0
DA:665,0
DA:667,138
DA:675,276
DA:676,138
DA:831,138
DA:1004,138
DA:1231,0
DA:1424,4417380
DA:1428,4417380
DA:1429,4417380
DA:1552,2208690
DA:1555,2208690
DA:1556,2208690
DA:1558,2208690
DA:1563,0
DA:1564,2208690
DA:2123,0
DA:2125,0
DA:2126,0
DA:2127,0
DA:2128,0
LF:75
LH:54
end_of_record
SF:/home/runner/work/raccoon/raccoon/build/header_symlinks/LargeDeformationPlasticityModel.h
FN:42,_ZN31LargeDeformationPlasticityModel17resetQpPropertiesEv
FNDA:0,_ZN31LargeDeformationPlasticityModel17resetQpPropertiesEv
FN:43,_ZN31LargeDeformationPlasticityModel15resetPropertiesEv
FNDA:43099,_ZN31LargeDeformationPlasticityModel15resetPropertiesEv
FNF:2
FNH:1
DA:42,0
DA:43,43099
LF:2
LH:1
end_of_record
SF:/home/runner/work/raccoon/raccoon/src/materials/nucleation_models/LDLNucleationMicroForce.C
FN:10,_ZN23LDLNucleationMicroForce11validParamsEv
FNDA:130,_ZN23LDLNucleationMicroForce11validParamsEv
FN:27,_ZN23LDLNucleationMicroForceC2ERK15InputParameters
FNDA:3,_ZN23LDLNucleationMicroForceC2ERK15InputParameters
FN:37,_ZN23LDLNucleationMicroForce19computeQpPropertiesEv
FNDA:256560,_ZN23LDLNucleationMicroForce19computeQpPropertiesEv
FNF:3
FNH:3
DA:10,130
DA:12,130
DA:14,130
DA:17,260
DA:19,260
DA:22,260
DA:23,260
DA:24,130
DA:27,3
DA:29,6
DA:30,6
DA:31,6
DA:32,18
DA:34,3
DA:37,256560
DA:40,513120
DA:43,769680
DA:46,256560
DA:49,256560
DA:50,256560
DA:51,513120
DA:55,256560
DA:56,0
DA:59,256560
DA:60,1200
DA:63,256560
DA:64,256560
DA:67,256560
DA:70,0
DA:71,0
DA:72,0
DA:73,0
DA:78,256560
DA:81,1026240
DA:82,513120
DA:83,256560
DA:84,256560
DA:85,1026240
DA:90,513120
DA:91,513120
DA:92,256560
DA:93,256560
DA:94,513120
DA:97,256560
DA:98,256560
DA:99,769680
DA:100,1282800
DA:102,256560
DA:103,1026240
DA:104,256560
LF:50
LH:45
end_of_record
SF:/home/runner/micromamba/envs/moose/libmesh/include/Eigen/src/Core/DenseStorage.h
DA:621,0
LF:1
LH:0
end_of_record
SF:/home/runner/work/raccoon/raccoon/src/materials/hardening_models/PowerLawHardening.C
FN:10,_ZN17PowerLawHardening11validParamsEv
FNDA:154,_ZN17PowerLawHardening11validParamsEv
FN:31,_ZN17PowerLawHardeningC2ERK15InputParameters
FNDA:21,_ZN17PowerLawHardeningC2ERK15InputParameters
FN:54,_ZN17PowerLawHardening13plasticEnergyERKN11MetaPhysicL10DualNumberIdNS0_28SemiDynamicSparseNumberArrayIdmNS0_8NWrapperILm64EEEEELb1EEEj
FNDA:701802,_ZN17PowerLawHardening13plasticEnergyERKN11MetaPhysicL10DualNumberIdNS0_28SemiDynamicSparseNumberArrayIdmNS0_8NWrapperILm64EEEEELb1EEEj
FNF:3
FNH:3
DA:10,154
DA:12,154
DA:13,154
DA:15,308
DA:16,308
DA:18,308
DA:21,308
DA:22,308
DA:26,308
DA:28,154
DA:31,21
DA:34,42
DA:35,42
DA:36,42
DA:38,42
DA:42,21
DA:43,21
DA:44,63
DA:48,21
DA:49,273
DA:51,21
DA:54,701802
DA:56,701802
DA:58,565456
DA:59,1413640
DA:60,565456
DA:61,565456
DA:62,282728
DA:65,419074
DA:66,1754505
DA:68,68173
DA:69,340865
DA:70,68173
DA:72,0
LF:34
LH:33
end_of_record
SF:/home/runner/micromamba/envs/moose/x86_64-conda-linux-gnu/include/c++/10.4.0/cmath
DA:418,1678560
LF:1
LH:1
end_of_record
SF:/home/runner/work/raccoon/raccoon/moose/framework/build/header_symlinks/MooseBaseErrorInterface.h
FN:29,_ZNK23MooseBaseErrorInterface10mooseErrorIJRA60_KcEEEvDpOT_
FNDA:0,_ZNK23MooseBaseErrorInterface10mooseErrorIJRA60_KcEEEvDpOT_
FN:29,_ZNK23MooseBaseErrorInterface10mooseErrorIJRKNSt7__cxx1112basic_stringIcSt11char_traitsIcESaIcEEERA46_KcEEEvDpOT_
FNDA:0,_ZNK23MooseBaseErrorInterface10mooseErrorIJRKNSt7__cxx1112basic_stringIcSt11char_traitsIcESaIcEEERA46_KcEEEvDpOT_
FN:29,_ZNK23MooseBaseErrorInterface10mooseErrorIJRA117_KcEEEvDpOT_
FNDA:0,_ZNK23MooseBaseErrorInterface10mooseErrorIJRA117_KcEEEvDpOT_
FN:29,_ZNK23MooseBaseErrorInterface10mooseErrorIJRA105_KcEEEvDpOT_
FNDA:0,_ZNK23MooseBaseErrorInterface10mooseErrorIJRA105_KcEEEvDpOT_
FN:29,_ZNK23MooseBaseErrorInterface10mooseErrorIJRA94_KcEEEvDpOT_
FNDA:0,_ZNK23MooseBaseErrorInterface10mooseErrorIJRA94_KcEEEvDpOT_
FNF:5
FNH:0
DA:20,0
DA:29,0
DA:31,0
DA:33,0
DA:29,0
DA:31,0
DA:32,0
DA:33,0
DA:29,0
DA:31,0
DA:33,0
DA:29,0
DA:31,0
DA:33,0
DA:29,0
DA:31,0
DA:33,0
LF:17
LH:0
end_of_record
SF:/home/runner/work/raccoon/raccoon/moose/framework/build/header_symlinks/MooseFunctor.h
FN:152,_ZN5Moose11FunctorBaseIdED2Ev
FNDA:0,_ZN5Moose11FunctorBaseIdED2Ev
FN:152,_ZN5Moose11FunctorBaseIdED0Ev
FNDA:0,_ZN5Moose11FunctorBaseIdED0Ev
FN:152,_ZN5Moose11FunctorBaseIN11MetaPhysicL10DualNumberIdNS1_28SemiDynamicSparseNumberArrayIdmNS1_8NWrapperILm64EEEEELb1EEEED2Ev
FNDA:0,_ZN5Moose11FunctorBaseIN11MetaPhysicL10DualNumberIdNS1_28SemiDynamicSparseNumberArrayIdmNS1_8NWrapperILm64EEEEELb1EEEED2Ev
FN:152,_ZN5Moose11FunctorBaseIN11MetaPhysicL10DualNumberIdNS1_28SemiDynamicSparseNumberArrayIdmNS1_8NWrapperILm64EEEEELb1EEEED0Ev
FNDA:0,_ZN5Moose11FunctorBaseIN11MetaPhysicL10DualNumberIdNS1_28SemiDynamicSparseNumberArrayIdmNS1_8NWrapperILm64EEEEELb1EEEED0Ev
FN:237,_ZNK5Moose11FunctorBaseIN11MetaPhysicL10DualNumberIdNS1_28SemiDynamicSparseNumberArrayIdmNS1_8NWrapperILm64EEEEELb1EEEE9hasBlocksEt
FNDA:0,_ZNK5Moose11FunctorBaseIN11MetaPhysicL10DualNumberIdNS1_28SemiDynamicSparseNumberArrayIdmNS1_8NWrapperILm64EEEEELb1EEEE9hasBlocksEt
FN:237,_ZNK5Moose11FunctorBaseIdE9hasBlocksEt
FNDA:0,_ZNK5Moose11FunctorBaseIdE9hasBlocksEt
FN:247,_ZNK5Moose11FunctorBaseIN11MetaPhysicL10DualNumberIdNS1_28SemiDynamicSparseNumberArrayIdmNS1_8NWrapperILm64EEEEELb1EEEE26isExtrapolatedBoundaryFaceERK8FaceInfoPKN7libMesh4ElemERKNS_8StateArgE
FNDA:0,_ZNK5Moose11FunctorBaseIN11MetaPhysicL10DualNumberIdNS1_28SemiDynamicSparseNumberArrayIdmNS1_8NWrapperILm64EEEEELb1EEEE26isExtrapolatedBoundaryFaceERK8FaceInfoPKN7libMesh4ElemERKNS_8StateArgE
FN:247,_ZNK5Moose11FunctorBaseIdE26isExtrapolatedBoundaryFaceERK8FaceInfoPKN7libMesh4ElemERKNS_8StateArgE
FNDA:0,_ZNK5Moose11FunctorBaseIdE26isExtrapolatedBoundaryFaceERK8FaceInfoPKN7libMesh4ElemERKNS_8StateArgE
FN:260,_ZNK5Moose11FunctorBaseIN11MetaPhysicL10DualNumberIdNS1_28SemiDynamicSparseNumberArrayIdmNS1_8NWrapperILm64EEEEELb1EEEE10isConstantEv
FNDA:0,_ZNK5Moose11FunctorBaseIN11MetaPhysicL10DualNumberIdNS1_28SemiDynamicSparseNumberArrayIdmNS1_8NWrapperILm64EEEEELb1EEEE10isConstantEv
FN:260,_ZNK5Moose11FunctorBaseIdE10isConstantEv
FNDA:0,_ZNK5Moose11FunctorBaseIdE10isConstantEv
FN:332,_ZNK5Moose11FunctorBaseIN11MetaPhysicL10DualNumberIdNS1_28SemiDynamicSparseNumberArrayIdmNS1_8NWrapperILm64EEEEELb1EEEE16evaluateGradientERKNS_7ElemArgERKNS_8StateArgE
FNDA:0,_ZNK5Moose11FunctorBaseIN11MetaPhysicL10DualNumberIdNS1_28SemiDynamicSparseNumberArrayIdmNS1_8NWrapperILm64EEEEELb1EEEE16evaluateGradientERKNS_7ElemArgERKNS_8StateArgE
FN:332,_ZNK5Moose11FunctorBaseIdE16evaluateGradientERKNS_7ElemArgERKNS_8StateArgE
FNDA:0,_ZNK5Moose11FunctorBaseIdE16evaluateGradientERKNS_7ElemArgERKNS_8StateArgE
FN:342,_ZNK5Moose11FunctorBaseIN11MetaPhysicL10DualNumberIdNS1_28SemiDynamicSparseNumberArrayIdmNS1_8NWrapperILm64EEEEELb1EEEE16evaluateGradientERKNS_7FaceArgERKNS_8StateArgE
FNDA:0,_ZNK5Moose11FunctorBaseIN11MetaPhysicL10DualNumberIdNS1_28SemiDynamicSparseNumberArrayIdmNS1_8NWrapperILm64EEEEELb1EEEE16evaluateGradientERKNS_7FaceArgERKNS_8StateArgE
FN:342,_ZNK5Moose11FunctorBaseIdE16evaluateGradientERKNS_7FaceArgERKNS_8StateArgE
FNDA:0,_ZNK5Moose11FunctorBaseIdE16evaluateGradientERKNS_7FaceArgERKNS_8StateArgE
FN:352,_ZNK5Moose11FunctorBaseIdE16evaluateGradientERKNS_9ElemQpArgERKNS_8StateArgE
FNDA:0,_ZNK5Moose11FunctorBaseIdE16evaluateGradientERKNS_9ElemQpArgERKNS_8StateArgE
FN:352,_ZNK5Moose11FunctorBaseIN11MetaPhysicL10DualNumberIdNS1_28SemiDynamicSparseNumberArrayIdmNS1_8NWrapperILm64EEEEELb1EEEE16evaluateGradientERKNS_9ElemQpArgERKNS_8StateArgE
FNDA:0,_ZNK5Moose11FunctorBaseIN11MetaPhysicL10DualNumberIdNS1_28SemiDynamicSparseNumberArrayIdmNS1_8NWrapperILm64EEEEELb1EEEE16evaluateGradientERKNS_9ElemQpArgERKNS_8StateArgE
FN:362,_ZNK5Moose11FunctorBaseIN11MetaPhysicL10DualNumberIdNS1_28SemiDynamicSparseNumberArrayIdmNS1_8NWrapperILm64EEEEELb1EEEE16evaluateGradientERKNS_13ElemSideQpArgERKNS_8StateArgE
FNDA:0,_ZNK5Moose11FunctorBaseIN11MetaPhysicL10DualNumberIdNS1_28SemiDynamicSparseNumberArrayIdmNS1_8NWrapperILm64EEEEELb1EEEE16evaluateGradientERKNS_13ElemSideQpArgERKNS_8StateArgE
FN:362,_ZNK5Moose11FunctorBaseIdE16evaluateGradientERKNS_13ElemSideQpArgERKNS_8StateArgE
FNDA:0,_ZNK5Moose11FunctorBaseIdE16evaluateGradientERKNS_13ElemSideQpArgERKNS_8StateArgE
FN:371,_ZNK5Moose11FunctorBaseIdE16evaluateGradientERKNS_12ElemPointArgERKNS_8StateArgE
FNDA:0,_ZNK5Moose11FunctorBaseIdE16evaluateGradientERKNS_12ElemPointArgERKNS_8StateArgE
FN:371,_ZNK5Moose11FunctorBaseIN11MetaPhysicL10DualNumberIdNS1_28SemiDynamicSparseNumberArrayIdmNS1_8NWrapperILm64EEEEELb1EEEE16evaluateGradientERKNS_12ElemPointArgERKNS_8StateArgE
FNDA:0,_ZNK5Moose11FunctorBaseIN11MetaPhysicL10DualNumberIdNS1_28SemiDynamicSparseNumberArrayIdmNS1_8NWrapperILm64EEEEELb1EEEE16evaluateGradientERKNS_12ElemPointArgERKNS_8StateArgE
FN:376,_ZNK5Moose11FunctorBaseIdE16evaluateGradientERKNS_7NodeArgERKNS_8StateArgE
FNDA:0,_ZNK5Moose11FunctorBaseIdE16evaluateGradientERKNS_7NodeArgERKNS_8StateArgE
FN:376,_ZNK5Moose11FunctorBaseIN11MetaPhysicL10DualNumberIdNS1_28SemiDynamicSparseNumberArrayIdmNS1_8NWrapperILm64EEEEELb1EEEE16evaluateGradientERKNS_7NodeArgERKNS_8StateArgE
FNDA:0,_ZNK5Moose11FunctorBaseIN11MetaPhysicL10DualNumberIdNS1_28SemiDynamicSparseNumberArrayIdmNS1_8NWrapperILm64EEEEELb1EEEE16evaluateGradientERKNS_7NodeArgERKNS_8StateArgE
FN:385,_ZNK5Moose11FunctorBaseIN11MetaPhysicL10DualNumberIdNS1_28SemiDynamicSparseNumberArrayIdmNS1_8NWrapperILm64EEEEELb1EEEE11evaluateDotERKNS_7ElemArgERKNS_8StateArgE
FNDA:0,_ZNK5Moose11FunctorBaseIN11MetaPhysicL10DualNumberIdNS1_28SemiDynamicSparseNumberArrayIdmNS1_8NWrapperILm64EEEEELb1EEEE11evaluateDotERKNS_7ElemArgERKNS_8StateArgE
FN:385,_ZNK5Moose11FunctorBaseIdE11evaluateDotERKNS_7ElemArgERKNS_8StateArgE
FNDA:0,_ZNK5Moose11FunctorBaseIdE11evaluateDotERKNS_7ElemArgERKNS_8StateArgE
FN:395,_ZNK5Moose11FunctorBaseIN11MetaPhysicL10DualNumberIdNS1_28SemiDynamicSparseNumberArrayIdmNS1_8NWrapperILm64EEEEELb1EEEE11evaluateDotERKNS_7FaceArgERKNS_8StateArgE
FNDA:0,_ZNK5Moose11FunctorBaseIN11MetaPhysicL10DualNumberIdNS1_28SemiDynamicSparseNumberArrayIdmNS1_8NWrapperILm64EEEEELb1EEEE11evaluateDotERKNS_7FaceArgERKNS_8StateArgE
FN:395,_ZNK5Moose11FunctorBaseIdE11evaluateDotERKNS_7FaceArgERKNS_8StateArgE
FNDA:0,_ZNK5Moose11FunctorBaseIdE11evaluateDotERKNS_7FaceArgERKNS_8StateArgE
FN:405,_ZNK5Moose11FunctorBaseIN11MetaPhysicL10DualNumberIdNS1_28SemiDynamicSparseNumberArrayIdmNS1_8NWrapperILm64EEEEELb1EEEE11evaluateDotERKNS_9ElemQpArgERKNS_8StateArgE
FNDA:0,_ZNK5Moose11FunctorBaseIN11MetaPhysicL10DualNumberIdNS1_28SemiDynamicSparseNumberArrayIdmNS1_8NWrapperILm64EEEEELb1EEEE11evaluateDotERKNS_9ElemQpArgERKNS_8StateArgE
FN:405,_ZNK5Moose11FunctorBaseIdE11evaluateDotERKNS_9ElemQpArgERKNS_8StateArgE
FNDA:0,_ZNK5Moose11FunctorBaseIdE11evaluateDotERKNS_9ElemQpArgERKNS_8StateArgE
FN:416,_ZNK5Moose11FunctorBaseIN11MetaPhysicL10DualNumberIdNS1_28SemiDynamicSparseNumberArrayIdmNS1_8NWrapperILm64EEEEELb1EEEE11evaluateDotERKNS_13ElemSideQpArgERKNS_8StateArgE
FNDA:0,_ZNK5Moose11FunctorBaseIN11MetaPhysicL10DualNumberIdNS1_28SemiDynamicSparseNumberArrayIdmNS1_8NWrapperILm64EEEEELb1EEEE11evaluateDotERKNS_13ElemSideQpArgERKNS_8StateArgE
FN:416,_ZNK5Moose11FunctorBaseIdE11evaluateDotERKNS_13ElemSideQpArgERKNS_8StateArgE
FNDA:0,_ZNK5Moose11FunctorBaseIdE11evaluateDotERKNS_13ElemSideQpArgERKNS_8StateArgE
FN:425,_ZNK5Moose11FunctorBaseIN11MetaPhysicL10DualNumberIdNS1_28SemiDynamicSparseNumberArrayIdmNS1_8NWrapperILm64EEEEELb1EEEE11evaluateDotERKNS_12ElemPointArgERKNS_8StateArgE
FNDA:0,_ZNK5Moose11FunctorBaseIN11MetaPhysicL10DualNumberIdNS1_28SemiDynamicSparseNumberArrayIdmNS1_8NWrapperILm64EEEEELb1EEEE11evaluateDotERKNS_12ElemPointArgERKNS_8StateArgE
FN:425,_ZNK5Moose11FunctorBaseIdE11evaluateDotERKNS_12ElemPointArgERKNS_8StateArgE
FNDA:0,_ZNK5Moose11FunctorBaseIdE11evaluateDotERKNS_12ElemPointArgERKNS_8StateArgE
FN:430,_ZNK5Moose11FunctorBaseIdE11evaluateDotERKNS_7NodeArgERKNS_8StateArgE
FNDA:0,_ZNK5Moose11FunctorBaseIdE11evaluateDotERKNS_7NodeArgERKNS_8StateArgE
FN:430,_ZNK5Moose11FunctorBaseIN11MetaPhysicL10DualNumberIdNS1_28SemiDynamicSparseNumberArrayIdmNS1_8NWrapperILm64EEEEELb1EEEE11evaluateDotERKNS_7NodeArgERKNS_8StateArgE
FNDA:0,_ZNK5Moose11FunctorBaseIN11MetaPhysicL10DualNumberIdNS1_28SemiDynamicSparseNumberArrayIdmNS1_8NWrapperILm64EEEEELb1EEEE11evaluateDotERKNS_7NodeArgERKNS_8StateArgE
FN:439,_ZNK5Moose11FunctorBaseIdE15evaluateGradDotERKNS_7ElemArgERKNS_8StateArgE
FNDA:0,_ZNK5Moose11FunctorBaseIdE15evaluateGradDotERKNS_7ElemArgERKNS_8StateArgE
FN:439,_ZNK5Moose11FunctorBaseIN11MetaPhysicL10DualNumberIdNS1_28SemiDynamicSparseNumberArrayIdmNS1_8NWrapperILm64EEEEELb1EEEE15evaluateGradDotERKNS_7ElemArgERKNS_8StateArgE
FNDA:0,_ZNK5Moose11FunctorBaseIN11MetaPhysicL10DualNumberIdNS1_28SemiDynamicSparseNumberArrayIdmNS1_8NWrapperILm64EEEEELb1EEEE15evaluateGradDotERKNS_7ElemArgERKNS_8StateArgE
FN:449,_ZNK5Moose11FunctorBaseIdE15evaluateGradDotERKNS_7FaceArgERKNS_8StateArgE
FNDA:0,_ZNK5Moose11FunctorBaseIdE15evaluateGradDotERKNS_7FaceArgERKNS_8StateArgE
FN:449,_ZNK5Moose11FunctorBaseIN11MetaPhysicL10DualNumberIdNS1_28SemiDynamicSparseNumberArrayIdmNS1_8NWrapperILm64EEEEELb1EEEE15evaluateGradDotERKNS_7FaceArgERKNS_8StateArgE
FNDA:0,_ZNK5Moose11FunctorBaseIN11MetaPhysicL10DualNumberIdNS1_28SemiDynamicSparseNumberArrayIdmNS1_8NWrapperILm64EEEEELb1EEEE15evaluateGradDotERKNS_7FaceArgERKNS_8StateArgE
FN:459,_ZNK5Moose11FunctorBaseIN11MetaPhysicL10DualNumberIdNS1_28SemiDynamicSparseNumberArrayIdmNS1_8NWrapperILm64EEEEELb1EEEE15evaluateGradDotERKNS_9ElemQpArgERKNS_8StateArgE
FNDA:0,_ZNK5Moose11FunctorBaseIN11MetaPhysicL10DualNumberIdNS1_28SemiDynamicSparseNumberArrayIdmNS1_8NWrapperILm64EEEEELb1EEEE15evaluateGradDotERKNS_9ElemQpArgERKNS_8StateArgE
FN:459,_ZNK5Moose11FunctorBaseIdE15evaluateGradDotERKNS_9ElemQpArgERKNS_8StateArgE
FNDA:0,_ZNK5Moose11FunctorBaseIdE15evaluateGradDotERKNS_9ElemQpArgERKNS_8StateArgE
FN:470,_ZNK5Moose11FunctorBaseIN11MetaPhysicL10DualNumberIdNS1_28SemiDynamicSparseNumberArrayIdmNS1_8NWrapperILm64EEEEELb1EEEE15evaluateGradDotERKNS_13ElemSideQpArgERKNS_8StateArgE
FNDA:0,_ZNK5Moose11FunctorBaseIN11MetaPhysicL10DualNumberIdNS1_28SemiDynamicSparseNumberArrayIdmNS1_8NWrapperILm64EEEEELb1EEEE15evaluateGradDotERKNS_13ElemSideQpArgERKNS_8StateArgE
FN:470,_ZNK5Moose11FunctorBaseIdE15evaluateGradDotERKNS_13ElemSideQpArgERKNS_8StateArgE
FNDA:0,_ZNK5Moose11FunctorBaseIdE15evaluateGradDotERKNS_13ElemSideQpArgERKNS_8StateArgE
FN:479,_ZNK5Moose11FunctorBaseIN11MetaPhysicL10DualNumberIdNS1_28SemiDynamicSparseNumberArrayIdmNS1_8NWrapperILm64EEEEELb1EEEE15evaluateGradDotERKNS_12ElemPointArgERKNS_8StateArgE
FNDA:0,_ZNK5Moose11FunctorBaseIN11MetaPhysicL10DualNumberIdNS1_28SemiDynamicSparseNumberArrayIdmNS1_8NWrapperILm64EEEEELb1EEEE15evaluateGradDotERKNS_12ElemPointArgERKNS_8StateArgE
FN:479,_ZNK5Moose11FunctorBaseIdE15evaluateGradDotERKNS_12ElemPointArgERKNS_8StateArgE
FNDA:0,_ZNK5Moose11FunctorBaseIdE15evaluateGradDotERKNS_12ElemPointArgERKNS_8StateArgE
FN:484,_ZNK5Moose11FunctorBaseIN11MetaPhysicL10DualNumberIdNS1_28SemiDynamicSparseNumberArrayIdmNS1_8NWrapperILm64EEEEELb1EEEE15evaluateGradDotERKNS_7NodeArgERKNS_8StateArgE
FNDA:0,_ZNK5Moose11FunctorBaseIN11MetaPhysicL10DualNumberIdNS1_28SemiDynamicSparseNumberArrayIdmNS1_8NWrapperILm64EEEEELb1EEEE15evaluateGradDotERKNS_7NodeArgERKNS_8StateArgE
FN:484,_ZNK5Moose11FunctorBaseIdE15evaluateGradDotERKNS_7NodeArgERKNS_8StateArgE
FNDA:0,_ZNK5Moose11FunctorBaseIdE15evaluateGradDotERKNS_7NodeArgERKNS_8StateArgE
FN:580,_ZNK5Moose11FunctorBaseIN11MetaPhysicL10DualNumberIdNS1_28SemiDynamicSparseNumberArrayIdmNS1_8NWrapperILm64EEEEELb1EEEE15queryFVArgCacheINS_7ElemArgEEES7_RSt3mapIT_S7_St4lessISC_ESaISt4pairIKSC_S7_EEERSG_
FNDA:0,_ZNK5Moose11FunctorBaseIN11MetaPhysicL10DualNumberIdNS1_28SemiDynamicSparseNumberArrayIdmNS1_8NWrapperILm64EEEEELb1EEEE15queryFVArgCacheINS_7ElemArgEEES7_RSt3mapIT_S7_St4lessISC_ESaISt4pairIKSC_S7_EEERSG_
FN:580,_ZNK5Moose11FunctorBaseIdE15queryFVArgCacheINS_7FaceArgEEEdRSt3mapIT_dSt4lessIS5_ESaISt4pairIKS5_dEEERS9_
FNDA:0,_ZNK5Moose11FunctorBaseIdE15queryFVArgCacheINS_7FaceArgEEEdRSt3mapIT_dSt4lessIS5_ESaISt4pairIKS5_dEEERS9_
FN:580,_ZNK5Moose11FunctorBaseIdE15queryFVArgCacheINS_7ElemArgEEEdRSt3mapIT_dSt4lessIS5_ESaISt4pairIKS5_dEEERS9_
FNDA:0,_ZNK5Moose11FunctorBaseIdE15queryFVArgCacheINS_7ElemArgEEEdRSt3mapIT_dSt4lessIS5_ESaISt4pairIKS5_dEEERS9_
FN:580,_ZNK5Moose11FunctorBaseIN11MetaPhysicL10DualNumberIdNS1_28SemiDynamicSparseNumberArrayIdmNS1_8NWrapperILm64EEEEELb1EEEE15queryFVArgCacheINS_7FaceArgEEES7_RSt3mapIT_S7_St4lessISC_ESaISt4pairIKSC_S7_EEERSG_
FNDA:0,_ZNK5Moose11FunctorBaseIN11MetaPhysicL10DualNumberIdNS1_28SemiDynamicSparseNumberArrayIdmNS1_8NWrapperILm64EEEEELb1EEEE15queryFVArgCacheINS_7FaceArgEEES7_RSt3mapIT_S7_St4lessISC_ESaISt4pairIKSC_S7_EEERSG_
FN:597,_ZNK5Moose11FunctorBaseIdEclERKNS_7ElemArgERKNS_8StateArgE
FNDA:0,_ZNK5Moose11FunctorBaseIdEclERKNS_7ElemArgERKNS_8StateArgE
FN:597,_ZNK5Moose11FunctorBaseIN11MetaPhysicL10DualNumberIdNS1_28SemiDynamicSparseNumberArrayIdmNS1_8NWrapperILm64EEEEELb1EEEEclERKNS_7ElemArgERKNS_8StateArgE
FNDA:0,_ZNK5Moose11FunctorBaseIN11MetaPhysicL10DualNumberIdNS1_28SemiDynamicSparseNumberArrayIdmNS1_8NWrapperILm64EEEEELb1EEEEclERKNS_7ElemArgERKNS_8StateArgE
FN:610,_ZNK5Moose11FunctorBaseIdEclERKNS_7FaceArgERKNS_8StateArgE
FNDA:0,_ZNK5Moose11FunctorBaseIdEclERKNS_7FaceArgERKNS_8StateArgE
FN:610,_ZNK5Moose11FunctorBaseIN11MetaPhysicL10DualNumberIdNS1_28SemiDynamicSparseNumberArrayIdmNS1_8NWrapperILm64EEEEELb1EEEEclERKNS_7FaceArgERKNS_8StateArgE
FNDA:0,_ZNK5Moose11FunctorBaseIN11MetaPhysicL10DualNumberIdNS1_28SemiDynamicSparseNumberArrayIdmNS1_8NWrapperILm64EEEEELb1EEEEclERKNS_7FaceArgERKNS_8StateArgE
FN:626,_ZNK5Moose11FunctorBaseIdE12queryQpCacheINS_9ElemQpArgENS_8StateArgEEEdjRKN7libMesh5QBaseERSt6vectorISt4pairIbdESaISB_EERKT_RKT0_
FNDA:0,_ZNK5Moose11FunctorBaseIdE12queryQpCacheINS_9ElemQpArgENS_8StateArgEEEdjRKN7libMesh5QBaseERSt6vectorISt4pairIbdESaISB_EERKT_RKT0_
FN:626,_ZNK5Moose11FunctorBaseIdE12queryQpCacheINS_13ElemSideQpArgENS_8StateArgEEEdjRKN7libMesh5QBaseERSt6vectorISt4pairIbdESaISB_EERKT_RKT0_
FNDA:0,_ZNK5Moose11FunctorBaseIdE12queryQpCacheINS_13ElemSideQpArgENS_8StateArgEEEdjRKN7libMesh5QBaseERSt6vectorISt4pairIbdESaISB_EERKT_RKT0_
FN:626,_ZNK5Moose11FunctorBaseIN11MetaPhysicL10DualNumberIdNS1_28SemiDynamicSparseNumberArrayIdmNS1_8NWrapperILm64EEEEELb1EEEE12queryQpCacheINS_13ElemSideQpArgENS_8StateArgEEES7_jRKN7libMesh5QBaseERSt6vectorISt4pairIbS7_ESaISI_EERKT_RKT0_
FNDA:0,_ZNK5Moose11FunctorBaseIN11MetaPhysicL10DualNumberIdNS1_28SemiDynamicSparseNumberArrayIdmNS1_8NWrapperILm64EEEEELb1EEEE12queryQpCacheINS_13ElemSideQpArgENS_8StateArgEEES7_jRKN7libMesh5QBaseERSt6vectorISt4pairIbS7_ESaISI_EERKT_RKT0_
FN:626,_ZNK5Moose11FunctorBaseIN11MetaPhysicL10DualNumberIdNS1_28SemiDynamicSparseNumberArrayIdmNS1_8NWrapperILm64EEEEELb1EEEE12queryQpCacheINS_9ElemQpArgENS_8StateArgEEES7_jRKN7libMesh5QBaseERSt6vectorISt4pairIbS7_ESaISI_EERKT_RKT0_
FNDA:0,_ZNK5Moose11FunctorBaseIN11MetaPhysicL10DualNumberIdNS1_28SemiDynamicSparseNumberArrayIdmNS1_8NWrapperILm64EEEEELb1EEEE12queryQpCacheINS_9ElemQpArgENS_8StateArgEEES7_jRKN7libMesh5QBaseERSt6vectorISt4pairIbS7_ESaISI_EERKT_RKT0_
FN:656,_ZNK5Moose11FunctorBaseIN11MetaPhysicL10DualNumberIdNS1_28SemiDynamicSparseNumberArrayIdmNS1_8NWrapperILm64EEEEELb1EEEEclERKNS_9ElemQpArgERKNS_8StateArgE
FNDA:0,_ZNK5Moose11FunctorBaseIN11MetaPhysicL10DualNumberIdNS1_28SemiDynamicSparseNumberArrayIdmNS1_8NWrapperILm64EEEEELb1EEEEclERKNS_9ElemQpArgERKNS_8StateArgE
FN:656,_ZNK5Moose11FunctorBaseIdEclERKNS_9ElemQpArgERKNS_8StateArgE
FNDA:0,_ZNK5Moose11FunctorBaseIdEclERKNS_9ElemQpArgERKNS_8StateArgE
FN:677,_ZNK5Moose11FunctorBaseIN11MetaPhysicL10DualNumberIdNS1_28SemiDynamicSparseNumberArrayIdmNS1_8NWrapperILm64EEEEELb1EEEEclERKNS_13ElemSideQpArgERKNS_8StateArgE
FNDA:0,_ZNK5Moose11FunctorBaseIN11MetaPhysicL10DualNumberIdNS1_28SemiDynamicSparseNumberArrayIdmNS1_8NWrapperILm64EEEEELb1EEEEclERKNS_13ElemSideQpArgERKNS_8StateArgE
FN:677,_ZNK5Moose11FunctorBaseIdEclERKNS_13ElemSideQpArgERKNS_8StateArgE
FNDA:0,_ZNK5Moose11FunctorBaseIdEclERKNS_13ElemSideQpArgERKNS_8StateArgE
FN:788,_ZN5Moose11FunctorBaseIN11MetaPhysicL10DualNumberIdNS1_28SemiDynamicSparseNumberArrayIdmNS1_8NWrapperILm64EEEEELb1EEEE14clearCacheDataEv
FNDA:0,_ZN5Moose11FunctorBaseIN11MetaPhysicL10DualNumberIdNS1_28SemiDynamicSparseNumberArrayIdmNS1_8NWrapperILm64EEEEELb1EEEE14clearCacheDataEv
FN:788,_ZN5Moose11FunctorBaseIdE14clearCacheDataEv
FNDA:0,_ZN5Moose11FunctorBaseIdE14clearCacheDataEv
FN:814,_ZN5Moose11FunctorBaseIdE13timestepSetupEv
FNDA:0,_ZN5Moose11FunctorBaseIdE13timestepSetupEv
FN:814,_ZN5Moose11FunctorBaseIN11MetaPhysicL10DualNumberIdNS1_28SemiDynamicSparseNumberArrayIdmNS1_8NWrapperILm64EEEEELb1EEEE13timestepSetupEv
FNDA:0,_ZN5Moose11FunctorBaseIN11MetaPhysicL10DualNumberIdNS1_28SemiDynamicSparseNumberArrayIdmNS1_8NWrapperILm64EEEEELb1EEEE13timestepSetupEv
FN:822,_ZN5Moose11FunctorBaseIdE13residualSetupEv
FNDA:0,_ZN5Moose11FunctorBaseIdE13residualSetupEv
FN:822,_ZN5Moose11FunctorBaseIN11MetaPhysicL10DualNumberIdNS1_28SemiDynamicSparseNumberArrayIdmNS1_8NWrapperILm64EEEEELb1EEEE13residualSetupEv
FNDA:0,_ZN5Moose11FunctorBaseIN11MetaPhysicL10DualNumberIdNS1_28SemiDynamicSparseNumberArrayIdmNS1_8NWrapperILm64EEEEELb1EEEE13residualSetupEv
FN:830,_ZN5Moose11FunctorBaseIdE13jacobianSetupEv
FNDA:0,_ZN5Moose11FunctorBaseIdE13jacobianSetupEv
FN:830,_ZN5Moose11FunctorBaseIN11MetaPhysicL10DualNumberIdNS1_28SemiDynamicSparseNumberArrayIdmNS1_8NWrapperILm64EEEEELb1EEEE13jacobianSetupEv
FNDA:0,_ZN5Moose11FunctorBaseIN11MetaPhysicL10DualNumberIdNS1_28SemiDynamicSparseNumberArrayIdmNS1_8NWrapperILm64EEEEELb1EEEE13jacobianSetupEv
FN:838,_ZN5Moose11FunctorBaseIdE11customSetupERK13MooseEnumItem
FNDA:0,_ZN5Moose11FunctorBaseIdE11customSetupERK13MooseEnumItem
FN:838,_ZN5Moose11FunctorBaseIN11MetaPhysicL10DualNumberIdNS1_28SemiDynamicSparseNumberArrayIdmNS1_8NWrapperILm64EEEEELb1EEEE11customSetupERK13MooseEnumItem
FNDA:0,_ZN5Moose11FunctorBaseIN11MetaPhysicL10DualNumberIdNS1_28SemiDynamicSparseNumberArrayIdmNS1_8NWrapperILm64EEEEELb1EEEE11customSetupERK13MooseEnumItem
FN:975,_ZNK5Moose11FunctorBaseIN11MetaPhysicL10DualNumberIdNS1_28SemiDynamicSparseNumberArrayIdmNS1_8NWrapperILm64EEEEELb1EEEE11hasFaceSideERK8FaceInfob
FNDA:0,_ZNK5Moose11FunctorBaseIN11MetaPhysicL10DualNumberIdNS1_28SemiDynamicSparseNumberArrayIdmNS1_8NWrapperILm64EEEEELb1EEEE11hasFaceSideERK8FaceInfob
FN:975,_ZNK5Moose11FunctorBaseIdE11hasFaceSideERK8FaceInfob
FNDA:0,_ZNK5Moose11FunctorBaseIdE11hasFaceSideERK8FaceInfob
FN:1104,_ZN5Moose15FunctorEnvelopeIN11MetaPhysicL10DualNumberIdNS1_28SemiDynamicSparseNumberArrayIdmNS1_8NWrapperILm64EEEEELb1EEEED0Ev
FNDA:0,_ZN5Moose15FunctorEnvelopeIN11MetaPhysicL10DualNumberIdNS1_28SemiDynamicSparseNumberArrayIdmNS1_8NWrapperILm64EEEEELb1EEEED0Ev
FN:1104,_ZN5Moose15FunctorEnvelopeIN11MetaPhysicL10DualNumberIdNS1_28SemiDynamicSparseNumberArrayIdmNS1_8NWrapperILm64EEEEELb1EEEED2Ev
FNDA:0,_ZN5Moose15FunctorEnvelopeIN11MetaPhysicL10DualNumberIdNS1_28SemiDynamicSparseNumberArrayIdmNS1_8NWrapperILm64EEEEELb1EEEED2Ev
FN:1104,_ZN5Moose15FunctorEnvelopeIdED0Ev
FNDA:0,_ZN5Moose15FunctorEnvelopeIdED0Ev
FN:1104,_ZN5Moose15FunctorEnvelopeIdED2Ev
FNDA:0,_ZN5Moose15FunctorEnvelopeIdED2Ev
FN:1109,_ZNK5Moose15FunctorEnvelopeIN11MetaPhysicL10DualNumberIdNS1_28SemiDynamicSparseNumberArrayIdmNS1_8NWrapperILm64EEEEELb1EEEE9wrapsNullEv
FNDA:0,_ZNK5Moose15FunctorEnvelopeIN11MetaPhysicL10DualNumberIdNS1_28SemiDynamicSparseNumberArrayIdmNS1_8NWrapperILm64EEEEELb1EEEE9wrapsNullEv
FN:1109,_ZNK5Moose15FunctorEnvelopeIdE9wrapsNullEv
FNDA:0,_ZNK5Moose15FunctorEnvelopeIdE9wrapsNullEv
FN:1114,_ZNK5Moose15FunctorEnvelopeIN11MetaPhysicL10DualNumberIdNS1_28SemiDynamicSparseNumberArrayIdmNS1_8NWrapperILm64EEEEELb1EEEE10returnTypeB5cxx11Ev
FNDA:0,_ZNK5Moose15FunctorEnvelopeIN11MetaPhysicL10DualNumberIdNS1_28SemiDynamicSparseNumberArrayIdmNS1_8NWrapperILm64EEEEELb1EEEE10returnTypeB5cxx11Ev
FN:1114,_ZNK5Moose15FunctorEnvelopeIdE10returnTypeB5cxx11Ev
FNDA:0,_ZNK5Moose15FunctorEnvelopeIdE10returnTypeB5cxx11Ev
FN:1116,_ZNK5Moose15FunctorEnvelopeIN11MetaPhysicL10DualNumberIdNS1_28SemiDynamicSparseNumberArrayIdmNS1_8NWrapperILm64EEEEELb1EEEE18ownsWrappedFunctorEv
FNDA:0,_ZNK5Moose15FunctorEnvelopeIN11MetaPhysicL10DualNumberIdNS1_28SemiDynamicSparseNumberArrayIdmNS1_8NWrapperILm64EEEEELb1EEEE18ownsWrappedFunctorEv
FN:1116,_ZNK5Moose15FunctorEnvelopeIdE18ownsWrappedFunctorEv
FNDA:0,_ZNK5Moose15FunctorEnvelopeIdE18ownsWrappedFunctorEv
FN:1122,_ZNK5Moose15FunctorEnvelopeIdE9wrapsTypeINS_11NullFunctorIdEEEEbv
FNDA:0,_ZNK5Moose15FunctorEnvelopeIdE9wrapsTypeINS_11NullFunctorIdEEEEbv
FN:1122,_ZNK5Moose15FunctorEnvelopeIN11MetaPhysicL10DualNumberIdNS1_28SemiDynamicSparseNumberArrayIdmNS1_8NWrapperILm64EEEEELb1EEEE9wrapsTypeINS_11NullFunctorIS7_EEEEbv
FNDA:0,_ZNK5Moose15FunctorEnvelopeIN11MetaPhysicL10DualNumberIdNS1_28SemiDynamicSparseNumberArrayIdmNS1_8NWrapperILm64EEEEELb1EEEE9wrapsTypeINS_11NullFunctorIS7_EEEEbv
FN:1127,_ZNK5Moose15FunctorEnvelopeIN11MetaPhysicL10DualNumberIdNS1_28SemiDynamicSparseNumberArrayIdmNS1_8NWrapperILm64EEEEELb1EEEE26isExtrapolatedBoundaryFaceERK8FaceInfoPKN7libMesh4ElemERKNS_8StateArgE
FNDA:0,_ZNK5Moose15FunctorEnvelopeIN11MetaPhysicL10DualNumberIdNS1_28SemiDynamicSparseNumberArrayIdmNS1_8NWrapperILm64EEEEELb1EEEE26isExtrapolatedBoundaryFaceERK8FaceInfoPKN7libMesh4ElemERKNS_8StateArgE
FN:1127,_ZNK5Moose15FunctorEnvelopeIdE26isExtrapolatedBoundaryFaceERK8FaceInfoPKN7libMesh4ElemERKNS_8StateArgE
FNDA:0,_ZNK5Moose15FunctorEnvelopeIdE26isExtrapolatedBoundaryFaceERK8FaceInfoPKN7libMesh4ElemERKNS_8StateArgE
FN:1133,_ZNK5Moose15FunctorEnvelopeIN11MetaPhysicL10DualNumberIdNS1_28SemiDynamicSparseNumberArrayIdmNS1_8NWrapperILm64EEEEELb1EEEE10isConstantEv
FNDA:0,_ZNK5Moose15FunctorEnvelopeIN11MetaPhysicL10DualNumberIdNS1_28SemiDynamicSparseNumberArrayIdmNS1_8NWrapperILm64EEEEELb1EEEE10isConstantEv
FN:1133,_ZNK5Moose15FunctorEnvelopeIdE10isConstantEv
FNDA:0,_ZNK5Moose15FunctorEnvelopeIdE10isConstantEv
FN:1134,_ZNK5Moose15FunctorEnvelopeIN11MetaPhysicL10DualNumberIdNS1_28SemiDynamicSparseNumberArrayIdmNS1_8NWrapperILm64EEEEELb1EEEE9hasBlocksEt
FNDA:0,_ZNK5Moose15FunctorEnvelopeIN11MetaPhysicL10DualNumberIdNS1_28SemiDynamicSparseNumberArrayIdmNS1_8NWrapperILm64EEEEELb1EEEE9hasBlocksEt
FN:1134,_ZNK5Moose15FunctorEnvelopeIdE9hasBlocksEt
FNDA:0,_ZNK5Moose15FunctorEnvelopeIdE9hasBlocksEt
FN:1135,_ZNK5Moose15FunctorEnvelopeIN11MetaPhysicL10DualNumberIdNS1_28SemiDynamicSparseNumberArrayIdmNS1_8NWrapperILm64EEEEELb1EEEE11hasFaceSideERK8FaceInfob
FNDA:0,_ZNK5Moose15FunctorEnvelopeIN11MetaPhysicL10DualNumberIdNS1_28SemiDynamicSparseNumberArrayIdmNS1_8NWrapperILm64EEEEELb1EEEE11hasFaceSideERK8FaceInfob
FN:1135,_ZNK5Moose15FunctorEnvelopeIdE11hasFaceSideERK8FaceInfob
FNDA:0,_ZNK5Moose15FunctorEnvelopeIdE11hasFaceSideERK8FaceInfob
FN:1140,_ZNK5Moose15FunctorEnvelopeIdE15supportsFaceArgEv
FNDA:0,_ZNK5Moose15FunctorEnvelopeIdE15supportsFaceArgEv
FN:1140,_ZNK5Moose15FunctorEnvelopeIN11MetaPhysicL10DualNumberIdNS1_28SemiDynamicSparseNumberArrayIdmNS1_8NWrapperILm64EEEEELb1EEEE15supportsFaceArgEv
FNDA:0,_ZNK5Moose15FunctorEnvelopeIN11MetaPhysicL10DualNumberIdNS1_28SemiDynamicSparseNumberArrayIdmNS1_8NWrapperILm64EEEEELb1EEEE15supportsFaceArgEv
FN:1141,_ZNK5Moose15FunctorEnvelopeIdE21supportsElemSideQpArgEv
FNDA:0,_ZNK5Moose15FunctorEnvelopeIdE21supportsElemSideQpArgEv
FN:1141,_ZNK5Moose15FunctorEnvelopeIN11MetaPhysicL10DualNumberIdNS1_28SemiDynamicSparseNumberArrayIdmNS1_8NWrapperILm64EEEEELb1EEEE21supportsElemSideQpArgEv
FNDA:0,_ZNK5Moose15FunctorEnvelopeIN11MetaPhysicL10DualNumberIdNS1_28SemiDynamicSparseNumberArrayIdmNS1_8NWrapperILm64EEEEELb1EEEE21supportsElemSideQpArgEv
FN:1148,_ZNK5Moose15FunctorEnvelopeIdE8evaluateERKNS_7ElemArgERKNS_8StateArgE
FNDA:0,_ZNK5Moose15FunctorEnvelopeIdE8evaluateERKNS_7ElemArgERKNS_8StateArgE
FN:1148,_ZNK5Moose15FunctorEnvelopeIN11MetaPhysicL10DualNumberIdNS1_28SemiDynamicSparseNumberArrayIdmNS1_8NWrapperILm64EEEEELb1EEEE8evaluateERKNS_7ElemArgERKNS_8StateArgE
FNDA:0,_ZNK5Moose15FunctorEnvelopeIN11MetaPhysicL10DualNumberIdNS1_28SemiDynamicSparseNumberArrayIdmNS1_8NWrapperILm64EEEEELb1EEEE8evaluateERKNS_7ElemArgERKNS_8StateArgE
FN:1152,_ZNK5Moose15FunctorEnvelopeIN11MetaPhysicL10DualNumberIdNS1_28SemiDynamicSparseNumberArrayIdmNS1_8NWrapperILm64EEEEELb1EEEE8evaluateERKNS_7FaceArgERKNS_8StateArgE
FNDA:0,_ZNK5Moose15FunctorEnvelopeIN11MetaPhysicL10DualNumberIdNS1_28SemiDynamicSparseNumberArrayIdmNS1_8NWrapperILm64EEEEELb1EEEE8evaluateERKNS_7FaceArgERKNS_8StateArgE
FN:1152,_ZNK5Moose15FunctorEnvelopeIdE8evaluateERKNS_7FaceArgERKNS_8StateArgE
FNDA:0,_ZNK5Moose15FunctorEnvelopeIdE8evaluateERKNS_7FaceArgERKNS_8StateArgE
FN:1156,_ZNK5Moose15FunctorEnvelopeIN11MetaPhysicL10DualNumberIdNS1_28SemiDynamicSparseNumberArrayIdmNS1_8NWrapperILm64EEEEELb1EEEE8evaluateERKNS_9ElemQpArgERKNS_8StateArgE
FNDA:0,_ZNK5Moose15FunctorEnvelopeIN11MetaPhysicL10DualNumberIdNS1_28SemiDynamicSparseNumberArrayIdmNS1_8NWrapperILm64EEEEELb1EEEE8evaluateERKNS_9ElemQpArgERKNS_8StateArgE
FN:1156,_ZNK5Moose15FunctorEnvelopeIdE8evaluateERKNS_9ElemQpArgERKNS_8StateArgE
FNDA:0,_ZNK5Moose15FunctorEnvelopeIdE8evaluateERKNS_9ElemQpArgERKNS_8StateArgE
FN:1160,_ZNK5Moose15FunctorEnvelopeIN11MetaPhysicL10DualNumberIdNS1_28SemiDynamicSparseNumberArrayIdmNS1_8NWrapperILm64EEEEELb1EEEE8evaluateERKNS_13ElemSideQpArgERKNS_8StateArgE
FNDA:0,_ZNK5Moose15FunctorEnvelopeIN11MetaPhysicL10DualNumberIdNS1_28SemiDynamicSparseNumberArrayIdmNS1_8NWrapperILm64EEEEELb1EEEE8evaluateERKNS_13ElemSideQpArgERKNS_8StateArgE
FN:1160,_ZNK5Moose15FunctorEnvelopeIdE8evaluateERKNS_13ElemSideQpArgERKNS_8StateArgE
FNDA:0,_ZNK5Moose15FunctorEnvelopeIdE8evaluateERKNS_13ElemSideQpArgERKNS_8StateArgE
FN:1164,_ZNK5Moose15FunctorEnvelopeIdE8evaluateERKNS_12ElemPointArgERKNS_8StateArgE
FNDA:0,_ZNK5Moose15FunctorEnvelopeIdE8evaluateERKNS_12ElemPointArgERKNS_8StateArgE
FN:1164,_ZNK5Moose15FunctorEnvelopeIN11MetaPhysicL10DualNumberIdNS1_28SemiDynamicSparseNumberArrayIdmNS1_8NWrapperILm64EEEEELb1EEEE8evaluateERKNS_12ElemPointArgERKNS_8StateArgE
FNDA:0,_ZNK5Moose15FunctorEnvelopeIN11MetaPhysicL10DualNumberIdNS1_28SemiDynamicSparseNumberArrayIdmNS1_8NWrapperILm64EEEEELb1EEEE8evaluateERKNS_12ElemPointArgERKNS_8StateArgE
FN:1168,_ZNK5Moose15FunctorEnvelopeIN11MetaPhysicL10DualNumberIdNS1_28SemiDynamicSparseNumberArrayIdmNS1_8NWrapperILm64EEEEELb1EEEE8evaluateERKNS_7NodeArgERKNS_8StateArgE
FNDA:0,_ZNK5Moose15FunctorEnvelopeIN11MetaPhysicL10DualNumberIdNS1_28SemiDynamicSparseNumberArrayIdmNS1_8NWrapperILm64EEEEELb1EEEE8evaluateERKNS_7NodeArgERKNS_8StateArgE
FN:1168,_ZNK5Moose15FunctorEnvelopeIdE8evaluateERKNS_7NodeArgERKNS_8StateArgE
FNDA:0,_ZNK5Moose15FunctorEnvelopeIdE8evaluateERKNS_7NodeArgERKNS_8StateArgE
FN:1173,_ZNK5Moose15FunctorEnvelopeIdE16evaluateGradientERKNS_7ElemArgERKNS_8StateArgE
FNDA:0,_ZNK5Moose15FunctorEnvelopeIdE16evaluateGradientERKNS_7ElemArgERKNS_8StateArgE
FN:1173,_ZNK5Moose15FunctorEnvelopeIN11MetaPhysicL10DualNumberIdNS1_28SemiDynamicSparseNumberArrayIdmNS1_8NWrapperILm64EEEEELb1EEEE16evaluateGradientERKNS_7ElemArgERKNS_8StateArgE
FNDA:0,_ZNK5Moose15FunctorEnvelopeIN11MetaPhysicL10DualNumberIdNS1_28SemiDynamicSparseNumberArrayIdmNS1_8NWrapperILm64EEEEELb1EEEE16evaluateGradientERKNS_7ElemArgERKNS_8StateArgE
FN:1177,_ZNK5Moose15FunctorEnvelopeIdE16evaluateGradientERKNS_7FaceArgERKNS_8StateArgE
FNDA:0,_ZNK5Moose15FunctorEnvelopeIdE16evaluateGradientERKNS_7FaceArgERKNS_8StateArgE
FN:1177,_ZNK5Moose15FunctorEnvelopeIN11MetaPhysicL10DualNumberIdNS1_28SemiDynamicSparseNumberArrayIdmNS1_8NWrapperILm64EEEEELb1EEEE16evaluateGradientERKNS_7FaceArgERKNS_8StateArgE
FNDA:0,_ZNK5Moose15FunctorEnvelopeIN11MetaPhysicL10DualNumberIdNS1_28SemiDynamicSparseNumberArrayIdmNS1_8NWrapperILm64EEEEELb1EEEE16evaluateGradientERKNS_7FaceArgERKNS_8StateArgE
FN:1181,_ZNK5Moose15FunctorEnvelopeIdE16evaluateGradientERKNS_9ElemQpArgERKNS_8StateArgE
FNDA:0,_ZNK5Moose15FunctorEnvelopeIdE16evaluateGradientERKNS_9ElemQpArgERKNS_8StateArgE
FN:1181,_ZNK5Moose15FunctorEnvelopeIN11MetaPhysicL10DualNumberIdNS1_28SemiDynamicSparseNumberArrayIdmNS1_8NWrapperILm64EEEEELb1EEEE16evaluateGradientERKNS_9ElemQpArgERKNS_8StateArgE
FNDA:0,_ZNK5Moose15FunctorEnvelopeIN11MetaPhysicL10DualNumberIdNS1_28SemiDynamicSparseNumberArrayIdmNS1_8NWrapperILm64EEEEELb1EEEE16evaluateGradientERKNS_9ElemQpArgERKNS_8StateArgE
FN:1185,_ZNK5Moose15FunctorEnvelopeIdE16evaluateGradientERKNS_13ElemSideQpArgERKNS_8StateArgE
FNDA:0,_ZNK5Moose15FunctorEnvelopeIdE16evaluateGradientERKNS_13ElemSideQpArgERKNS_8StateArgE
FN:1185,_ZNK5Moose15FunctorEnvelopeIN11MetaPhysicL10DualNumberIdNS1_28SemiDynamicSparseNumberArrayIdmNS1_8NWrapperILm64EEEEELb1EEEE16evaluateGradientERKNS_13ElemSideQpArgERKNS_8StateArgE
FNDA:0,_ZNK5Moose15FunctorEnvelopeIN11MetaPhysicL10DualNumberIdNS1_28SemiDynamicSparseNumberArrayIdmNS1_8NWrapperILm64EEEEELb1EEEE16evaluateGradientERKNS_13ElemSideQpArgERKNS_8StateArgE
FN:1190,_ZNK5Moose15FunctorEnvelopeIdE16evaluateGradientERKNS_12ElemPointArgERKNS_8StateArgE
FNDA:0,_ZNK5Moose15FunctorEnvelopeIdE16evaluateGradientERKNS_12ElemPointArgERKNS_8StateArgE
FN:1190,_ZNK5Moose15FunctorEnvelopeIN11MetaPhysicL10DualNumberIdNS1_28SemiDynamicSparseNumberArrayIdmNS1_8NWrapperILm64EEEEELb1EEEE16evaluateGradientERKNS_12ElemPointArgERKNS_8StateArgE
FNDA:0,_ZNK5Moose15FunctorEnvelopeIN11MetaPhysicL10DualNumberIdNS1_28SemiDynamicSparseNumberArrayIdmNS1_8NWrapperILm64EEEEELb1EEEE16evaluateGradientERKNS_12ElemPointArgERKNS_8StateArgE
FN:1195,_ZNK5Moose15FunctorEnvelopeIdE16evaluateGradientERKNS_7NodeArgERKNS_8StateArgE
FNDA:0,_ZNK5Moose15FunctorEnvelopeIdE16evaluateGradientERKNS_7NodeArgERKNS_8StateArgE
FN:1195,_ZNK5Moose15FunctorEnvelopeIN11MetaPhysicL10DualNumberIdNS1_28SemiDynamicSparseNumberArrayIdmNS1_8NWrapperILm64EEEEELb1EEEE16evaluateGradientERKNS_7NodeArgERKNS_8StateArgE
FNDA:0,_ZNK5Moose15FunctorEnvelopeIN11MetaPhysicL10DualNumberIdNS1_28SemiDynamicSparseNumberArrayIdmNS1_8NWrapperILm64EEEEELb1EEEE16evaluateGradientERKNS_7NodeArgERKNS_8StateArgE
FN:1200,_ZNK5Moose15FunctorEnvelopeIN11MetaPhysicL10DualNumberIdNS1_28SemiDynamicSparseNumberArrayIdmNS1_8NWrapperILm64EEEEELb1EEEE11evaluateDotERKNS_7ElemArgERKNS_8StateArgE
FNDA:0,_ZNK5Moose15FunctorEnvelopeIN11MetaPhysicL10DualNumberIdNS1_28SemiDynamicSparseNumberArrayIdmNS1_8NWrapperILm64EEEEELb1EEEE11evaluateDotERKNS_7ElemArgERKNS_8StateArgE
FN:1200,_ZNK5Moose15FunctorEnvelopeIdE11evaluateDotERKNS_7ElemArgERKNS_8StateArgE
FNDA:0,_ZNK5Moose15FunctorEnvelopeIdE11evaluateDotERKNS_7ElemArgERKNS_8StateArgE
FN:1204,_ZNK5Moose15FunctorEnvelopeIdE11evaluateDotERKNS_7FaceArgERKNS_8StateArgE
FNDA:0,_ZNK5Moose15FunctorEnvelopeIdE11evaluateDotERKNS_7FaceArgERKNS_8StateArgE
FN:1204,_ZNK5Moose15FunctorEnvelopeIN11MetaPhysicL10DualNumberIdNS1_28SemiDynamicSparseNumberArrayIdmNS1_8NWrapperILm64EEEEELb1EEEE11evaluateDotERKNS_7FaceArgERKNS_8StateArgE
FNDA:0,_ZNK5Moose15FunctorEnvelopeIN11MetaPhysicL10DualNumberIdNS1_28SemiDynamicSparseNumberArrayIdmNS1_8NWrapperILm64EEEEELb1EEEE11evaluateDotERKNS_7FaceArgERKNS_8StateArgE
FN:1208,_ZNK5Moose15FunctorEnvelopeIN11MetaPhysicL10DualNumberIdNS1_28SemiDynamicSparseNumberArrayIdmNS1_8NWrapperILm64EEEEELb1EEEE11evaluateDotERKNS_9ElemQpArgERKNS_8StateArgE
FNDA:0,_ZNK5Moose15FunctorEnvelopeIN11MetaPhysicL10DualNumberIdNS1_28SemiDynamicSparseNumberArrayIdmNS1_8NWrapperILm64EEEEELb1EEEE11evaluateDotERKNS_9ElemQpArgERKNS_8StateArgE
FN:1208,_ZNK5Moose15FunctorEnvelopeIdE11evaluateDotERKNS_9ElemQpArgERKNS_8StateArgE
FNDA:0,_ZNK5Moose15FunctorEnvelopeIdE11evaluateDotERKNS_9ElemQpArgERKNS_8StateArgE
FN:1212,_ZNK5Moose15FunctorEnvelopeIdE11evaluateDotERKNS_13ElemSideQpArgERKNS_8StateArgE
FNDA:0,_ZNK5Moose15FunctorEnvelopeIdE11evaluateDotERKNS_13ElemSideQpArgERKNS_8StateArgE
FN:1212,_ZNK5Moose15FunctorEnvelopeIN11MetaPhysicL10DualNumberIdNS1_28SemiDynamicSparseNumberArrayIdmNS1_8NWrapperILm64EEEEELb1EEEE11evaluateDotERKNS_13ElemSideQpArgERKNS_8StateArgE
FNDA:0,_ZNK5Moose15FunctorEnvelopeIN11MetaPhysicL10DualNumberIdNS1_28SemiDynamicSparseNumberArrayIdmNS1_8NWrapperILm64EEEEELb1EEEE11evaluateDotERKNS_13ElemSideQpArgERKNS_8StateArgE
FN:1216,_ZNK5Moose15FunctorEnvelopeIdE11evaluateDotERKNS_12ElemPointArgERKNS_8StateArgE
FNDA:0,_ZNK5Moose15FunctorEnvelopeIdE11evaluateDotERKNS_12ElemPointArgERKNS_8StateArgE
FN:1216,_ZNK5Moose15FunctorEnvelopeIN11MetaPhysicL10DualNumberIdNS1_28SemiDynamicSparseNumberArrayIdmNS1_8NWrapperILm64EEEEELb1EEEE11evaluateDotERKNS_12ElemPointArgERKNS_8StateArgE
FNDA:0,_ZNK5Moose15FunctorEnvelopeIN11MetaPhysicL10DualNumberIdNS1_28SemiDynamicSparseNumberArrayIdmNS1_8NWrapperILm64EEEEELb1EEEE11evaluateDotERKNS_12ElemPointArgERKNS_8StateArgE
FN:1221,_ZNK5Moose15FunctorEnvelopeIN11MetaPhysicL10DualNumberIdNS1_28SemiDynamicSparseNumberArrayIdmNS1_8NWrapperILm64EEEEELb1EEEE11evaluateDotERKNS_7NodeArgERKNS_8StateArgE
FNDA:0,_ZNK5Moose15FunctorEnvelopeIN11MetaPhysicL10DualNumberIdNS1_28SemiDynamicSparseNumberArrayIdmNS1_8NWrapperILm64EEEEELb1EEEE11evaluateDotERKNS_7NodeArgERKNS_8StateArgE
FN:1221,_ZNK5Moose15FunctorEnvelopeIdE11evaluateDotERKNS_7NodeArgERKNS_8StateArgE
FNDA:0,_ZNK5Moose15FunctorEnvelopeIdE11evaluateDotERKNS_7NodeArgERKNS_8StateArgE
FN:1226,_ZNK5Moose15FunctorEnvelopeIN11MetaPhysicL10DualNumberIdNS1_28SemiDynamicSparseNumberArrayIdmNS1_8NWrapperILm64EEEEELb1EEEE15evaluateGradDotERKNS_7ElemArgERKNS_8StateArgE
FNDA:0,_ZNK5Moose15FunctorEnvelopeIN11MetaPhysicL10DualNumberIdNS1_28SemiDynamicSparseNumberArrayIdmNS1_8NWrapperILm64EEEEELb1EEEE15evaluateGradDotERKNS_7ElemArgERKNS_8StateArgE
FN:1226,_ZNK5Moose15FunctorEnvelopeIdE15evaluateGradDotERKNS_7ElemArgERKNS_8StateArgE
FNDA:0,_ZNK5Moose15FunctorEnvelopeIdE15evaluateGradDotERKNS_7ElemArgERKNS_8StateArgE
FN:1230,_ZNK5Moose15FunctorEnvelopeIN11MetaPhysicL10DualNumberIdNS1_28SemiDynamicSparseNumberArrayIdmNS1_8NWrapperILm64EEEEELb1EEEE15evaluateGradDotERKNS_7FaceArgERKNS_8StateArgE
FNDA:0,_ZNK5Moose15FunctorEnvelopeIN11MetaPhysicL10DualNumberIdNS1_28SemiDynamicSparseNumberArrayIdmNS1_8NWrapperILm64EEEEELb1EEEE15evaluateGradDotERKNS_7FaceArgERKNS_8StateArgE
FN:1230,_ZNK5Moose15FunctorEnvelopeIdE15evaluateGradDotERKNS_7FaceArgERKNS_8StateArgE
FNDA:0,_ZNK5Moose15FunctorEnvelopeIdE15evaluateGradDotERKNS_7FaceArgERKNS_8StateArgE
FN:1234,_ZNK5Moose15FunctorEnvelopeIN11MetaPhysicL10DualNumberIdNS1_28SemiDynamicSparseNumberArrayIdmNS1_8NWrapperILm64EEEEELb1EEEE15evaluateGradDotERKNS_9ElemQpArgERKNS_8StateArgE
FNDA:0,_ZNK5Moose15FunctorEnvelopeIN11MetaPhysicL10DualNumberIdNS1_28SemiDynamicSparseNumberArrayIdmNS1_8NWrapperILm64EEEEELb1EEEE15evaluateGradDotERKNS_9ElemQpArgERKNS_8StateArgE
FN:1234,_ZNK5Moose15FunctorEnvelopeIdE15evaluateGradDotERKNS_9ElemQpArgERKNS_8StateArgE
FNDA:0,_ZNK5Moose15FunctorEnvelopeIdE15evaluateGradDotERKNS_9ElemQpArgERKNS_8StateArgE
FN:1238,_ZNK5Moose15FunctorEnvelopeIN11MetaPhysicL10DualNumberIdNS1_28SemiDynamicSparseNumberArrayIdmNS1_8NWrapperILm64EEEEELb1EEEE15evaluateGradDotERKNS_13ElemSideQpArgERKNS_8StateArgE
FNDA:0,_ZNK5Moose15FunctorEnvelopeIN11MetaPhysicL10DualNumberIdNS1_28SemiDynamicSparseNumberArrayIdmNS1_8NWrapperILm64EEEEELb1EEEE15evaluateGradDotERKNS_13ElemSideQpArgERKNS_8StateArgE
FN:1238,_ZNK5Moose15FunctorEnvelopeIdE15evaluateGradDotERKNS_13ElemSideQpArgERKNS_8StateArgE
FNDA:0,_ZNK5Moose15FunctorEnvelopeIdE15evaluateGradDotERKNS_13ElemSideQpArgERKNS_8StateArgE
FN:1243,_ZNK5Moose15FunctorEnvelopeIN11MetaPhysicL10DualNumberIdNS1_28SemiDynamicSparseNumberArrayIdmNS1_8NWrapperILm64EEEEELb1EEEE15evaluateGradDotERKNS_12ElemPointArgERKNS_8StateArgE
FNDA:0,_ZNK5Moose15FunctorEnvelopeIN11MetaPhysicL10DualNumberIdNS1_28SemiDynamicSparseNumberArrayIdmNS1_8NWrapperILm64EEEEELb1EEEE15evaluateGradDotERKNS_12ElemPointArgERKNS_8StateArgE
FN:1243,_ZNK5Moose15FunctorEnvelopeIdE15evaluateGradDotERKNS_12ElemPointArgERKNS_8StateArgE
FNDA:0,_ZNK5Moose15FunctorEnvelopeIdE15evaluateGradDotERKNS_12ElemPointArgERKNS_8StateArgE
FN:1248,_ZNK5Moose15FunctorEnvelopeIdE15evaluateGradDotERKNS_7NodeArgERKNS_8StateArgE
FNDA:0,_ZNK5Moose15FunctorEnvelopeIdE15evaluateGradDotERKNS_7NodeArgERKNS_8StateArgE
FN:1248,_ZNK5Moose15FunctorEnvelopeIN11MetaPhysicL10DualNumberIdNS1_28SemiDynamicSparseNumberArrayIdmNS1_8NWrapperILm64EEEEELb1EEEE15evaluateGradDotERKNS_7NodeArgERKNS_8StateArgE
FNDA:0,_ZNK5Moose15FunctorEnvelopeIN11MetaPhysicL10DualNumberIdNS1_28SemiDynamicSparseNumberArrayIdmNS1_8NWrapperILm64EEEEELb1EEEE15evaluateGradDotERKNS_7NodeArgERKNS_8StateArgE
FNF:146
FNH:0
DA:152,0
DA:152,0
DA:152,0
DA:152,0
DA:237,0
DA:239,0
DA:237,0
DA:239,0
DA:247,0
DA:249,0
DA:247,0
DA:249,0
DA:260,0
DA:260,0
DA:332,0
DA:334,0
DA:332,0
DA:334,0
DA:342,0
DA:344,0
DA:342,0
DA:344,0
DA:352,0
DA:354,0
DA:352,0
DA:354,0
DA:362,0
DA:364,0
DA:362,0
DA:364,0
DA:371,0
DA:373,0
DA:371,0
DA:373,0
DA:376,0
DA:378,0
DA:376,0
DA:378,0
DA:385,0
DA:387,0
DA:385,0
DA:387,0
DA:395,0
DA:397,0
DA:395,0
DA:397,0
DA:405,0
DA:407,0
DA:405,0
DA:407,0
DA:416,0
DA:418,0
DA:416,0
DA:418,0
DA:425,0
DA:427,0
DA:425,0
DA:427,0
DA:430,0
DA:432,0
DA:430,0
DA:432,0
DA:439,0
DA:441,0
DA:439,0
DA:441,0
DA:449,0
DA:451,0
DA:449,0
DA:451,0
DA:459,0
DA:461,0
DA:459,0
DA:461,0
DA:470,0
DA:472,0
DA:470,0
DA:472,0
DA:479,0
DA:481,0
DA:479,0
DA:481,0
DA:484,0
DA:486,0
DA:484,0
DA:486,0
DA:580,0
DA:584,0
DA:587,0
DA:590,0
DA:592,0
DA:580,0
DA:584,0
DA:587,0
DA:590,0
DA:592,0
DA:580,0
DA:584,0
DA:585,0
DA:587,0
DA:590,0
DA:592,0
DA:580,0
DA:584,0
DA:585,0
DA:587,0
DA:590,0
DA:592,0
DA:597,0
DA:599,0
DA:600,0
DA:605,0
DA:597,0
DA:599,0
DA:600,0
DA:605,0
DA:610,0
DA:614,0
DA:615,0
DA:620,0
DA:610,0
DA:614,0
DA:615,0
DA:620,0
DA:626,0
DA:634,0
DA:636,0
DA:638,0
DA:639,0
DA:640,0
DA:645,0
DA:646,0
DA:649,0
DA:650,0
DA:651,0
DA:626,0
DA:634,0
DA:636,0
DA:638,0
DA:639,0
DA:640,0
DA:645,0
DA:646,0
DA:649,0
DA:650,0
DA:651,0
DA:626,0
DA:634,0
DA:636,0
DA:638,0
DA:639,0
DA:640,0
DA:645,0
DA:646,0
DA:649,0
DA:650,0
DA:651,0
DA:626,0
DA:634,0
DA:636,0
DA:638,0
DA:639,0
DA:640,0
DA:645,0
DA:646,0
DA:649,0
DA:650,0
DA:651,0
DA:656,0
DA:658,0
DA:659,0
DA:661,0
DA:662,0
DA:664,0
DA:665,0
DA:667,0
DA:668,0
DA:669,0
DA:672,0
DA:656,0
DA:658,0
DA:659,0
DA:661,0
DA:662,0
DA:664,0
DA:665,0
DA:667,0
DA:668,0
DA:669,0
DA:672,0
DA:677,0
DA:679,0
DA:680,0
DA:682,0
DA:684,0
DA:685,0
DA:687,0
DA:688,0
DA:690,0
DA:691,0
DA:692,0
DA:693,0
DA:697,0
DA:698,0
DA:702,0
DA:677,0
DA:679,0
DA:680,0
DA:682,0
DA:684,0
DA:685,0
DA:687,0
DA:688,0
DA:690,0
DA:691,0
DA:692,0
DA:693,0
DA:697,0
DA:698,0
DA:702,0
DA:709,0
DA:726,0
DA:788,0
DA:790,0
DA:791,0
DA:792,0
DA:794,0
DA:797,0
DA:798,0
DA:799,0
DA:802,0
DA:803,0
DA:804,0
DA:805,0
DA:810,0
DA:788,0
DA:790,0
DA:791,0
DA:792,0
DA:794,0
DA:797,0
DA:798,0
DA:799,0
DA:802,0
DA:803,0
DA:804,0
DA:805,0
DA:810,0
DA:814,0
DA:817,0
DA:818,0
DA:814,0
DA:817,0
DA:818,0
DA:822,0
DA:825,0
DA:826,0
DA:822,0
DA:825,0
DA:826,0
DA:830,0
DA:833,0
DA:834,0
DA:830,0
DA:833,0
DA:834,0
DA:838,0
DA:841,0
DA:842,0
DA:838,0
DA:841,0
DA:842,0
DA:848,0
DA:856,0
DA:863,0
DA:870,0
DA:877,0
DA:884,0
DA:891,0
DA:899,0
DA:906,0
DA:913,0
DA:920,0
DA:927,0
DA:934,0
DA:942,0
DA:949,0
DA:956,0
DA:963,0
DA:970,0
DA:975,0
DA:977,0
DA:978,0
DA:980,0
DA:975,0
DA:977,0
DA:978,0
DA:980,0
DA:1006,0
DA:1104,0
DA:1104,0
DA:1104,0
DA:1104,0
DA:1109,0
DA:1109,0
DA:1114,0
DA:1114,0
DA:1116,0
DA:1116,0
DA:1122,0
DA:1124,0
DA:1122,0
DA:1124,0
DA:1127,0
DA:1131,0
DA:1127,0
DA:1131,0
DA:1133,0
DA:1133,0
DA:1134,0
DA:1134,0
DA:1135,0
DA:1137,0
DA:1135,0
DA:1137,0
DA:1140,0
DA:1140,0
DA:1141,0
DA:1141,0
DA:1148,0
DA:1150,0
DA:1148,0
DA:1150,0
DA:1152,0
DA:1154,0
DA:1152,0
DA:1154,0
DA:1156,0
DA:1158,0
DA:1156,0
DA:1158,0
DA:1160,0
DA:1162,0
DA:1160,0
DA:1162,0
DA:1164,0
DA:1166,0
DA:1164,0
DA:1166,0
DA:1168,0
DA:1170,0
DA:1168,0
DA:1170,0
DA:1173,0
DA:1175,0
DA:1173,0
DA:1175,0
DA:1177,0
DA:1179,0
DA:1177,0
DA:1179,0
DA:1181,0
DA:1183,0
DA:1181,0
DA:1183,0
DA:1185,0
DA:1188,0
DA:1185,0
DA:1188,0
DA:1190,0
DA:1193,0
DA:1190,0
DA:1193,0
DA:1195,0
DA:1197,0
DA:1195,0
DA:1197,0
DA:1200,0
DA:1202,0
DA:1200,0
DA:1202,0
DA:1204,0
DA:1206,0
DA:1204,0
DA:1206,0
DA:1208,0
DA:1210,0
DA:1208,0
DA:1210,0
DA:1212,0
DA:1214,0
DA:1212,0
DA:1214,0
DA:1216,0
DA:1219,0
DA:1216,0
DA:1219,0
DA:1221,0
DA:1223,0
DA:1221,0
DA:1223,0
DA:1226,0
DA:1228,0
DA:1226,0
DA:1228,0
DA:1230,0
DA:1232,0
DA:1230,0
DA:1232,0
DA:1234,0
DA:1236,0
DA:1234,0
DA:1236,0
DA:1238,0
DA:1241,0
DA:1238,0
DA:1241,0
DA:1243,0
DA:1246,0
DA:1243,0
DA:1246,0
DA:1248,0
DA:1250,0
DA:1248,0
DA:1250,0
LF:425
LH:0
end_of_record
SF:/home/runner/work/raccoon/raccoon/build/header_symlinks/LargeDeformationNewtonianViscosity.h
LF:0
LH:0
end_of_record
SF:/home/runner/work/raccoon/raccoon/src/materials/hardening_models/JohnsonCookHardening.C
FN:10,_ZN20JohnsonCookHardening11validParamsEv
FNDA:130,_ZN20JohnsonCookHardening11validParamsEv
FN:44,_ZN20JohnsonCookHardeningC2ERK15InputParameters
FNDA:3,_ZN20JohnsonCookHardeningC2ERK15InputParameters
FN:75,_ZN20JohnsonCookHardening21temperatureDependenceEv
FNDA:481856,_ZN20JohnsonCookHardening21temperatureDependenceEv
FN:81,_ZN20JohnsonCookHardening12initialGuessERKN11MetaPhysicL10DualNumberIdNS0_28SemiDynamicSparseNumberArrayIdmNS0_8NWrapperILm64EEEEELb1EEE
FNDA:6912,_ZN20JohnsonCookHardening12initialGuessERKN11MetaPhysicL10DualNumberIdNS0_28SemiDynamicSparseNumberArrayIdmNS0_8NWrapperILm64EEEEELb1EEE
FN:92,_ZN20JohnsonCookHardening13plasticEnergyERKN11MetaPhysicL10DualNumberIdNS0_28SemiDynamicSparseNumberArrayIdmNS0_8NWrapperILm64EEEEELb1EEEj
FNDA:237472,_ZN20JohnsonCookHardening13plasticEnergyERKN11MetaPhysicL10DualNumberIdNS0_28SemiDynamicSparseNumberArrayIdmNS0_8NWrapperILm64EEEEELb1EEEj
FN:118,_ZN20JohnsonCookHardening18plasticDissipationERKN11MetaPhysicL10DualNumberIdNS0_28SemiDynamicSparseNumberArrayIdmNS0_8NWrapperILm64EEEEELb1EEES8_j
FNDA:237472,_ZN20JohnsonCookHardening18plasticDissipationERKN11MetaPhysicL10DualNumberIdNS0_28SemiDynamicSparseNumberArrayIdmNS0_8NWrapperILm64EEEEELb1EEES8_j
FN:155,_ZN20JohnsonCookHardening16thermalConjugateERKN11MetaPhysicL10DualNumberIdNS0_28SemiDynamicSparseNumberArrayIdmNS0_8NWrapperILm64EEEEELb1EEE
FNDA:10968,_ZN20JohnsonCookHardening16thermalConjugateERKN11MetaPhysicL10DualNumberIdNS0_28SemiDynamicSparseNumberArrayIdmNS0_8NWrapperILm64EEEEELb1EEE
FNF:7
FNH:7
DA:10,130
DA:12,130
DA:13,130
DA:15,260
DA:17,260
DA:18,260
DA:19,260
DA:21,260
DA:23,260
DA:24,260
DA:25,260
DA:30,260
DA:31,260
DA:32,260
DA:33,260
DA:35,260
DA:36,260
DA:40,260
DA:41,130
DA:44,3
DA:47,6
DA:48,3
DA:49,3
DA:50,3
DA:51,3
DA:52,3
DA:53,3
DA:54,3
DA:55,3
DA:56,3
DA:57,3
DA:58,3
DA:59,6
DA:63,3
DA:64,3
DA:65,9
DA:69,3
DA:70,66
DA:72,3
DA:75,481856
DA:77,481856
DA:81,6912
DA:84,13824
DA:85,6912
DA:86,0
DA:87,6912
DA:88,13824
DA:92,237472
DA:94,237472
DA:96,21936
DA:97,32904
DA:98,21936
DA:99,21936
DA:100,21936
DA:101,10968
DA:104,226504
DA:106,474944
DA:107,237472
DA:109,107768
DA:111,215536
DA:112,215536
DA:114,0
DA:118,237472
DA:122,237472
DA:124,237472
DA:126,0
DA:127,0
DA:128,0
DA:129,0
DA:132,237472
DA:134,518816
DA:135,129704
DA:137,573400
DA:140,237472
DA:142,323304
DA:143,107768
DA:145,215536
DA:146,431072
DA:149,474944
DA:155,10968
DA:158,43872
DA:159,21936
LF:82
LH:76
end_of_record
SF:/home/runner/micromamba/envs/moose/libmesh/include/libmesh/type_vector.h
FN:468,_ZN7libMesh10TypeVectorIN11MetaPhysicL10DualNumberIdNS1_28SemiDynamicSparseNumberArrayIdmNS1_8NWrapperILm64EEEEELb1EEEEC2ERKS7_SA_SA_
FNDA:161600,_ZN7libMesh10TypeVectorIN11MetaPhysicL10DualNumberIdNS1_28SemiDynamicSparseNumberArrayIdmNS1_8NWrapperILm64EEEEELb1EEEEC2ERKS7_SA_SA_
FN:763,_ZNK7libMesh10TypeVectorIN11MetaPhysicL10DualNumberIdNS1_28SemiDynamicSparseNumberArrayIdmNS1_8NWrapperILm64EEEEELb1EEEEmlIS7_EENS_9boostcopy11enable_if_cIXsrNS_12ScalarTraitsIT_EE5valueENS0_INS_12CompareTypesIS7_SD_E9supertypeEEEE4typeERKSD_
FNDA:161600,_ZNK7libMesh10TypeVectorIN11MetaPhysicL10DualNumberIdNS1_28SemiDynamicSparseNumberArrayIdmNS1_8NWrapperILm64EEEEELb1EEEEmlIS7_EENS_9boostcopy11enable_if_cIXsrNS_12ScalarTraitsIT_EE5valueENS0_INS_12CompareTypesIS7_SD_E9supertypeEEEE4typeERKSD_
FN:874,_ZNK7libMesh10TypeVectorIN11MetaPhysicL10DualNumberIdNS1_28SemiDynamicSparseNumberArrayIdmNS1_8NWrapperILm64EEEEELb1EEEEmlIS7_EENS_12CompareTypesIS7_T_E9supertypeERKNS0_ISB_EE
FNDA:0,_ZNK7libMesh10TypeVectorIN11MetaPhysicL10DualNumberIdNS1_28SemiDynamicSparseNumberArrayIdmNS1_8NWrapperILm64EEEEELb1EEEEmlIS7_EENS_12CompareTypesIS7_T_E9supertypeERKNS0_ISB_EE
FN:929,_ZNK7libMesh10TypeVectorIN11MetaPhysicL10DualNumberIdNS1_28SemiDynamicSparseNumberArrayIdmNS1_8NWrapperILm64EEEEELb1EEEE4normEv
FNDA:272800,_ZNK7libMesh10TypeVectorIN11MetaPhysicL10DualNumberIdNS1_28SemiDynamicSparseNumberArrayIdmNS1_8NWrapperILm64EEEEELb1EEEE4normEv
FN:948,_ZNK7libMesh10TypeVectorIN11MetaPhysicL10DualNumberIdNS1_28SemiDynamicSparseNumberArrayIdmNS1_8NWrapperILm64EEEEELb1EEEE7norm_sqEv
FNDA:272800,_ZNK7libMesh10TypeVectorIN11MetaPhysicL10DualNumberIdNS1_28SemiDynamicSparseNumberArrayIdmNS1_8NWrapperILm64EEEEELb1EEEE7norm_sqEv
FNF:5
FNH:4
DA:165,0
DA:468,162104
DA:470,646400
DA:472,161600
DA:475,161600
DA:482,162104
DA:487,161600
DA:570,0
DA:763,161600
DA:777,161600
DA:778,161600
DA:779,323200
DA:793,0
DA:874,0
DA:886,0
DA:887,0
DA:888,0
DA:929,272800
DA:931,272800
DA:948,272800
DA:960,272800
DA:961,272800
DA:962,545600
LF:23
LH:16
end_of_record
SF:/home/runner/work/raccoon/raccoon/src/materials/nucleation_models/KLBFNucleationMicroForce.C
FN:13,_ZN24KLBFNucleationMicroForce11validParamsEv
FNDA:130,_ZN24KLBFNucleationMicroForce11validParamsEv
FN:28,_ZN24KLBFNucleationMicroForceC2ERK15InputParameters
FNDA:3,_ZN24KLBFNucleationMicroForceC2ERK15InputParameters
FN:37,_ZN24KLBFNucleationMicroForce19computeQpPropertiesEv
FNDA:30000,_ZN24KLBFNucleationMicroForce19computeQpPropertiesEv
FNF:3
FNH:3
DA:13,130
DA:15,130
DA:17,130
DA:19,260
DA:21,260
DA:24,260
DA:25,130
DA:28,3
DA:30,6
DA:31,6
DA:32,15
DA:34,3
DA:37,30000
DA:40,60000
DA:43,30000
DA:46,30000
DA:47,30000
DA:48,60000
DA:55,30000
DA:56,1200
DA:60,60000
DA:61,60000
DA:62,90000
DA:63,30000
DA:64,60000
DA:65,30000
DA:67,120000
DA:68,30000
DA:69,60000
DA:72,90000
DA:74,90000
DA:75,30000
LF:32
LH:32
end_of_record
SF:/home/runner/work/raccoon/raccoon/moose/framework/build/header_symlinks/InputParameters.h
FN:69,_ZN15InputParametersD2Ev
FNDA:0,_ZN15InputParametersD2Ev
FN:69,_ZN15InputParametersD0Ev
FNDA:0,_ZN15InputParametersD0Ev
FN:230,_ZN15InputParameters8addParamISt6vectorI20MaterialPropertyNameSaIS2_EEEEvRKNSt7__cxx1112basic_stringIcSt11char_traitsIcESaIcEEERKSt16initializer_listINT_10value_typeEESC_
FNDA:578,_ZN15InputParameters8addParamISt6vectorI20MaterialPropertyNameSaIS2_EEEEvRKNSt7__cxx1112basic_stringIcSt11char_traitsIcESaIcEEERKSt16initializer_listINT_10value_typeEESC_
FN:1301,_ZN15InputParameters3setIbEERT_RKNSt7__cxx1112basic_stringIcSt11char_traitsIcESaIcEEEb
FNDA:0,_ZN15InputParameters3setIbEERT_RKNSt7__cxx1112basic_stringIcSt11char_traitsIcESaIcEEEb
FN:1301,_ZN15InputParameters3setI9MooseEnumEERT_RKNSt7__cxx1112basic_stringIcSt11char_traitsIcESaIcEEEb
FNDA:0,_ZN15InputParameters3setI9MooseEnumEERT_RKNSt7__cxx1112basic_stringIcSt11char_traitsIcESaIcEEEb
FN:1301,_ZN15InputParameters3setI20MaterialPropertyNameEERT_RKNSt7__cxx1112basic_stringIcSt11char_traitsIcESaIcEEEb
FNDA:0,_ZN15InputParameters3setI20MaterialPropertyNameEERT_RKNSt7__cxx1112basic_stringIcSt11char_traitsIcESaIcEEEb
FN:1301,_ZN15InputParameters3setISt6vectorINSt7__cxx1112basic_stringIcSt11char_traitsIcESaIcEEESaIS7_EEEERT_RKS7_b
FNDA:0,_ZN15InputParameters3setISt6vectorINSt7__cxx1112basic_stringIcSt11char_traitsIcESaIcEEESaIS7_EEEERT_RKS7_b
FN:1301,_ZN15InputParameters3setIdEERT_RKNSt7__cxx1112basic_stringIcSt11char_traitsIcESaIcEEEb
FNDA:0,_ZN15InputParameters3setIdEERT_RKNSt7__cxx1112basic_stringIcSt11char_traitsIcESaIcEEEb
FN:1301,_ZN15InputParameters3setIjEERT_RKNSt7__cxx1112basic_stringIcSt11char_traitsIcESaIcEEEb
FNDA:0,_ZN15InputParameters3setIjEERT_RKNSt7__cxx1112basic_stringIcSt11char_traitsIcESaIcEEEb
FN:1301,_ZN15InputParameters3setINSt7__cxx1112basic_stringIcSt11char_traitsIcESaIcEEEEERT_RKS6_b
FNDA:0,_ZN15InputParameters3setINSt7__cxx1112basic_stringIcSt11char_traitsIcESaIcEEEEERT_RKS6_b
FN:1301,_ZN15InputParameters3setISt6vectorI20MaterialPropertyNameSaIS2_EEEERT_RKNSt7__cxx1112basic_stringIcSt11char_traitsIcESaIcEEEb
FNDA:0,_ZN15InputParameters3setISt6vectorI20MaterialPropertyNameSaIS2_EEEERT_RKNSt7__cxx1112basic_stringIcSt11char_traitsIcESaIcEEEb
FN:1501,_ZN15InputParameters16addRequiredParamI12FunctionNameEEvRKNSt7__cxx1112basic_stringIcSt11char_traitsIcESaIcEEES9_
FNDA:0,_ZN15InputParameters16addRequiredParamI12FunctionNameEEvRKNSt7__cxx1112basic_stringIcSt11char_traitsIcESaIcEEES9_
FN:1501,_ZN15InputParameters16addRequiredParamINSt7__cxx1112basic_stringIcSt11char_traitsIcESaIcEEEEEvRKS6_S8_
FNDA:0,_ZN15InputParameters16addRequiredParamINSt7__cxx1112basic_stringIcSt11char_traitsIcESaIcEEEEEvRKS6_S8_
FN:1501,_ZN15InputParameters16addRequiredParamISt6vectorI12FunctionNameSaIS2_EEEEvRKNSt7__cxx1112basic_stringIcSt11char_traitsIcESaIcEEESC_
FNDA:0,_ZN15InputParameters16addRequiredParamISt6vectorI12FunctionNameSaIS2_EEEEvRKNSt7__cxx1112basic_stringIcSt11char_traitsIcESaIcEEESC_
FN:1501,_ZN15InputParameters16addRequiredParamI12MaterialNameEEvRKNSt7__cxx1112basic_stringIcSt11char_traitsIcESaIcEEES9_
FNDA:0,_ZN15InputParameters16addRequiredParamI12MaterialNameEEvRKNSt7__cxx1112basic_stringIcSt11char_traitsIcESaIcEEES9_
FN:1501,_ZN15InputParameters16addRequiredParamI20MaterialPropertyNameEEvRKNSt7__cxx1112basic_stringIcSt11char_traitsIcESaIcEEES9_
FNDA:0,_ZN15InputParameters16addRequiredParamI20MaterialPropertyNameEEvRKNSt7__cxx1112basic_stringIcSt11char_traitsIcESaIcEEES9_
FN:1501,_ZN15InputParameters16addRequiredParamIdEEvRKNSt7__cxx1112basic_stringIcSt11char_traitsIcESaIcEEES8_
FNDA:0,_ZN15InputParameters16addRequiredParamIdEEvRKNSt7__cxx1112basic_stringIcSt11char_traitsIcESaIcEEES8_
FN:1527,_ZN15InputParameters8addParamIddEEvRKNSt7__cxx1112basic_stringIcSt11char_traitsIcESaIcEEERKT0_S8_
FNDA:0,_ZN15InputParameters8addParamIddEEvRKNSt7__cxx1112basic_stringIcSt11char_traitsIcESaIcEEERKT0_S8_
FN:1527,_ZN15InputParameters8addParamIjdEEvRKNSt7__cxx1112basic_stringIcSt11char_traitsIcESaIcEEERKT0_S8_
FNDA:310,_ZN15InputParameters8addParamIjdEEvRKNSt7__cxx1112basic_stringIcSt11char_traitsIcESaIcEEERKT0_S8_
FN:1527,_ZN15InputParameters8addParamI20MaterialPropertyNameA11_cEEvRKNSt7__cxx1112basic_stringIcSt11char_traitsIcESaIcEEERKT0_SA_
FNDA:0,_ZN15InputParameters8addParamI20MaterialPropertyNameA11_cEEvRKNSt7__cxx1112basic_stringIcSt11char_traitsIcESaIcEEERKT0_SA_
FN:1527,_ZN15InputParameters8addParamISt6vectorINSt7__cxx1112basic_stringIcSt11char_traitsIcESaIcEEESaIS7_EES9_EEvRKS7_RKT0_SB_
FNDA:0,_ZN15InputParameters8addParamISt6vectorINSt7__cxx1112basic_stringIcSt11char_traitsIcESaIcEEESaIS7_EES9_EEvRKS7_RKT0_SB_
FN:1527,_ZN15InputParameters8addParamIbbEEvRKNSt7__cxx1112basic_stringIcSt11char_traitsIcESaIcEEERKT0_S8_
FNDA:0,_ZN15InputParameters8addParamIbbEEvRKNSt7__cxx1112basic_stringIcSt11char_traitsIcESaIcEEERKT0_S8_
FN:1527,_ZN15InputParameters8addParamI9MooseEnumS1_EEvRKNSt7__cxx1112basic_stringIcSt11char_traitsIcESaIcEEERKT0_S9_
FNDA:0,_ZN15InputParameters8addParamI9MooseEnumS1_EEvRKNSt7__cxx1112basic_stringIcSt11char_traitsIcESaIcEEERKT0_S9_
FN:1527,_ZN15InputParameters8addParamI20MaterialPropertyNameA15_cEEvRKNSt7__cxx1112basic_stringIcSt11char_traitsIcESaIcEEERKT0_SA_
FNDA:642,_ZN15InputParameters8addParamI20MaterialPropertyNameA15_cEEvRKNSt7__cxx1112basic_stringIcSt11char_traitsIcESaIcEEERKT0_SA_
FN:1527,_ZN15InputParameters8addParamI20MaterialPropertyNameA7_cEEvRKNSt7__cxx1112basic_stringIcSt11char_traitsIcESaIcEEERKT0_SA_
FNDA:1158,_ZN15InputParameters8addParamI20MaterialPropertyNameA7_cEEvRKNSt7__cxx1112basic_stringIcSt11char_traitsIcESaIcEEERKT0_SA_
FN:1527,_ZN15InputParameters8addParamISt6vectorI20MaterialPropertyNameSaIS2_EES4_EEvRKNSt7__cxx1112basic_stringIcSt11char_traitsIcESaIcEEERKT0_SC_
FNDA:0,_ZN15InputParameters8addParamISt6vectorI20MaterialPropertyNameSaIS2_EES4_EEvRKNSt7__cxx1112basic_stringIcSt11char_traitsIcESaIcEEERKT0_SC_
FN:1527,_ZN15InputParameters8addParamI20MaterialPropertyNameA2_cEEvRKNSt7__cxx1112basic_stringIcSt11char_traitsIcESaIcEEERKT0_SA_
FNDA:0,_ZN15InputParameters8addParamI20MaterialPropertyNameA2_cEEvRKNSt7__cxx1112basic_stringIcSt11char_traitsIcESaIcEEERKT0_SA_
FN:1527,_ZN15InputParameters8addParamI20MaterialPropertyNameA3_cEEvRKNSt7__cxx1112basic_stringIcSt11char_traitsIcESaIcEEERKT0_SA_
FNDA:0,_ZN15InputParameters8addParamI20MaterialPropertyNameA3_cEEvRKNSt7__cxx1112basic_stringIcSt11char_traitsIcESaIcEEERKT0_SA_
FN:1527,_ZN15InputParameters8addParamI20MaterialPropertyNameA6_cEEvRKNSt7__cxx1112basic_stringIcSt11char_traitsIcESaIcEEERKT0_SA_
FNDA:644,_ZN15InputParameters8addParamI20MaterialPropertyNameA6_cEEvRKNSt7__cxx1112basic_stringIcSt11char_traitsIcESaIcEEERKT0_SA_
FN:1527,_ZN15InputParameters8addParamI20MaterialPropertyNameA5_cEEvRKNSt7__cxx1112basic_stringIcSt11char_traitsIcESaIcEEERKT0_SA_
FNDA:2212,_ZN15InputParameters8addParamI20MaterialPropertyNameA5_cEEvRKNSt7__cxx1112basic_stringIcSt11char_traitsIcESaIcEEERKT0_SA_
FN:1527,_ZN15InputParameters8addParamI20MaterialPropertyNameA10_cEEvRKNSt7__cxx1112basic_stringIcSt11char_traitsIcESaIcEEERKT0_SA_
FNDA:768,_ZN15InputParameters8addParamI20MaterialPropertyNameA10_cEEvRKNSt7__cxx1112basic_stringIcSt11char_traitsIcESaIcEEERKT0_SA_
FN:1550,_ZN15InputParameters8addParamI12MaterialNameEEvRKNSt7__cxx1112basic_stringIcSt11char_traitsIcESaIcEEES9_
FNDA:1460,_ZN15InputParameters8addParamI12MaterialNameEEvRKNSt7__cxx1112basic_stringIcSt11char_traitsIcESaIcEEES9_
FN:1550,_ZN15InputParameters8addParamI20MaterialPropertyNameEEvRKNSt7__cxx1112basic_stringIcSt11char_traitsIcESaIcEEES9_
FNDA:0,_ZN15InputParameters8addParamI20MaterialPropertyNameEEvRKNSt7__cxx1112basic_stringIcSt11char_traitsIcESaIcEEES9_
FN:1564,_ZN15InputParameters14setParamHelperI20MaterialPropertyNameA2_cEEvRKNSt7__cxx1112basic_stringIcSt11char_traitsIcESaIcEEERT_RKT0_
FNDA:0,_ZN15InputParameters14setParamHelperI20MaterialPropertyNameA2_cEEvRKNSt7__cxx1112basic_stringIcSt11char_traitsIcESaIcEEERT_RKT0_
FN:1564,_ZN15InputParameters14setParamHelperI20MaterialPropertyNameA11_cEEvRKNSt7__cxx1112basic_stringIcSt11char_traitsIcESaIcEEERT_RKT0_
FNDA:0,_ZN15InputParameters14setParamHelperI20MaterialPropertyNameA11_cEEvRKNSt7__cxx1112basic_stringIcSt11char_traitsIcESaIcEEERT_RKT0_
FN:1564,_ZN15InputParameters14setParamHelperI20MaterialPropertyNameA15_cEEvRKNSt7__cxx1112basic_stringIcSt11char_traitsIcESaIcEEERT_RKT0_
FNDA:642,_ZN15InputParameters14setParamHelperI20MaterialPropertyNameA15_cEEvRKNSt7__cxx1112basic_stringIcSt11char_traitsIcESaIcEEERT_RKT0_
FN:1564,_ZN15InputParameters14setParamHelperI20MaterialPropertyNameA7_cEEvRKNSt7__cxx1112basic_stringIcSt11char_traitsIcESaIcEEERT_RKT0_
FNDA:1158,_ZN15InputParameters14setParamHelperI20MaterialPropertyNameA7_cEEvRKNSt7__cxx1112basic_stringIcSt11char_traitsIcESaIcEEERT_RKT0_
FN:1564,_ZN15InputParameters14setParamHelperI20MaterialPropertyNameA3_cEEvRKNSt7__cxx1112basic_stringIcSt11char_traitsIcESaIcEEERT_RKT0_
FNDA:0,_ZN15InputParameters14setParamHelperI20MaterialPropertyNameA3_cEEvRKNSt7__cxx1112basic_stringIcSt11char_traitsIcESaIcEEERT_RKT0_
FN:1564,_ZN15InputParameters14setParamHelperI20MaterialPropertyNameA6_cEEvRKNSt7__cxx1112basic_stringIcSt11char_traitsIcESaIcEEERT_RKT0_
FNDA:644,_ZN15InputParameters14setParamHelperI20MaterialPropertyNameA6_cEEvRKNSt7__cxx1112basic_stringIcSt11char_traitsIcESaIcEEERT_RKT0_
FN:1564,_ZN15InputParameters14setParamHelperI20MaterialPropertyNameA10_cEEvRKNSt7__cxx1112basic_stringIcSt11char_traitsIcESaIcEEERT_RKT0_
FNDA:768,_ZN15InputParameters14setParamHelperI20MaterialPropertyNameA10_cEEvRKNSt7__cxx1112basic_stringIcSt11char_traitsIcESaIcEEERT_RKT0_
FN:1564,_ZN15InputParameters14setParamHelperI20MaterialPropertyNameA5_cEEvRKNSt7__cxx1112basic_stringIcSt11char_traitsIcESaIcEEERT_RKT0_
FNDA:2212,_ZN15InputParameters14setParamHelperI20MaterialPropertyNameA5_cEEvRKNSt7__cxx1112basic_stringIcSt11char_traitsIcESaIcEEERT_RKT0_
FN:1600,_ZN15InputParameters20addRangeCheckedParamIdEEvRKNSt7__cxx1112basic_stringIcSt11char_traitsIcESaIcEEERKT_S8_S8_
FNDA:0,_ZN15InputParameters20addRangeCheckedParamIdEEvRKNSt7__cxx1112basic_stringIcSt11char_traitsIcESaIcEEERKT_S8_S8_
FN:1723,_ZNK15InputParameters19checkConsistentTypeIdEEvRKNSt7__cxx1112basic_stringIcSt11char_traitsIcESaIcEEE
FNDA:0,_ZNK15InputParameters19checkConsistentTypeIdEEvRKNSt7__cxx1112basic_stringIcSt11char_traitsIcESaIcEEE
FN:1723,_ZNK15InputParameters19checkConsistentTypeINSt7__cxx1112basic_stringIcSt11char_traitsIcESaIcEEEEEvRKS6_
FNDA:0,_ZNK15InputParameters19checkConsistentTypeINSt7__cxx1112basic_stringIcSt11char_traitsIcESaIcEEEEEvRKS6_
FN:1723,_ZNK15InputParameters19checkConsistentTypeI20MaterialPropertyNameEEvRKNSt7__cxx1112basic_stringIcSt11char_traitsIcESaIcEEE
FNDA:0,_ZNK15InputParameters19checkConsistentTypeI20MaterialPropertyNameEEvRKNSt7__cxx1112basic_stringIcSt11char_traitsIcESaIcEEE
FN:1723,_ZNK15InputParameters19checkConsistentTypeIjEEvRKNSt7__cxx1112basic_stringIcSt11char_traitsIcESaIcEEE
FNDA:0,_ZNK15InputParameters19checkConsistentTypeIjEEvRKNSt7__cxx1112basic_stringIcSt11char_traitsIcESaIcEEE
FN:1723,_ZNK15InputParameters19checkConsistentTypeISt6vectorI12FunctionNameSaIS2_EEEEvRKNSt7__cxx1112basic_stringIcSt11char_traitsIcESaIcEEE
FNDA:0,_ZNK15InputParameters19checkConsistentTypeISt6vectorI12FunctionNameSaIS2_EEEEvRKNSt7__cxx1112basic_stringIcSt11char_traitsIcESaIcEEE
FN:1723,_ZNK15InputParameters19checkConsistentTypeI12FunctionNameEEvRKNSt7__cxx1112basic_stringIcSt11char_traitsIcESaIcEEE
FNDA:0,_ZNK15InputParameters19checkConsistentTypeI12FunctionNameEEvRKNSt7__cxx1112basic_stringIcSt11char_traitsIcESaIcEEE
FN:1723,_ZNK15InputParameters19checkConsistentTypeISt6vectorINSt7__cxx1112basic_stringIcSt11char_traitsIcESaIcEEESaIS7_EEEEvRKS7_
FNDA:0,_ZNK15InputParameters19checkConsistentTypeISt6vectorINSt7__cxx1112basic_stringIcSt11char_traitsIcESaIcEEESaIS7_EEEEvRKS7_
FN:1723,_ZNK15InputParameters19checkConsistentTypeI12MaterialNameEEvRKNSt7__cxx1112basic_stringIcSt11char_traitsIcESaIcEEE
FNDA:0,_ZNK15InputParameters19checkConsistentTypeI12MaterialNameEEvRKNSt7__cxx1112basic_stringIcSt11char_traitsIcESaIcEEE
FN:1723,_ZNK15InputParameters19checkConsistentTypeIbEEvRKNSt7__cxx1112basic_stringIcSt11char_traitsIcESaIcEEE
FNDA:0,_ZNK15InputParameters19checkConsistentTypeIbEEvRKNSt7__cxx1112basic_stringIcSt11char_traitsIcESaIcEEE
FN:1723,_ZNK15InputParameters19checkConsistentTypeISt6vectorI20MaterialPropertyNameSaIS2_EEEEvRKNSt7__cxx1112basic_stringIcSt11char_traitsIcESaIcEEE
FNDA:0,_ZNK15InputParameters19checkConsistentTypeISt6vectorI20MaterialPropertyNameSaIS2_EEEEvRKNSt7__cxx1112basic_stringIcSt11char_traitsIcESaIcEEE
FN:1723,_ZNK15InputParameters19checkConsistentTypeI9MooseEnumEEvRKNSt7__cxx1112basic_stringIcSt11char_traitsIcESaIcEEE
FNDA:0,_ZNK15InputParameters19checkConsistentTypeI9MooseEnumEEvRKNSt7__cxx1112basic_stringIcSt11char_traitsIcESaIcEEE
FN:1746,_ZN15InputParameters17suppressParameterIjEEvRKNSt7__cxx1112basic_stringIcSt11char_traitsIcESaIcEEE
FNDA:0,_ZN15InputParameters17suppressParameterIjEEvRKNSt7__cxx1112basic_stringIcSt11char_traitsIcESaIcEEE
FN:1746,_ZN15InputParameters17suppressParameterIbEEvRKNSt7__cxx1112basic_stringIcSt11char_traitsIcESaIcEEE
FNDA:0,_ZN15InputParameters17suppressParameterIbEEvRKNSt7__cxx1112basic_stringIcSt11char_traitsIcESaIcEEE
FN:1919,_ZN15InputParameters14getParamHelperIdEERKT_RKNSt7__cxx1112basic_stringIcSt11char_traitsIcESaIcEEERKS_PS2_PK9MooseBase
FNDA:213,_ZN15InputParameters14getParamHelperIdEERKT_RKNSt7__cxx1112basic_stringIcSt11char_traitsIcESaIcEEERKS_PS2_PK9MooseBase
FN:1919,_ZN15InputParameters14getParamHelperISt6vectorI12FunctionNameSaIS2_EEEERKT_RKNSt7__cxx1112basic_stringIcSt11char_traitsIcESaIcEEERKS_PS6_PK9MooseBase
FNDA:0,_ZN15InputParameters14getParamHelperISt6vectorI12FunctionNameSaIS2_EEEERKT_RKNSt7__cxx1112basic_stringIcSt11char_traitsIcESaIcEEERKS_PS6_PK9MooseBase
FN:1919,_ZN15InputParameters14getParamHelperI20MaterialPropertyNameEERKT_RKNSt7__cxx1112basic_stringIcSt11char_traitsIcESaIcEEERKS_PS3_PK9MooseBase
FNDA:282,_ZN15InputParameters14getParamHelperI20MaterialPropertyNameEERKT_RKNSt7__cxx1112basic_stringIcSt11char_traitsIcESaIcEEERKS_PS3_PK9MooseBase
FN:1919,_ZN15InputParameters14getParamHelperIbEERKT_RKNSt7__cxx1112basic_stringIcSt11char_traitsIcESaIcEEERKS_PS2_PK9MooseBase
FNDA:201,_ZN15InputParameters14getParamHelperIbEERKT_RKNSt7__cxx1112basic_stringIcSt11char_traitsIcESaIcEEERKS_PS2_PK9MooseBase
FN:1919,_ZN15InputParameters14getParamHelperISt6vectorI20MaterialPropertyNameSaIS2_EEEERKT_RKNSt7__cxx1112basic_stringIcSt11char_traitsIcESaIcEEERKS_PS6_PK9MooseBase
FNDA:48,_ZN15InputParameters14getParamHelperISt6vectorI20MaterialPropertyNameSaIS2_EEEERKT_RKNSt7__cxx1112basic_stringIcSt11char_traitsIcESaIcEEERKS_PS6_PK9MooseBase
FN:1919,_ZN15InputParameters14getParamHelperI12MaterialNameEERKT_RKNSt7__cxx1112basic_stringIcSt11char_traitsIcESaIcEEERKS_PS3_PK9MooseBase
FNDA:0,_ZN15InputParameters14getParamHelperI12MaterialNameEERKT_RKNSt7__cxx1112basic_stringIcSt11char_traitsIcESaIcEEERKS_PS3_PK9MooseBase
FN:1919,_ZN15InputParameters14getParamHelperIjEERKT_RKNSt7__cxx1112basic_stringIcSt11char_traitsIcESaIcEEERKS_PS2_PK9MooseBase
FNDA:138,_ZN15InputParameters14getParamHelperIjEERKT_RKNSt7__cxx1112basic_stringIcSt11char_traitsIcESaIcEEERKS_PS2_PK9MooseBase
FN:1919,_ZN15InputParameters14getParamHelperINSt7__cxx1112basic_stringIcSt11char_traitsIcESaIcEEEEERKT_RKS6_RKS_PS8_PK9MooseBase
FNDA:306,_ZN15InputParameters14getParamHelperINSt7__cxx1112basic_stringIcSt11char_traitsIcESaIcEEEEERKT_RKS6_RKS_PS8_PK9MooseBase
FN:1919,_ZN15InputParameters14getParamHelperISt6vectorINSt7__cxx1112basic_stringIcSt11char_traitsIcESaIcEEESaIS7_EEEERKT_RKS7_RKS_PSB_PK9MooseBase
FNDA:918,_ZN15InputParameters14getParamHelperISt6vectorINSt7__cxx1112basic_stringIcSt11char_traitsIcESaIcEEESaIS7_EEEERKT_RKS7_RKS_PSB_PK9MooseBase
FN:2007,_ZNK15InputParameters3getINSt7__cxx1112basic_stringIcSt11char_traitsIcESaIcEEEEERKT_St17basic_string_viewIcS4_E
FNDA:0,_ZNK15InputParameters3getINSt7__cxx1112basic_stringIcSt11char_traitsIcESaIcEEEEERKT_St17basic_string_viewIcS4_E
FN:2007,_ZNK15InputParameters3getI12MaterialNameEERKT_St17basic_string_viewIcSt11char_traitsIcEE
FNDA:0,_ZNK15InputParameters3getI12MaterialNameEERKT_St17basic_string_viewIcSt11char_traitsIcEE
FN:2007,_ZNK15InputParameters3getISt6vectorINSt7__cxx1112basic_stringIcSt11char_traitsIcESaIcEEESaIS7_EEEERKT_St17basic_string_viewIcS5_E
FNDA:0,_ZNK15InputParameters3getISt6vectorINSt7__cxx1112basic_stringIcSt11char_traitsIcESaIcEEESaIS7_EEEERKT_St17basic_string_viewIcS5_E
FN:2007,_ZNK15InputParameters3getIjEERKT_St17basic_string_viewIcSt11char_traitsIcEE
FNDA:0,_ZNK15InputParameters3getIjEERKT_St17basic_string_viewIcSt11char_traitsIcEE
FN:2007,_ZNK15InputParameters3getISt6vectorI20MaterialPropertyNameSaIS2_EEEERKT_St17basic_string_viewIcSt11char_traitsIcEE
FNDA:0,_ZNK15InputParameters3getISt6vectorI20MaterialPropertyNameSaIS2_EEEERKT_St17basic_string_viewIcSt11char_traitsIcEE
FN:2007,_ZNK15InputParameters3getIbEERKT_St17basic_string_viewIcSt11char_traitsIcEE
FNDA:0,_ZNK15InputParameters3getIbEERKT_St17basic_string_viewIcSt11char_traitsIcEE
FN:2007,_ZNK15InputParameters3getISt6vectorI12FunctionNameSaIS2_EEEERKT_St17basic_string_viewIcSt11char_traitsIcEE
FNDA:0,_ZNK15InputParameters3getISt6vectorI12FunctionNameSaIS2_EEEERKT_St17basic_string_viewIcSt11char_traitsIcEE
FN:2007,_ZNK15InputParameters3getIdEERKT_St17basic_string_viewIcSt11char_traitsIcEE
FNDA:0,_ZNK15InputParameters3getIdEERKT_St17basic_string_viewIcSt11char_traitsIcEE
FN:2007,_ZNK15InputParameters3getI20MaterialPropertyNameEERKT_St17basic_string_viewIcSt11char_traitsIcEE
FNDA:0,_ZNK15InputParameters3getI20MaterialPropertyNameEERKT_St17basic_string_viewIcSt11char_traitsIcEE
FN:2016,_ZNK15InputParameters14have_parameterIjEEbSt17basic_string_viewIcSt11char_traitsIcEE
FNDA:0,_ZNK15InputParameters14have_parameterIjEEbSt17basic_string_viewIcSt11char_traitsIcEE
FN:2016,_ZNK15InputParameters14have_parameterIbEEbSt17basic_string_viewIcSt11char_traitsIcEE
FNDA:0,_ZNK15InputParameters14have_parameterIbEEbSt17basic_string_viewIcSt11char_traitsIcEE
FN:2016,_ZNK15InputParameters14have_parameterI20MaterialPropertyNameEEbSt17basic_string_viewIcSt11char_traitsIcEE
FNDA:0,_ZNK15InputParameters14have_parameterI20MaterialPropertyNameEEbSt17basic_string_viewIcSt11char_traitsIcEE
FNF:76
FNH:20
DA:69,0
DA:69,0
DA:230,578
DA:234,578
DA:235,578
DA:1301,0
DA:1303,0
DA:1305,0
DA:1306,0
DA:1308,0
DA:1310,0
DA:1311,0
DA:1315,0
DA:1301,0
DA:1303,0
DA:1305,0
DA:1306,0
DA:1308,0
DA:1310,0
DA:1311,0
DA:1315,0
DA:1301,0
DA:1303,0
DA:1305,0
DA:1306,0
DA:1308,0
DA:1310,0
DA:1311,0
DA:1315,0
DA:1301,0
DA:1303,0
DA:1305,0
DA:1306,0
DA:1308,0
DA:1310,0
DA:1311,0
DA:1315,0
DA:1301,0
DA:1303,0
DA:1305,0
DA:1306,0
DA:1308,0
DA:1310,0
DA:1311,0
DA:1315,0
DA:1301,0
DA:1303,0
DA:1305,0
DA:1306,0
DA:1308,0
DA:1310,0
DA:1311,0
DA:1315,0
DA:1301,0
DA:1303,0
DA:1305,0
DA:1306,0
DA:1308,0
DA:1310,0
DA:1311,0
DA:1315,0
DA:1301,0
DA:1303,0
DA:1305,0
DA:1306,0
DA:1308,0
DA:1310,0
DA:1311,0
DA:1315,0
DA:1501,0
DA:1503,0
DA:1504,0
DA:1506,0
DA:1507,0
DA:1508,0
DA:1512,0
DA:1513,0
DA:1501,0
DA:1503,0
DA:1504,0
DA:1506,0
DA:1507,0
DA:1508,0
DA:1512,0
DA:1513,0
DA:1501,0
DA:1503,0
DA:1504,0
DA:1506,0
DA:1507,0
DA:1508,0
DA:1512,0
DA:1513,0
DA:1501,0
DA:1503,0
DA:1504,0
DA:1506,0
DA:1507,0
DA:1508,0
DA:1512,0
DA:1513,0
DA:1501,0
DA:1503,0
DA:1504,0
DA:1506,0
DA:1507,0
DA:1508,0
DA:1512,0
DA:1513,0
DA:1501,0
DA:1503,0
DA:1504,0
DA:1506,0
DA:1507,0
DA:1508,0
DA:1512,0
DA:1513,0
DA:1527,0
DA:1529,0
DA:1530,0
DA:1532,0
DA:1533,0
DA:1537,0
DA:1545,0
DA:1546,0
DA:1527,0
DA:1529,0
DA:1530,0
DA:1532,0
DA:1533,0
DA:1537,0
DA:1545,0
DA:1546,0
DA:1527,310
DA:1529,310
DA:1530,310
DA:1532,310
DA:1533,310
DA:1537,310
DA:1545,310
DA:1546,310
DA:1527,0
DA:1529,0
DA:1530,0
DA:1532,0
DA:1533,0
DA:1537,0
DA:1545,0
DA:1546,0
DA:1527,0
DA:1529,0
DA:1530,0
DA:1532,0
DA:1533,0
DA:1537,0
DA:1540,0
DA:1545,0
DA:1546,0
DA:1527,642
DA:1529,642
DA:1530,642
DA:1532,642
DA:1533,642
DA:1537,642
DA:1540,642
DA:1545,642
DA:1546,642
DA:1527,1158
DA:1529,1158
DA:1530,1158
DA:1532,1158
DA:1533,1158
DA:1537,1158
DA:1540,1158
DA:1545,1158
DA:1546,1158
DA:1527,0
DA:1529,0
DA:1530,0
DA:1532,0
DA:1533,0
DA:1537,0
DA:1545,0
DA:1546,0
DA:1527,0
DA:1529,0
DA:1530,0
DA:1532,0
DA:1533,0
DA:1537,0
DA:1545,0
DA:1546,0
DA:1527,2212
DA:1529,2212
DA:1530,2212
DA:1532,2212
DA:1533,2212
DA:1537,2212
DA:1540,2212
DA:1545,2212
DA:1546,2212
DA:1527,768
DA:1529,768
DA:1530,768
DA:1532,768
DA:1533,768
DA:1537,768
DA:1540,768
DA:1545,768
DA:1546,768
DA:1527,644
DA:1529,644
DA:1530,644
DA:1532,644
DA:1533,644
DA:1537,644
DA:1540,644
DA:1545,644
DA:1546,644
DA:1527,0
DA:1529,0
DA:1530,0
DA:1532,0
DA:1533,0
DA:1537,0
DA:1540,0
DA:1545,0
DA:1546,0
DA:1527,0
DA:1529,0
DA:1530,0
DA:1532,0
DA:1533,0
DA:1537,0
DA:1540,0
DA:1545,0
DA:1546,0
DA:1550,1460
DA:1552,1460
DA:1553,1460
DA:1555,1460
DA:1559,1460
DA:1560,1460
DA:1550,0
DA:1552,0
DA:1553,0
DA:1555,0
DA:1559,0
DA:1560,0
DA:1564,0
DA:1566,0
DA:1567,0
DA:1564,642
DA:1566,642
DA:1567,642
DA:1564,1158
DA:1566,1158
DA:1567,1158
DA:1564,2212
DA:1566,2212
DA:1567,2212
DA:1564,768
DA:1566,768
DA:1567,768
DA:1564,644
DA:1566,644
DA:1567,644
DA:1564,0
DA:1566,0
DA:1567,0
DA:1564,0
DA:1566,0
DA:1567,0
DA:1566,0
DA:1600,0
DA:1605,0
DA:1606,0
DA:1607,0
DA:1723,0
DA:1725,0
DA:1729,0
DA:1734,0
DA:1735,0
DA:1740,0
DA:1723,0
DA:1725,0
DA:1729,0
DA:1734,0
DA:1735,0
DA:1740,0
DA:1723,0
DA:1725,0
DA:1729,0
DA:1734,0
DA:1735,0
DA:1740,0
DA:1723,0
DA:1725,0
DA:1729,0
DA:1734,0
DA:1735,0
DA:1740,0
DA:1723,0
DA:1725,0
DA:1729,0
DA:1734,0
DA:1735,0
DA:1740,0
DA:1723,0
DA:1725,0
DA:1729,0
DA:1734,0
DA:1735,0
DA:1740,0
DA:1723,0
DA:1725,0
DA:1729,0
DA:1734,0
DA:1735,0
DA:1740,0
DA:1723,0
DA:1725,0
DA:1729,0
DA:1734,0
DA:1735,0
DA:1740,0
DA:1723,0
DA:1725,0
DA:1729,0
DA:1734,0
DA:1735,0
DA:1740,0
DA:1723,0
DA:1725,0
DA:1729,0
DA:1734,0
DA:1735,0
DA:1740,0
DA:1723,0
DA:1725,0
DA:1729,0
DA:1734,0
DA:1735,0
DA:1740,0
DA:1746,0
DA:1748,0
DA:1749,0
DA:1750,0
DA:1752,0
DA:1753,0
DA:1754,0
DA:1755,0
DA:1756,0
DA:1746,0
DA:1748,0
DA:1749,0
DA:1750,0
DA:1752,0
DA:1753,0
DA:1754,0
DA:1755,0
DA:1756,0
DA:1919,918
DA:1924,918
DA:1926,918
DA:1928,0
DA:1929,0
DA:1930,0
DA:1931,0
DA:1933,0
DA:1936,1836
DA:1919,306
DA:1924,306
DA:1926,306
DA:1928,0
DA:1929,0
DA:1930,0
DA:1931,0
DA:1933,0
DA:1936,612
DA:1919,138
DA:1924,138
DA:1926,138
DA:1928,0
DA:1929,0
DA:1930,0
DA:1931,0
DA:1933,0
DA:1936,276
DA:1919,0
DA:1924,0
DA:1926,0
DA:1928,0
DA:1929,0
DA:1930,0
DA:1931,0
DA:1933,0
DA:1936,0
DA:1919,48
DA:1924,48
DA:1926,48
DA:1928,0
DA:1929,0
DA:1930,0
DA:1931,0
DA:1933,0
DA:1936,96
DA:1919,201
DA:1924,201
DA:1926,201
DA:1928,0
DA:1929,0
DA:1930,0
DA:1931,0
DA:1933,0
DA:1936,402
DA:1919,282
DA:1924,282
DA:1926,282
DA:1928,0
DA:1929,0
DA:1930,0
DA:1931,0
DA:1933,0
DA:1936,564
DA:1919,0
DA:1924,0
DA:1926,0
DA:1928,0
DA:1929,0
DA:1930,0
DA:1931,0
DA:1933,0
DA:1936,0
DA:1919,213
DA:1924,213
DA:1926,213
DA:1928,0
DA:1929,0
DA:1930,0
DA:1931,0
DA:1933,0
DA:1936,426
DA:2007,0
DA:2009,0
DA:2011,0
DA:2007,0
DA:2009,0
DA:2011,0
DA:2007,0
DA:2009,0
DA:2011,0
DA:2007,0
DA:2009,0
DA:2011,0
DA:2007,0
DA:2009,0
DA:2011,0
DA:2007,0
DA:2009,0
DA:2011,0
DA:2007,0
DA:2009,0
DA:2011,0
DA:2007,0
DA:2009,0
DA:2011,0
DA:2007,0
DA:2009,0
DA:2011,0
DA:2016,0
DA:2018,0
DA:2020,0
DA:2016,0
DA:2018,0
DA:2020,0
DA:2016,0
DA:2018,0
DA:2020,0
LF:479
LH:105
end_of_record
SF:/home/runner/work/raccoon/raccoon/build/header_symlinks/SmallDeformationJ2Plasticity.h
LF:0
LH:0
end_of_record
SF:/home/runner/micromamba/envs/moose/x86_64-conda-linux-gnu/include/c++/10.4.0/bits/char_traits.h
DA:357,18
DA:374,0
DA:389,0
DA:399,87139
LF:4
LH:2
end_of_record
SF:/home/runner/work/raccoon/raccoon/src/materials/small_deformation_models/SmallDeformationJ2Plasticity.C
FN:10,_ZN28SmallDeformationJ2Plasticity11validParamsEv
FNDA:134,_ZN28SmallDeformationJ2Plasticity11validParamsEv
FN:18,_ZN28SmallDeformationJ2PlasticityC2ERK15InputParameters
FNDA:6,_ZN28SmallDeformationJ2PlasticityC2ERK15InputParameters
FN:24,_ZN28SmallDeformationJ2Plasticity11updateStateER18RankTwoTensorTemplIN11MetaPhysicL10DualNumberIdNS1_28SemiDynamicSparseNumberArrayIdmNS1_8NWrapperILm64EEEEELb1EEEES9_
FNDA:139608,_ZN28SmallDeformationJ2Plasticity11updateStateER18RankTwoTensorTemplIN11MetaPhysicL10DualNumberIdNS1_28SemiDynamicSparseNumberArrayIdmNS1_8NWrapperILm64EEEEELb1EEEES9_
FN:55,_ZN28SmallDeformationJ2Plasticity24computeReferenceResidualERKN11MetaPhysicL10DualNumberIdNS0_28SemiDynamicSparseNumberArrayIdmNS0_8NWrapperILm64EEEEELb1EEES8_
FNDA:398,_ZN28SmallDeformationJ2Plasticity24computeReferenceResidualERKN11MetaPhysicL10DualNumberIdNS0_28SemiDynamicSparseNumberArrayIdmNS0_8NWrapperILm64EEEEELb1EEES8_
FN:64,_ZN28SmallDeformationJ2Plasticity15computeResidualERKN11MetaPhysicL10DualNumberIdNS0_28SemiDynamicSparseNumberArrayIdmNS0_8NWrapperILm64EEEEELb1EEES8_
FNDA:140006,_ZN28SmallDeformationJ2Plasticity15computeResidualERKN11MetaPhysicL10DualNumberIdNS0_28SemiDynamicSparseNumberArrayIdmNS0_8NWrapperILm64EEEEELb1EEES8_
FN:73,_ZN28SmallDeformationJ2Plasticity17computeDerivativeERKN11MetaPhysicL10DualNumberIdNS0_28SemiDynamicSparseNumberArrayIdmNS0_8NWrapperILm64EEEEELb1EEES8_
FNDA:398,_ZN28SmallDeformationJ2Plasticity17computeDerivativeERKN11MetaPhysicL10DualNumberIdNS0_28SemiDynamicSparseNumberArrayIdmNS0_8NWrapperILm64EEEEELb1EEES8_
FNF:6
FNH:6
DA:10,134
DA:12,134
DA:13,134
DA:15,134
DA:18,6
DA:19,6
DA:21,6
DA:24,139608
DA:28,139608
DA:29,139608
DA:30,139608
DA:34,139608
DA:35,139608
DA:36,139608
DA:37,49268
DA:38,279216
DA:39,279216
DA:42,139608
DA:43,139608
DA:44,134
DA:45,279216
DA:46,139608
DA:49,279216
DA:50,139608
DA:51,139608
DA:52,139608
DA:55,398
DA:60,1194
DA:64,140006
DA:67,140006
DA:68,420018
DA:69,420018
DA:73,398
DA:76,398
DA:77,796
LF:35
LH:35
end_of_record
SF:/home/runner/work/raccoon/raccoon/build/header_symlinks/LargeDeformationViscoelasticityModel.h
FN:31,_ZN36LargeDeformationViscoelasticityModel17resetQpPropertiesEv
FNDA:0,_ZN36LargeDeformationViscoelasticityModel17resetQpPropertiesEv
FN:32,_ZN36LargeDeformationViscoelasticityModel15resetPropertiesEv
FNDA:15556,_ZN36LargeDeformationViscoelasticityModel15resetPropertiesEv
FNF:2
FNH:1
DA:31,0
DA:32,15556
LF:2
LH:1
end_of_record
SF:/home/runner/work/raccoon/raccoon/moose/framework/build/header_symlinks/DerivativeMaterialInterface.h
LF:0
LH:0
end_of_record
SF:/home/runner/work/raccoon/raccoon/src/materials/ComputeEigenstrainFromFunctionInitialStress.C
FN:10,_ZN43ComputeEigenstrainFromFunctionInitialStress11validParamsEv
FNDA:126,_ZN43ComputeEigenstrainFromFunctionInitialStress11validParamsEv
FN:32,_ZN43ComputeEigenstrainFromFunctionInitialStressC2ERK15InputParameters
FNDA:0,_ZN43ComputeEigenstrainFromFunctionInitialStressC2ERK15InputParameters
FN:58,_ZN43ComputeEigenstrainFromFunctionInitialStress24initQpStatefulPropertiesEv
FNDA:0,_ZN43ComputeEigenstrainFromFunctionInitialStress24initQpStatefulPropertiesEv
FN:64,_ZN43ComputeEigenstrainFromFunctionInitialStress19computeQpPropertiesEv
FNDA:0,_ZN43ComputeEigenstrainFromFunctionInitialStress19computeQpPropertiesEv
FNF:4
FNH:1
DA:10,126
DA:12,126
DA:13,126
DA:14,126
DA:20,252
DA:21,252
DA:22,252
DA:27,252
DA:29,126
DA:32,0
DA:33,0
DA:36,0
DA:37,0
DA:38,0
DA:39,0
DA:42,0
DA:45,0
DA:46,0
DA:48,0
DA:49,0
DA:50,0
DA:52,0
DA:53,0
DA:54,0
DA:55,0
DA:58,0
DA:60,0
DA:61,0
DA:64,0
DA:67,0
DA:68,0
DA:69,0
DA:70,0
DA:71,0
DA:73,0
DA:74,0
DA:75,0
DA:76,0
LF:38
LH:9
end_of_record
SF:/home/runner/work/raccoon/raccoon/moose/framework/build/header_symlinks/InfixIterator.h
FN:46,_ZN22infix_ostream_iteratorINSt7__cxx1112basic_stringIcSt11char_traitsIcESaIcEEEcS3_EaSERKS5_
FNDA:0,_ZN22infix_ostream_iteratorINSt7__cxx1112basic_stringIcSt11char_traitsIcESaIcEEEcS3_EaSERKS5_
FNF:1
FNH:0
DA:46,0
DA:50,0
DA:51,0
DA:52,0
DA:53,0
DA:54,0
LF:6
LH:0
end_of_record
SF:/home/runner/work/raccoon/raccoon/moose/framework/build/header_symlinks/FunctorInterface.h
LF:0
LH:0
end_of_record
SF:/home/runner/work/raccoon/raccoon/moose/framework/build/header_symlinks/SetupInterface.h
FN:61,_ZN14SetupInterface11customSetupERK13MooseEnumItem
FNDA:0,_ZN14SetupInterface11customSetupERK13MooseEnumItem
FNF:1
FNH:0
DA:61,0
LF:1
LH:0
end_of_record
SF:/home/runner/micromamba/envs/moose/libmesh/include/metaphysicl/dynamic_std_array_wrapper.h
FN:54,_ZN11MetaPhysicL22DynamicStdArrayWrapperImNS_8NWrapperILm64EEEEC2ERKS3_
FNDA:1842382,_ZN11MetaPhysicL22DynamicStdArrayWrapperImNS_8NWrapperILm64EEEEC2ERKS3_
FN:54,_ZN11MetaPhysicL22DynamicStdArrayWrapperIdNS_8NWrapperILm64EEEEC2ERKS3_
FNDA:1842382,_ZN11MetaPhysicL22DynamicStdArrayWrapperIdNS_8NWrapperILm64EEEEC2ERKS3_
FN:71,_ZN11MetaPhysicL22DynamicStdArrayWrapperImNS_8NWrapperILm64EEEEaSERKS3_
FNDA:0,_ZN11MetaPhysicL22DynamicStdArrayWrapperImNS_8NWrapperILm64EEEEaSERKS3_
FN:71,_ZN11MetaPhysicL22DynamicStdArrayWrapperIdNS_8NWrapperILm64EEEEaSERKS3_
FNDA:0,_ZN11MetaPhysicL22DynamicStdArrayWrapperIdNS_8NWrapperILm64EEEEaSERKS3_
FN:122,_ZN11MetaPhysicL22DynamicStdArrayWrapperImNS_8NWrapperILm64EEEE6resizeEm
FNDA:0,_ZN11MetaPhysicL22DynamicStdArrayWrapperImNS_8NWrapperILm64EEEE6resizeEm
FN:122,_ZN11MetaPhysicL22DynamicStdArrayWrapperIdNS_8NWrapperILm64EEEE6resizeEm
FNDA:0,_ZN11MetaPhysicL22DynamicStdArrayWrapperIdNS_8NWrapperILm64EEEE6resizeEm
FNF:6
FNH:2
DA:54,1842382
DA:56,1842382
DA:58,1842382
DA:59,1842382
DA:54,1842382
DA:56,1842382
DA:58,1842382
DA:59,1842382
DA:62,1206952
DA:64,1206952
DA:67,2684376
DA:68,1477424
DA:71,0
DA:73,0
DA:75,0
DA:76,0
DA:71,0
DA:73,0
DA:75,0
DA:76,0
DA:82,70039298
DA:85,217929522
DA:86,147890224
DA:90,68186430
DA:99,71246250
DA:105,510525284
DA:120,36566641
DA:122,0
DA:124,0
DA:125,0
DA:126,0
DA:127,0
DA:122,0
DA:124,0
DA:125,0
DA:126,0
DA:127,0
DA:132,0
DA:138,0
DA:143,0
LF:40
LH:19
end_of_record
SF:/home/runner/work/raccoon/raccoon/moose/framework/build/header_symlinks/ElemInfo.h
DA:34,0
LF:1
LH:0
end_of_record
SF:/home/runner/micromamba/envs/moose/libmesh/include/libmesh/libmesh_common.h
DA:618,683986
LF:1
LH:1
end_of_record
SF:/home/runner/micromamba/envs/moose/x86_64-conda-linux-gnu/include/c++/10.4.0/utility
DA:189,0
LF:1
LH:0
end_of_record
SF:/home/runner/work/raccoon/raccoon/moose/framework/build/header_symlinks/MooseUtils.h
FN:129,_ZN10MooseUtils4joinISt6vectorINSt7__cxx1112basic_stringIcSt11char_traitsIcESaIcEEESaIS7_EEEES7_RKT_RKS7_
FNDA:0,_ZN10MooseUtils4joinISt6vectorINSt7__cxx1112basic_stringIcSt11char_traitsIcESaIcEEESaIS7_EEEES7_RKT_RKS7_
FN:321,_ZN10MooseUtils13prettyCppTypeI18RankTwoTensorTemplIdEEENSt7__cxx1112basic_stringIcSt11char_traitsIcESaIcEEEPKT_
FNDA:0,_ZN10MooseUtils13prettyCppTypeI18RankTwoTensorTemplIdEEENSt7__cxx1112basic_stringIcSt11char_traitsIcESaIcEEEPKT_
FN:321,_ZN10MooseUtils13prettyCppTypeIdEENSt7__cxx1112basic_stringIcSt11char_traitsIcESaIcEEEPKT_
FNDA:0,_ZN10MooseUtils13prettyCppTypeIdEENSt7__cxx1112basic_stringIcSt11char_traitsIcESaIcEEEPKT_
FNF:3
FNH:0
DA:129,0
DA:131,0
DA:132,0
DA:134,0
DA:321,0
DA:323,0
DA:321,0
DA:323,0
DA:356,979336
LF:9
LH:1
end_of_record
SF:/home/runner/work/raccoon/raccoon/build/header_symlinks/JohnsonCookHardening.h
LF:0
LH:0
end_of_record
SF:/home/runner/work/raccoon/raccoon/src/materials/large_deformation_models/LargeDeformationJ2Plasticity.C
FN:11,_ZN28LargeDeformationJ2Plasticity11validParamsEv
FNDA:304,_ZN28LargeDeformationJ2Plasticity11validParamsEv
FN:19,_ZN28LargeDeformationJ2PlasticityC2ERK15InputParameters
FNDA:39,_ZN28LargeDeformationJ2PlasticityC2ERK15InputParameters
FN:26,_ZN28LargeDeformationJ2Plasticity11updateStateER18RankTwoTensorTemplIN11MetaPhysicL10DualNumberIdNS1_28SemiDynamicSparseNumberArrayIdmNS1_8NWrapperILm64EEEEELb1EEEES9_
FNDA:233968,_ZN28LargeDeformationJ2Plasticity11updateStateER18RankTwoTensorTemplIN11MetaPhysicL10DualNumberIdNS1_28SemiDynamicSparseNumberArrayIdmNS1_8NWrapperILm64EEEEELb1EEEES9_
FN:61,_ZN28LargeDeformationJ2Plasticity24computeReferenceResidualERKN11MetaPhysicL10DualNumberIdNS0_28SemiDynamicSparseNumberArrayIdmNS0_8NWrapperILm64EEEEELb1EEES8_
FNDA:295822,_ZN28LargeDeformationJ2Plasticity24computeReferenceResidualERKN11MetaPhysicL10DualNumberIdNS0_28SemiDynamicSparseNumberArrayIdmNS0_8NWrapperILm64EEEEELb1EEES8_
FN:71,_ZN28LargeDeformationJ2Plasticity15computeResidualERKN11MetaPhysicL10DualNumberIdNS0_28SemiDynamicSparseNumberArrayIdmNS0_8NWrapperILm64EEEEELb1EEES8_
FNDA:522422,_ZN28LargeDeformationJ2Plasticity15computeResidualERKN11MetaPhysicL10DualNumberIdNS0_28SemiDynamicSparseNumberArrayIdmNS0_8NWrapperILm64EEEEELb1EEES8_
FN:84,_ZN28LargeDeformationJ2Plasticity17computeDerivativeERKN11MetaPhysicL10DualNumberIdNS0_28SemiDynamicSparseNumberArrayIdmNS0_8NWrapperILm64EEEEELb1EEES8_
FNDA:290222,_ZN28LargeDeformationJ2Plasticity17computeDerivativeERKN11MetaPhysicL10DualNumberIdNS0_28SemiDynamicSparseNumberArrayIdmNS0_8NWrapperILm64EEEEELb1EEES8_
FNF:6
FNH:6
DA:11,304
DA:13,304
DA:14,304
DA:16,304
DA:19,39
DA:20,39
DA:22,39
DA:23,39
DA:26,233968
DA:29,233968
DA:30,233968
DA:31,233968
DA:35,233968
DA:36,233968
DA:37,233968
DA:38,32840
DA:39,467936
DA:40,467936
DA:42,233968
DA:43,233968
DA:44,96852
DA:46,467936
DA:47,467936
DA:48,233968
DA:51,233968
DA:52,233968
DA:53,233968
DA:55,467936
DA:57,467936
DA:58,233968
DA:61,295822
DA:64,591644
DA:65,591644
DA:66,295822
DA:67,591644
DA:71,522422
DA:74,522422
DA:75,522422
DA:76,1044844
DA:77,522422
DA:78,1044844
DA:79,1044844
DA:80,1567266
DA:84,290222
DA:87,580444
DA:88,290222
DA:89,580444
DA:90,580444
LF:48
LH:48
end_of_record
SF:/home/runner/micromamba/envs/moose/x86_64-conda-linux-gnu/include/c++/10.4.0/bits/hashtable.h
FN:290,_ZNSt10_HashtableImSt4pairIKmSt6vectorIS2_IS0_IbdESaIS3_EESaIS5_EEESaIS8_ENSt8__detail10_Select1stESt8equal_toImESt4hashImENSA_18_Mod_range_hashingENSA_20_Default_ranged_hashENSA_20_Prime_rehash_policyENSA_17_Hashtable_traitsILb0ELb0ELb1EEEE12_Scoped_nodeD2Ev
FNDA:0,_ZNSt10_HashtableImSt4pairIKmSt6vectorIS2_IS0_IbdESaIS3_EESaIS5_EEESaIS8_ENSt8__detail10_Select1stESt8equal_toImESt4hashImENSA_18_Mod_range_hashingENSA_20_Default_ranged_hashENSA_20_Prime_rehash_policyENSA_17_Hashtable_traitsILb0ELb0ELb1EEEE12_Scoped_nodeD2Ev
FN:290,_ZNSt10_HashtableImSt4pairIKmSt6vectorIS0_IbdESaIS3_EEESaIS6_ENSt8__detail10_Select1stESt8equal_toImESt4hashImENS8_18_Mod_range_hashingENS8_20_Default_ranged_hashENS8_20_Prime_rehash_policyENS8_17_Hashtable_traitsILb0ELb0ELb1EEEE12_Scoped_nodeD2Ev
FNDA:0,_ZNSt10_HashtableImSt4pairIKmSt6vectorIS0_IbdESaIS3_EEESaIS6_ENSt8__detail10_Select1stESt8equal_toImESt4hashImENS8_18_Mod_range_hashingENS8_20_Default_ranged_hashENS8_20_Prime_rehash_policyENS8_17_Hashtable_traitsILb0ELb0ELb1EEEE12_Scoped_nodeD2Ev
FN:290,_ZNSt10_HashtableImSt4pairIKmSt6vectorIS2_IS0_IbN11MetaPhysicL10DualNumberIdNS3_28SemiDynamicSparseNumberArrayIdmNS3_8NWrapperILm64EEEEELb1EEEESaISA_EESaISC_EEESaISF_ENSt8__detail10_Select1stESt8equal_toImESt4hashImENSH_18_Mod_range_hashingENSH_20_Default_ranged_hashENSH_20_Prime_rehash_policyENSH_17_Hashtable_traitsILb0ELb0ELb1EEEE12_Scoped_nodeD2Ev
FNDA:0,_ZNSt10_HashtableImSt4pairIKmSt6vectorIS2_IS0_IbN11MetaPhysicL10DualNumberIdNS3_28SemiDynamicSparseNumberArrayIdmNS3_8NWrapperILm64EEEEELb1EEEESaISA_EESaISC_EEESaISF_ENSt8__detail10_Select1stESt8equal_toImESt4hashImENSH_18_Mod_range_hashingENSH_20_Default_ranged_hashENSH_20_Prime_rehash_policyENSH_17_Hashtable_traitsILb0ELb0ELb1EEEE12_Scoped_nodeD2Ev
FN:290,_ZNSt10_HashtableIjjSaIjENSt8__detail9_IdentityESt8equal_toIjESt4hashIjENS1_18_Mod_range_hashingENS1_20_Default_ranged_hashENS1_20_Prime_rehash_policyENS1_17_Hashtable_traitsILb0ELb1ELb1EEEE12_Scoped_nodeD2Ev
FNDA:0,_ZNSt10_HashtableIjjSaIjENSt8__detail9_IdentityESt8equal_toIjESt4hashIjENS1_18_Mod_range_hashingENS1_20_Default_ranged_hashENS1_20_Prime_rehash_policyENS1_17_Hashtable_traitsILb0ELb1ELb1EEEE12_Scoped_nodeD2Ev
FN:290,_ZNSt10_HashtableImSt4pairIKmSt6vectorIS0_IbN11MetaPhysicL10DualNumberIdNS3_28SemiDynamicSparseNumberArrayIdmNS3_8NWrapperILm64EEEEELb1EEEESaISA_EEESaISD_ENSt8__detail10_Select1stESt8equal_toImESt4hashImENSF_18_Mod_range_hashingENSF_20_Default_ranged_hashENSF_20_Prime_rehash_policyENSF_17_Hashtable_traitsILb0ELb0ELb1EEEE12_Scoped_nodeD2Ev
FNDA:0,_ZNSt10_HashtableImSt4pairIKmSt6vectorIS0_IbN11MetaPhysicL10DualNumberIdNS3_28SemiDynamicSparseNumberArrayIdmNS3_8NWrapperILm64EEEEELb1EEEESaISA_EEESaISD_ENSt8__detail10_Select1stESt8equal_toImESt4hashImENSF_18_Mod_range_hashingENSF_20_Default_ranged_hashENSF_20_Prime_rehash_policyENSF_17_Hashtable_traitsILb0ELb0ELb1EEEE12_Scoped_nodeD2Ev
FN:425,_ZNSt10_HashtableIjjSaIjENSt8__detail9_IdentityESt8equal_toIjESt4hashIjENS1_18_Mod_range_hashingENS1_20_Default_ranged_hashENS1_20_Prime_rehash_policyENS1_17_Hashtable_traitsILb0ELb1ELb1EEEE21_M_deallocate_bucketsEv
FNDA:681,_ZNSt10_HashtableIjjSaIjENSt8__detail9_IdentityESt8equal_toIjESt4hashIjENS1_18_Mod_range_hashingENS1_20_Default_ranged_hashENS1_20_Prime_rehash_policyENS1_17_Hashtable_traitsILb0ELb1ELb1EEEE21_M_deallocate_bucketsEv
FN:425,_ZNSt10_HashtableINSt7__cxx1112basic_stringIcSt11char_traitsIcESaIcEEESt4pairIKS5_S5_ESaIS8_ENSt8__detail10_Select1stESt8equal_toIS5_ESt4hashIS5_ENSA_18_Mod_range_hashingENSA_20_Default_ranged_hashENSA_20_Prime_rehash_policyENSA_17_Hashtable_traitsILb1ELb0ELb1EEEE21_M_deallocate_bucketsEv
FNDA:0,_ZNSt10_HashtableINSt7__cxx1112basic_stringIcSt11char_traitsIcESaIcEEESt4pairIKS5_S5_ESaIS8_ENSt8__detail10_Select1stESt8equal_toIS5_ESt4hashIS5_ENSA_18_Mod_range_hashingENSA_20_Default_ranged_hashENSA_20_Prime_rehash_policyENSA_17_Hashtable_traitsILb1ELb0ELb1EEEE21_M_deallocate_bucketsEv
FN:425,_ZNSt10_HashtableINSt7__cxx1112basic_stringIcSt11char_traitsIcESaIcEEESt4pairIKS5_St6vectorIP22MooseVariableFieldBaseSaISA_EEESaISD_ENSt8__detail10_Select1stESt8equal_toIS5_ESt4hashIS5_ENSF_18_Mod_range_hashingENSF_20_Default_ranged_hashENSF_20_Prime_rehash_policyENSF_17_Hashtable_traitsILb1ELb0ELb1EEEE21_M_deallocate_bucketsEv
FNDA:0,_ZNSt10_HashtableINSt7__cxx1112basic_stringIcSt11char_traitsIcESaIcEEESt4pairIKS5_St6vectorIP22MooseVariableFieldBaseSaISA_EEESaISD_ENSt8__detail10_Select1stESt8equal_toIS5_ESt4hashIS5_ENSF_18_Mod_range_hashingENSF_20_Default_ranged_hashENSF_20_Prime_rehash_policyENSF_17_Hashtable_traitsILb1ELb0ELb1EEEE21_M_deallocate_bucketsEv
FN:425,_ZNSt10_HashtableImSt4pairIKmSt6vectorIS2_IS0_IbN11MetaPhysicL10DualNumberIdNS3_28SemiDynamicSparseNumberArrayIdmNS3_8NWrapperILm64EEEEELb1EEEESaISA_EESaISC_EEESaISF_ENSt8__detail10_Select1stESt8equal_toImESt4hashImENSH_18_Mod_range_hashingENSH_20_Default_ranged_hashENSH_20_Prime_rehash_policyENSH_17_Hashtable_traitsILb0ELb0ELb1EEEE21_M_deallocate_bucketsEv
FNDA:0,_ZNSt10_HashtableImSt4pairIKmSt6vectorIS2_IS0_IbN11MetaPhysicL10DualNumberIdNS3_28SemiDynamicSparseNumberArrayIdmNS3_8NWrapperILm64EEEEELb1EEEESaISA_EESaISC_EEESaISF_ENSt8__detail10_Select1stESt8equal_toImESt4hashImENSH_18_Mod_range_hashingENSH_20_Default_ranged_hashENSH_20_Prime_rehash_policyENSH_17_Hashtable_traitsILb0ELb0ELb1EEEE21_M_deallocate_bucketsEv
FN:425,_ZNSt10_HashtableImSt4pairIKmSt6vectorIS0_IbN11MetaPhysicL10DualNumberIdNS3_28SemiDynamicSparseNumberArrayIdmNS3_8NWrapperILm64EEEEELb1EEEESaISA_EEESaISD_ENSt8__detail10_Select1stESt8equal_toImESt4hashImENSF_18_Mod_range_hashingENSF_20_Default_ranged_hashENSF_20_Prime_rehash_policyENSF_17_Hashtable_traitsILb0ELb0ELb1EEEE21_M_deallocate_bucketsEv
FNDA:0,_ZNSt10_HashtableImSt4pairIKmSt6vectorIS0_IbN11MetaPhysicL10DualNumberIdNS3_28SemiDynamicSparseNumberArrayIdmNS3_8NWrapperILm64EEEEELb1EEEESaISA_EEESaISD_ENSt8__detail10_Select1stESt8equal_toImESt4hashImENSF_18_Mod_range_hashingENSF_20_Default_ranged_hashENSF_20_Prime_rehash_policyENSF_17_Hashtable_traitsILb0ELb0ELb1EEEE21_M_deallocate_bucketsEv
FN:425,_ZNSt10_HashtableINSt7__cxx1112basic_stringIcSt11char_traitsIcESaIcEEESt4pairIKS5_St10unique_ptrI10MooseArrayIN5Eigen6MatrixIdLin1ELi1ELi0ELin1ELi1EEEESt14default_deleteISD_EEESaISH_ENSt8__detail10_Select1stESt8equal_toIS5_ESt4hashIS5_ENSJ_18_Mod_range_hashingENSJ_20_Default_ranged_hashENSJ_20_Prime_rehash_policyENSJ_17_Hashtable_traitsILb1ELb0ELb1EEEE21_M_deallocate_bucketsEv
FNDA:0,_ZNSt10_HashtableINSt7__cxx1112basic_stringIcSt11char_traitsIcESaIcEEESt4pairIKS5_St10unique_ptrI10MooseArrayIN5Eigen6MatrixIdLin1ELi1ELi0ELin1ELi1EEEESt14default_deleteISD_EEESaISH_ENSt8__detail10_Select1stESt8equal_toIS5_ESt4hashIS5_ENSJ_18_Mod_range_hashingENSJ_20_Default_ranged_hashENSJ_20_Prime_rehash_policyENSJ_17_Hashtable_traitsILb1ELb0ELb1EEEE21_M_deallocate_bucketsEv
FN:425,_ZNSt10_HashtableImSt4pairIKmSt6vectorIS2_IS0_IbdESaIS3_EESaIS5_EEESaIS8_ENSt8__detail10_Select1stESt8equal_toImESt4hashImENSA_18_Mod_range_hashingENSA_20_Default_ranged_hashENSA_20_Prime_rehash_policyENSA_17_Hashtable_traitsILb0ELb0ELb1EEEE21_M_deallocate_bucketsEv
FNDA:0,_ZNSt10_HashtableImSt4pairIKmSt6vectorIS2_IS0_IbdESaIS3_EESaIS5_EEESaIS8_ENSt8__detail10_Select1stESt8equal_toImESt4hashImENSA_18_Mod_range_hashingENSA_20_Default_ranged_hashENSA_20_Prime_rehash_policyENSA_17_Hashtable_traitsILb0ELb0ELb1EEEE21_M_deallocate_bucketsEv
FN:425,_ZNSt10_HashtableImSt4pairIKmSt6vectorIS0_IbdESaIS3_EEESaIS6_ENSt8__detail10_Select1stESt8equal_toImESt4hashImENS8_18_Mod_range_hashingENS8_20_Default_ranged_hashENS8_20_Prime_rehash_policyENS8_17_Hashtable_traitsILb0ELb0ELb1EEEE21_M_deallocate_bucketsEv
FNDA:0,_ZNSt10_HashtableImSt4pairIKmSt6vectorIS0_IbdESaIS3_EEESaIS6_ENSt8__detail10_Select1stESt8equal_toImESt4hashImENS8_18_Mod_range_hashingENS8_20_Default_ranged_hashENS8_20_Prime_rehash_policyENS8_17_Hashtable_traitsILb0ELb0ELb1EEEE21_M_deallocate_bucketsEv
FN:425,_ZNSt10_HashtableIjSt4pairIKjjESaIS2_ENSt8__detail10_Select1stESt8equal_toIjESt4hashIjENS4_18_Mod_range_hashingENS4_20_Default_ranged_hashENS4_20_Prime_rehash_policyENS4_17_Hashtable_traitsILb0ELb0ELb1EEEE21_M_deallocate_bucketsEv
FNDA:681,_ZNSt10_HashtableIjSt4pairIKjjESaIS2_ENSt8__detail10_Select1stESt8equal_toIjESt4hashIjENS4_18_Mod_range_hashingENS4_20_Default_ranged_hashENS4_20_Prime_rehash_policyENS4_17_Hashtable_traitsILb0ELb0ELb1EEEE21_M_deallocate_bucketsEv
FN:425,_ZNSt10_HashtableINSt7__cxx1112basic_stringIcSt11char_traitsIcESaIcEEESt4pairIKS5_St6vectorISt10unique_ptrI10MooseArrayIdESt14default_deleteISB_EESaISE_EEESaISH_ENSt8__detail10_Select1stESt8equal_toIS5_ESt4hashIS5_ENSJ_18_Mod_range_hashingENSJ_20_Default_ranged_hashENSJ_20_Prime_rehash_policyENSJ_17_Hashtable_traitsILb1ELb0ELb1EEEE21_M_deallocate_bucketsEv
FNDA:0,_ZNSt10_HashtableINSt7__cxx1112basic_stringIcSt11char_traitsIcESaIcEEESt4pairIKS5_St6vectorISt10unique_ptrI10MooseArrayIdESt14default_deleteISB_EESaISE_EEESaISH_ENSt8__detail10_Select1stESt8equal_toIS5_ESt4hashIS5_ENSJ_18_Mod_range_hashingENSJ_20_Default_ranged_hashENSJ_20_Prime_rehash_policyENSJ_17_Hashtable_traitsILb1ELb0ELb1EEEE21_M_deallocate_bucketsEv
FN:425,_ZNSt10_HashtableINSt7__cxx1112basic_stringIcSt11char_traitsIcESaIcEEESt4pairIKS5_St6vectorIjSaIjEEESaISB_ENSt8__detail10_Select1stESt8equal_toIS5_ESt4hashIS5_ENSD_18_Mod_range_hashingENSD_20_Default_ranged_hashENSD_20_Prime_rehash_policyENSD_17_Hashtable_traitsILb1ELb0ELb1EEEE21_M_deallocate_bucketsEv
FNDA:0,_ZNSt10_HashtableINSt7__cxx1112basic_stringIcSt11char_traitsIcESaIcEEESt4pairIKS5_St6vectorIjSaIjEEESaISB_ENSt8__detail10_Select1stESt8equal_toIS5_ESt4hashIS5_ENSD_18_Mod_range_hashingENSD_20_Default_ranged_hashENSD_20_Prime_rehash_policyENSD_17_Hashtable_traitsILb1ELb0ELb1EEEE21_M_deallocate_bucketsEv
FN:425,_ZNSt10_HashtableINSt7__cxx1112basic_stringIcSt11char_traitsIcESaIcEEESt4pairIKS5_St10unique_ptrI10MooseArrayIN7libMesh11VectorValueIN11MetaPhysicL10DualNumberIdNSC_28SemiDynamicSparseNumberArrayIdmNSC_8NWrapperILm64EEEEELb1EEEEEESt14default_deleteISK_EEESaISO_ENSt8__detail10_Select1stESt8equal_toIS5_ESt4hashIS5_ENSQ_18_Mod_range_hashingENSQ_20_Default_ranged_hashENSQ_20_Prime_rehash_policyENSQ_17_Hashtable_traitsILb1ELb0ELb1EEEE21_M_deallocate_bucketsEv
FNDA:0,_ZNSt10_HashtableINSt7__cxx1112basic_stringIcSt11char_traitsIcESaIcEEESt4pairIKS5_St10unique_ptrI10MooseArrayIN7libMesh11VectorValueIN11MetaPhysicL10DualNumberIdNSC_28SemiDynamicSparseNumberArrayIdmNSC_8NWrapperILm64EEEEELb1EEEEEESt14default_deleteISK_EEESaISO_ENSt8__detail10_Select1stESt8equal_toIS5_ESt4hashIS5_ENSQ_18_Mod_range_hashingENSQ_20_Default_ranged_hashENSQ_20_Prime_rehash_policyENSQ_17_Hashtable_traitsILb1ELb0ELb1EEEE21_M_deallocate_bucketsEv
FN:425,_ZNSt10_HashtableINSt7__cxx1112basic_stringIcSt11char_traitsIcESaIcEEESt4pairIKS5_St10unique_ptrI10MooseArrayIN7libMesh11VectorValueIdEEESt14default_deleteISD_EEESaISH_ENSt8__detail10_Select1stESt8equal_toIS5_ESt4hashIS5_ENSJ_18_Mod_range_hashingENSJ_20_Default_ranged_hashENSJ_20_Prime_rehash_policyENSJ_17_Hashtable_traitsILb1ELb0ELb1EEEE21_M_deallocate_bucketsEv
FNDA:0,_ZNSt10_HashtableINSt7__cxx1112basic_stringIcSt11char_traitsIcESaIcEEESt4pairIKS5_St10unique_ptrI10MooseArrayIN7libMesh11VectorValueIdEEESt14default_deleteISD_EEESaISH_ENSt8__detail10_Select1stESt8equal_toIS5_ESt4hashIS5_ENSJ_18_Mod_range_hashingENSJ_20_Default_ranged_hashENSJ_20_Prime_rehash_policyENSJ_17_Hashtable_traitsILb1ELb0ELb1EEEE21_M_deallocate_bucketsEv
FN:425,_ZNSt10_HashtableINSt7__cxx1112basic_stringIcSt11char_traitsIcESaIcEEESt4pairIKS5_St6vectorIP19MooseVariableScalarSaISA_EEESaISD_ENSt8__detail10_Select1stESt8equal_toIS5_ESt4hashIS5_ENSF_18_Mod_range_hashingENSF_20_Default_ranged_hashENSF_20_Prime_rehash_policyENSF_17_Hashtable_traitsILb1ELb0ELb1EEEE21_M_deallocate_bucketsEv
FNDA:0,_ZNSt10_HashtableINSt7__cxx1112basic_stringIcSt11char_traitsIcESaIcEEESt4pairIKS5_St6vectorIP19MooseVariableScalarSaISA_EEESaISD_ENSt8__detail10_Select1stESt8equal_toIS5_ESt4hashIS5_ENSF_18_Mod_range_hashingENSF_20_Default_ranged_hashENSF_20_Prime_rehash_policyENSF_17_Hashtable_traitsILb1ELb0ELb1EEEE21_M_deallocate_bucketsEv
FN:425,_ZNSt10_HashtableINSt7__cxx1112basic_stringIcSt11char_traitsIcESaIcEEESt4pairIKS5_St10unique_ptrI10MooseArrayIN11MetaPhysicL10DualNumberIdNSA_28SemiDynamicSparseNumberArrayIdmNSA_8NWrapperILm64EEEEELb1EEEESt14default_deleteISH_EEESaISL_ENSt8__detail10_Select1stESt8equal_toIS5_ESt4hashIS5_ENSN_18_Mod_range_hashingENSN_20_Default_ranged_hashENSN_20_Prime_rehash_policyENSN_17_Hashtable_traitsILb1ELb0ELb1EEEE21_M_deallocate_bucketsEv
FNDA:0,_ZNSt10_HashtableINSt7__cxx1112basic_stringIcSt11char_traitsIcESaIcEEESt4pairIKS5_St10unique_ptrI10MooseArrayIN11MetaPhysicL10DualNumberIdNSA_28SemiDynamicSparseNumberArrayIdmNSA_8NWrapperILm64EEEEELb1EEEESt14default_deleteISH_EEESaISL_ENSt8__detail10_Select1stESt8equal_toIS5_ESt4hashIS5_ENSN_18_Mod_range_hashingENSN_20_Default_ranged_hashENSN_20_Prime_rehash_policyENSN_17_Hashtable_traitsILb1ELb0ELb1EEEE21_M_deallocate_bucketsEv
FN:425,_ZNSt10_HashtableINSt7__cxx1112basic_stringIcSt11char_traitsIcESaIcEEESt4pairIKS5_St10unique_ptrI10MooseArrayIdESt14default_deleteISA_EEESaISE_ENSt8__detail10_Select1stESt8equal_toIS5_ESt4hashIS5_ENSG_18_Mod_range_hashingENSG_20_Default_ranged_hashENSG_20_Prime_rehash_policyENSG_17_Hashtable_traitsILb1ELb0ELb1EEEE21_M_deallocate_bucketsEv
FNDA:0,_ZNSt10_HashtableINSt7__cxx1112basic_stringIcSt11char_traitsIcESaIcEEESt4pairIKS5_St10unique_ptrI10MooseArrayIdESt14default_deleteISA_EEESaISE_ENSt8__detail10_Select1stESt8equal_toIS5_ESt4hashIS5_ENSG_18_Mod_range_hashingENSG_20_Default_ranged_hashENSG_20_Prime_rehash_policyENSG_17_Hashtable_traitsILb1ELb0ELb1EEEE21_M_deallocate_bucketsEv
FN:1622,_ZNKSt10_HashtableIjjSaIjENSt8__detail9_IdentityESt8equal_toIjESt4hashIjENS1_18_Mod_range_hashingENS1_20_Default_ranged_hashENS1_20_Prime_rehash_policyENS1_17_Hashtable_traitsILb0ELb1ELb1EEEE19_M_find_before_nodeEmRKjm
FNDA:0,_ZNKSt10_HashtableIjjSaIjENSt8__detail9_IdentityESt8equal_toIjESt4hashIjENS1_18_Mod_range_hashingENS1_20_Default_ranged_hashENS1_20_Prime_rehash_policyENS1_17_Hashtable_traitsILb0ELb1ELb1EEEE19_M_find_before_nodeEmRKjm
FN:1622,_ZNKSt10_HashtableImSt4pairIKmSt6vectorIS0_IbN11MetaPhysicL10DualNumberIdNS3_28SemiDynamicSparseNumberArrayIdmNS3_8NWrapperILm64EEEEELb1EEEESaISA_EEESaISD_ENSt8__detail10_Select1stESt8equal_toImESt4hashImENSF_18_Mod_range_hashingENSF_20_Default_ranged_hashENSF_20_Prime_rehash_policyENSF_17_Hashtable_traitsILb0ELb0ELb1EEEE19_M_find_before_nodeEmRS1_m
FNDA:0,_ZNKSt10_HashtableImSt4pairIKmSt6vectorIS0_IbN11MetaPhysicL10DualNumberIdNS3_28SemiDynamicSparseNumberArrayIdmNS3_8NWrapperILm64EEEEELb1EEEESaISA_EEESaISD_ENSt8__detail10_Select1stESt8equal_toImESt4hashImENSF_18_Mod_range_hashingENSF_20_Default_ranged_hashENSF_20_Prime_rehash_policyENSF_17_Hashtable_traitsILb0ELb0ELb1EEEE19_M_find_before_nodeEmRS1_m
FN:1622,_ZNKSt10_HashtableImSt4pairIKmSt6vectorIS2_IS0_IbN11MetaPhysicL10DualNumberIdNS3_28SemiDynamicSparseNumberArrayIdmNS3_8NWrapperILm64EEEEELb1EEEESaISA_EESaISC_EEESaISF_ENSt8__detail10_Select1stESt8equal_toImESt4hashImENSH_18_Mod_range_hashingENSH_20_Default_ranged_hashENSH_20_Prime_rehash_policyENSH_17_Hashtable_traitsILb0ELb0ELb1EEEE19_M_find_before_nodeEmRS1_m
FNDA:0,_ZNKSt10_HashtableImSt4pairIKmSt6vectorIS2_IS0_IbN11MetaPhysicL10DualNumberIdNS3_28SemiDynamicSparseNumberArrayIdmNS3_8NWrapperILm64EEEEELb1EEEESaISA_EESaISC_EEESaISF_ENSt8__detail10_Select1stESt8equal_toImESt4hashImENSH_18_Mod_range_hashingENSH_20_Default_ranged_hashENSH_20_Prime_rehash_policyENSH_17_Hashtable_traitsILb0ELb0ELb1EEEE19_M_find_before_nodeEmRS1_m
FN:1622,_ZNKSt10_HashtableImSt4pairIKmSt6vectorIS0_IbdESaIS3_EEESaIS6_ENSt8__detail10_Select1stESt8equal_toImESt4hashImENS8_18_Mod_range_hashingENS8_20_Default_ranged_hashENS8_20_Prime_rehash_policyENS8_17_Hashtable_traitsILb0ELb0ELb1EEEE19_M_find_before_nodeEmRS1_m
FNDA:0,_ZNKSt10_HashtableImSt4pairIKmSt6vectorIS0_IbdESaIS3_EEESaIS6_ENSt8__detail10_Select1stESt8equal_toImESt4hashImENS8_18_Mod_range_hashingENS8_20_Default_ranged_hashENS8_20_Prime_rehash_policyENS8_17_Hashtable_traitsILb0ELb0ELb1EEEE19_M_find_before_nodeEmRS1_m
FN:1622,_ZNKSt10_HashtableImSt4pairIKmSt6vectorIS2_IS0_IbdESaIS3_EESaIS5_EEESaIS8_ENSt8__detail10_Select1stESt8equal_toImESt4hashImENSA_18_Mod_range_hashingENSA_20_Default_ranged_hashENSA_20_Prime_rehash_policyENSA_17_Hashtable_traitsILb0ELb0ELb1EEEE19_M_find_before_nodeEmRS1_m
FNDA:0,_ZNKSt10_HashtableImSt4pairIKmSt6vectorIS2_IS0_IbdESaIS3_EESaIS5_EEESaIS8_ENSt8__detail10_Select1stESt8equal_toImESt4hashImENSA_18_Mod_range_hashingENSA_20_Default_ranged_hashENSA_20_Prime_rehash_policyENSA_17_Hashtable_traitsILb0ELb0ELb1EEEE19_M_find_before_nodeEmRS1_m
FN:1650,_ZNSt10_HashtableImSt4pairIKmSt6vectorIS2_IS0_IbdESaIS3_EESaIS5_EEESaIS8_ENSt8__detail10_Select1stESt8equal_toImESt4hashImENSA_18_Mod_range_hashingENSA_20_Default_ranged_hashENSA_20_Prime_rehash_policyENSA_17_Hashtable_traitsILb0ELb0ELb1EEEE22_M_insert_bucket_beginEmPNSA_10_Hash_nodeIS8_Lb0EEE
FNDA:0,_ZNSt10_HashtableImSt4pairIKmSt6vectorIS2_IS0_IbdESaIS3_EESaIS5_EEESaIS8_ENSt8__detail10_Select1stESt8equal_toImESt4hashImENSA_18_Mod_range_hashingENSA_20_Default_ranged_hashENSA_20_Prime_rehash_policyENSA_17_Hashtable_traitsILb0ELb0ELb1EEEE22_M_insert_bucket_beginEmPNSA_10_Hash_nodeIS8_Lb0EEE
FN:1650,_ZNSt10_HashtableImSt4pairIKmSt6vectorIS0_IbN11MetaPhysicL10DualNumberIdNS3_28SemiDynamicSparseNumberArrayIdmNS3_8NWrapperILm64EEEEELb1EEEESaISA_EEESaISD_ENSt8__detail10_Select1stESt8equal_toImESt4hashImENSF_18_Mod_range_hashingENSF_20_Default_ranged_hashENSF_20_Prime_rehash_policyENSF_17_Hashtable_traitsILb0ELb0ELb1EEEE22_M_insert_bucket_beginEmPNSF_10_Hash_nodeISD_Lb0EEE
FNDA:0,_ZNSt10_HashtableImSt4pairIKmSt6vectorIS0_IbN11MetaPhysicL10DualNumberIdNS3_28SemiDynamicSparseNumberArrayIdmNS3_8NWrapperILm64EEEEELb1EEEESaISA_EEESaISD_ENSt8__detail10_Select1stESt8equal_toImESt4hashImENSF_18_Mod_range_hashingENSF_20_Default_ranged_hashENSF_20_Prime_rehash_policyENSF_17_Hashtable_traitsILb0ELb0ELb1EEEE22_M_insert_bucket_beginEmPNSF_10_Hash_nodeISD_Lb0EEE
FN:1650,_ZNSt10_HashtableImSt4pairIKmSt6vectorIS2_IS0_IbN11MetaPhysicL10DualNumberIdNS3_28SemiDynamicSparseNumberArrayIdmNS3_8NWrapperILm64EEEEELb1EEEESaISA_EESaISC_EEESaISF_ENSt8__detail10_Select1stESt8equal_toImESt4hashImENSH_18_Mod_range_hashingENSH_20_Default_ranged_hashENSH_20_Prime_rehash_policyENSH_17_Hashtable_traitsILb0ELb0ELb1EEEE22_M_insert_bucket_beginEmPNSH_10_Hash_nodeISF_Lb0EEE
FNDA:0,_ZNSt10_HashtableImSt4pairIKmSt6vectorIS2_IS0_IbN11MetaPhysicL10DualNumberIdNS3_28SemiDynamicSparseNumberArrayIdmNS3_8NWrapperILm64EEEEELb1EEEESaISA_EESaISC_EEESaISF_ENSt8__detail10_Select1stESt8equal_toImESt4hashImENSH_18_Mod_range_hashingENSH_20_Default_ranged_hashENSH_20_Prime_rehash_policyENSH_17_Hashtable_traitsILb0ELb0ELb1EEEE22_M_insert_bucket_beginEmPNSH_10_Hash_nodeISF_Lb0EEE
FN:1650,_ZNSt10_HashtableIjjSaIjENSt8__detail9_IdentityESt8equal_toIjESt4hashIjENS1_18_Mod_range_hashingENS1_20_Default_ranged_hashENS1_20_Prime_rehash_policyENS1_17_Hashtable_traitsILb0ELb1ELb1EEEE22_M_insert_bucket_beginEmPNS1_10_Hash_nodeIjLb0EEE
FNDA:0,_ZNSt10_HashtableIjjSaIjENSt8__detail9_IdentityESt8equal_toIjESt4hashIjENS1_18_Mod_range_hashingENS1_20_Default_ranged_hashENS1_20_Prime_rehash_policyENS1_17_Hashtable_traitsILb0ELb1ELb1EEEE22_M_insert_bucket_beginEmPNS1_10_Hash_nodeIjLb0EEE
FN:1650,_ZNSt10_HashtableImSt4pairIKmSt6vectorIS0_IbdESaIS3_EEESaIS6_ENSt8__detail10_Select1stESt8equal_toImESt4hashImENS8_18_Mod_range_hashingENS8_20_Default_ranged_hashENS8_20_Prime_rehash_policyENS8_17_Hashtable_traitsILb0ELb0ELb1EEEE22_M_insert_bucket_beginEmPNS8_10_Hash_nodeIS6_Lb0EEE
FNDA:0,_ZNSt10_HashtableImSt4pairIKmSt6vectorIS0_IbdESaIS3_EEESaIS6_ENSt8__detail10_Select1stESt8equal_toImESt4hashImENS8_18_Mod_range_hashingENS8_20_Default_ranged_hashENS8_20_Prime_rehash_policyENS8_17_Hashtable_traitsILb0ELb0ELb1EEEE22_M_insert_bucket_beginEmPNS8_10_Hash_nodeIS6_Lb0EEE
FN:1769,_ZNSt10_HashtableImSt4pairIKmSt6vectorIS2_IS0_IbdESaIS3_EESaIS5_EEESaIS8_ENSt8__detail10_Select1stESt8equal_toImESt4hashImENSA_18_Mod_range_hashingENSA_20_Default_ranged_hashENSA_20_Prime_rehash_policyENSA_17_Hashtable_traitsILb0ELb0ELb1EEEE21_M_insert_unique_nodeERS1_mmPNSA_10_Hash_nodeIS8_Lb0EEEm
FNDA:0,_ZNSt10_HashtableImSt4pairIKmSt6vectorIS2_IS0_IbdESaIS3_EESaIS5_EEESaIS8_ENSt8__detail10_Select1stESt8equal_toImESt4hashImENSA_18_Mod_range_hashingENSA_20_Default_ranged_hashENSA_20_Prime_rehash_policyENSA_17_Hashtable_traitsILb0ELb0ELb1EEEE21_M_insert_unique_nodeERS1_mmPNSA_10_Hash_nodeIS8_Lb0EEEm
FN:1769,_ZNSt10_HashtableIjjSaIjENSt8__detail9_IdentityESt8equal_toIjESt4hashIjENS1_18_Mod_range_hashingENS1_20_Default_ranged_hashENS1_20_Prime_rehash_policyENS1_17_Hashtable_traitsILb0ELb1ELb1EEEE21_M_insert_unique_nodeERKjmmPNS1_10_Hash_nodeIjLb0EEEm
FNDA:0,_ZNSt10_HashtableIjjSaIjENSt8__detail9_IdentityESt8equal_toIjESt4hashIjENS1_18_Mod_range_hashingENS1_20_Default_ranged_hashENS1_20_Prime_rehash_policyENS1_17_Hashtable_traitsILb0ELb1ELb1EEEE21_M_insert_unique_nodeERKjmmPNS1_10_Hash_nodeIjLb0EEEm
FN:1769,_ZNSt10_HashtableImSt4pairIKmSt6vectorIS0_IbN11MetaPhysicL10DualNumberIdNS3_28SemiDynamicSparseNumberArrayIdmNS3_8NWrapperILm64EEEEELb1EEEESaISA_EEESaISD_ENSt8__detail10_Select1stESt8equal_toImESt4hashImENSF_18_Mod_range_hashingENSF_20_Default_ranged_hashENSF_20_Prime_rehash_policyENSF_17_Hashtable_traitsILb0ELb0ELb1EEEE21_M_insert_unique_nodeERS1_mmPNSF_10_Hash_nodeISD_Lb0EEEm
FNDA:0,_ZNSt10_HashtableImSt4pairIKmSt6vectorIS0_IbN11MetaPhysicL10DualNumberIdNS3_28SemiDynamicSparseNumberArrayIdmNS3_8NWrapperILm64EEEEELb1EEEESaISA_EEESaISD_ENSt8__detail10_Select1stESt8equal_toImESt4hashImENSF_18_Mod_range_hashingENSF_20_Default_ranged_hashENSF_20_Prime_rehash_policyENSF_17_Hashtable_traitsILb0ELb0ELb1EEEE21_M_insert_unique_nodeERS1_mmPNSF_10_Hash_nodeISD_Lb0EEEm
FN:1769,_ZNSt10_HashtableImSt4pairIKmSt6vectorIS2_IS0_IbN11MetaPhysicL10DualNumberIdNS3_28SemiDynamicSparseNumberArrayIdmNS3_8NWrapperILm64EEEEELb1EEEESaISA_EESaISC_EEESaISF_ENSt8__detail10_Select1stESt8equal_toImESt4hashImENSH_18_Mod_range_hashingENSH_20_Default_ranged_hashENSH_20_Prime_rehash_policyENSH_17_Hashtable_traitsILb0ELb0ELb1EEEE21_M_insert_unique_nodeERS1_mmPNSH_10_Hash_nodeISF_Lb0EEEm
FNDA:0,_ZNSt10_HashtableImSt4pairIKmSt6vectorIS2_IS0_IbN11MetaPhysicL10DualNumberIdNS3_28SemiDynamicSparseNumberArrayIdmNS3_8NWrapperILm64EEEEELb1EEEESaISA_EESaISC_EEESaISF_ENSt8__detail10_Select1stESt8equal_toImESt4hashImENSH_18_Mod_range_hashingENSH_20_Default_ranged_hashENSH_20_Prime_rehash_policyENSH_17_Hashtable_traitsILb0ELb0ELb1EEEE21_M_insert_unique_nodeERS1_mmPNSH_10_Hash_nodeISF_Lb0EEEm
FN:1769,_ZNSt10_HashtableImSt4pairIKmSt6vectorIS0_IbdESaIS3_EEESaIS6_ENSt8__detail10_Select1stESt8equal_toImESt4hashImENS8_18_Mod_range_hashingENS8_20_Default_ranged_hashENS8_20_Prime_rehash_policyENS8_17_Hashtable_traitsILb0ELb0ELb1EEEE21_M_insert_unique_nodeERS1_mmPNS8_10_Hash_nodeIS6_Lb0EEEm
FNDA:0,_ZNSt10_HashtableImSt4pairIKmSt6vectorIS0_IbdESaIS3_EEESaIS6_ENSt8__detail10_Select1stESt8equal_toImESt4hashImENS8_18_Mod_range_hashingENS8_20_Default_ranged_hashENS8_20_Prime_rehash_policyENS8_17_Hashtable_traitsILb0ELb0ELb1EEEE21_M_insert_unique_nodeERS1_mmPNS8_10_Hash_nodeIS6_Lb0EEEm
FN:1855,_ZNSt10_HashtableIjjSaIjENSt8__detail9_IdentityESt8equal_toIjESt4hashIjENS1_18_Mod_range_hashingENS1_20_Default_ranged_hashENS1_20_Prime_rehash_policyENS1_17_Hashtable_traitsILb0ELb1ELb1EEEE9_M_insertIjNS1_10_AllocNodeISaINS1_10_Hash_nodeIjLb0EEEEEEEESt4pairINS1_14_Node_iteratorIjLb1ELb0EEEbEOT_RKT0_St17integral_constantIbLb1EEm
FNDA:0,_ZNSt10_HashtableIjjSaIjENSt8__detail9_IdentityESt8equal_toIjESt4hashIjENS1_18_Mod_range_hashingENS1_20_Default_ranged_hashENS1_20_Prime_rehash_policyENS1_17_Hashtable_traitsILb0ELb1ELb1EEEE9_M_insertIjNS1_10_AllocNodeISaINS1_10_Hash_nodeIjLb0EEEEEEEESt4pairINS1_14_Node_iteratorIjLb1ELb0EEEbEOT_RKT0_St17integral_constantIbLb1EEm
FN:2081,_ZNSt10_HashtableIjSt4pairIKjjESaIS2_ENSt8__detail10_Select1stESt8equal_toIjESt4hashIjENS4_18_Mod_range_hashingENS4_20_Default_ranged_hashENS4_20_Prime_rehash_policyENS4_17_Hashtable_traitsILb0ELb0ELb1EEEE5clearEv
FNDA:681,_ZNSt10_HashtableIjSt4pairIKjjESaIS2_ENSt8__detail10_Select1stESt8equal_toIjESt4hashIjENS4_18_Mod_range_hashingENS4_20_Default_ranged_hashENS4_20_Prime_rehash_policyENS4_17_Hashtable_traitsILb0ELb0ELb1EEEE5clearEv
FN:2081,_ZNSt10_HashtableINSt7__cxx1112basic_stringIcSt11char_traitsIcESaIcEEESt4pairIKS5_St6vectorISt10unique_ptrI10MooseArrayIdESt14default_deleteISB_EESaISE_EEESaISH_ENSt8__detail10_Select1stESt8equal_toIS5_ESt4hashIS5_ENSJ_18_Mod_range_hashingENSJ_20_Default_ranged_hashENSJ_20_Prime_rehash_policyENSJ_17_Hashtable_traitsILb1ELb0ELb1EEEE5clearEv
FNDA:0,_ZNSt10_HashtableINSt7__cxx1112basic_stringIcSt11char_traitsIcESaIcEEESt4pairIKS5_St6vectorISt10unique_ptrI10MooseArrayIdESt14default_deleteISB_EESaISE_EEESaISH_ENSt8__detail10_Select1stESt8equal_toIS5_ESt4hashIS5_ENSJ_18_Mod_range_hashingENSJ_20_Default_ranged_hashENSJ_20_Prime_rehash_policyENSJ_17_Hashtable_traitsILb1ELb0ELb1EEEE5clearEv
FN:2081,_ZNSt10_HashtableINSt7__cxx1112basic_stringIcSt11char_traitsIcESaIcEEESt4pairIKS5_St10unique_ptrI10MooseArrayIN11MetaPhysicL10DualNumberIdNSA_28SemiDynamicSparseNumberArrayIdmNSA_8NWrapperILm64EEEEELb1EEEESt14default_deleteISH_EEESaISL_ENSt8__detail10_Select1stESt8equal_toIS5_ESt4hashIS5_ENSN_18_Mod_range_hashingENSN_20_Default_ranged_hashENSN_20_Prime_rehash_policyENSN_17_Hashtable_traitsILb1ELb0ELb1EEEE5clearEv
FNDA:0,_ZNSt10_HashtableINSt7__cxx1112basic_stringIcSt11char_traitsIcESaIcEEESt4pairIKS5_St10unique_ptrI10MooseArrayIN11MetaPhysicL10DualNumberIdNSA_28SemiDynamicSparseNumberArrayIdmNSA_8NWrapperILm64EEEEELb1EEEESt14default_deleteISH_EEESaISL_ENSt8__detail10_Select1stESt8equal_toIS5_ESt4hashIS5_ENSN_18_Mod_range_hashingENSN_20_Default_ranged_hashENSN_20_Prime_rehash_policyENSN_17_Hashtable_traitsILb1ELb0ELb1EEEE5clearEv
FN:2081,_ZNSt10_HashtableIjjSaIjENSt8__detail9_IdentityESt8equal_toIjESt4hashIjENS1_18_Mod_range_hashingENS1_20_Default_ranged_hashENS1_20_Prime_rehash_policyENS1_17_Hashtable_traitsILb0ELb1ELb1EEEE5clearEv
FNDA:0,_ZNSt10_HashtableIjjSaIjENSt8__detail9_IdentityESt8equal_toIjESt4hashIjENS1_18_Mod_range_hashingENS1_20_Default_ranged_hashENS1_20_Prime_rehash_policyENS1_17_Hashtable_traitsILb0ELb1ELb1EEEE5clearEv
FN:2081,_ZNSt10_HashtableINSt7__cxx1112basic_stringIcSt11char_traitsIcESaIcEEESt4pairIKS5_St6vectorIP22MooseVariableFieldBaseSaISA_EEESaISD_ENSt8__detail10_Select1stESt8equal_toIS5_ESt4hashIS5_ENSF_18_Mod_range_hashingENSF_20_Default_ranged_hashENSF_20_Prime_rehash_policyENSF_17_Hashtable_traitsILb1ELb0ELb1EEEE5clearEv
FNDA:0,_ZNSt10_HashtableINSt7__cxx1112basic_stringIcSt11char_traitsIcESaIcEEESt4pairIKS5_St6vectorIP22MooseVariableFieldBaseSaISA_EEESaISD_ENSt8__detail10_Select1stESt8equal_toIS5_ESt4hashIS5_ENSF_18_Mod_range_hashingENSF_20_Default_ranged_hashENSF_20_Prime_rehash_policyENSF_17_Hashtable_traitsILb1ELb0ELb1EEEE5clearEv
FN:2081,_ZNSt10_HashtableINSt7__cxx1112basic_stringIcSt11char_traitsIcESaIcEEESt4pairIKS5_St10unique_ptrI10MooseArrayIdESt14default_deleteISA_EEESaISE_ENSt8__detail10_Select1stESt8equal_toIS5_ESt4hashIS5_ENSG_18_Mod_range_hashingENSG_20_Default_ranged_hashENSG_20_Prime_rehash_policyENSG_17_Hashtable_traitsILb1ELb0ELb1EEEE5clearEv
FNDA:0,_ZNSt10_HashtableINSt7__cxx1112basic_stringIcSt11char_traitsIcESaIcEEESt4pairIKS5_St10unique_ptrI10MooseArrayIdESt14default_deleteISA_EEESaISE_ENSt8__detail10_Select1stESt8equal_toIS5_ESt4hashIS5_ENSG_18_Mod_range_hashingENSG_20_Default_ranged_hashENSG_20_Prime_rehash_policyENSG_17_Hashtable_traitsILb1ELb0ELb1EEEE5clearEv
FN:2081,_ZNSt10_HashtableINSt7__cxx1112basic_stringIcSt11char_traitsIcESaIcEEESt4pairIKS5_St10unique_ptrI10MooseArrayIN7libMesh11VectorValueIdEEESt14default_deleteISD_EEESaISH_ENSt8__detail10_Select1stESt8equal_toIS5_ESt4hashIS5_ENSJ_18_Mod_range_hashingENSJ_20_Default_ranged_hashENSJ_20_Prime_rehash_policyENSJ_17_Hashtable_traitsILb1ELb0ELb1EEEE5clearEv
FNDA:0,_ZNSt10_HashtableINSt7__cxx1112basic_stringIcSt11char_traitsIcESaIcEEESt4pairIKS5_St10unique_ptrI10MooseArrayIN7libMesh11VectorValueIdEEESt14default_deleteISD_EEESaISH_ENSt8__detail10_Select1stESt8equal_toIS5_ESt4hashIS5_ENSJ_18_Mod_range_hashingENSJ_20_Default_ranged_hashENSJ_20_Prime_rehash_policyENSJ_17_Hashtable_traitsILb1ELb0ELb1EEEE5clearEv
FN:2081,_ZNSt10_HashtableINSt7__cxx1112basic_stringIcSt11char_traitsIcESaIcEEESt4pairIKS5_St6vectorIP19MooseVariableScalarSaISA_EEESaISD_ENSt8__detail10_Select1stESt8equal_toIS5_ESt4hashIS5_ENSF_18_Mod_range_hashingENSF_20_Default_ranged_hashENSF_20_Prime_rehash_policyENSF_17_Hashtable_traitsILb1ELb0ELb1EEEE5clearEv
FNDA:0,_ZNSt10_HashtableINSt7__cxx1112basic_stringIcSt11char_traitsIcESaIcEEESt4pairIKS5_St6vectorIP19MooseVariableScalarSaISA_EEESaISD_ENSt8__detail10_Select1stESt8equal_toIS5_ESt4hashIS5_ENSF_18_Mod_range_hashingENSF_20_Default_ranged_hashENSF_20_Prime_rehash_policyENSF_17_Hashtable_traitsILb1ELb0ELb1EEEE5clearEv
FN:2081,_ZNSt10_HashtableImSt4pairIKmSt6vectorIS2_IS0_IbdESaIS3_EESaIS5_EEESaIS8_ENSt8__detail10_Select1stESt8equal_toImESt4hashImENSA_18_Mod_range_hashingENSA_20_Default_ranged_hashENSA_20_Prime_rehash_policyENSA_17_Hashtable_traitsILb0ELb0ELb1EEEE5clearEv
FNDA:0,_ZNSt10_HashtableImSt4pairIKmSt6vectorIS2_IS0_IbdESaIS3_EESaIS5_EEESaIS8_ENSt8__detail10_Select1stESt8equal_toImESt4hashImENSA_18_Mod_range_hashingENSA_20_Default_ranged_hashENSA_20_Prime_rehash_policyENSA_17_Hashtable_traitsILb0ELb0ELb1EEEE5clearEv
FN:2081,_ZNSt10_HashtableINSt7__cxx1112basic_stringIcSt11char_traitsIcESaIcEEESt4pairIKS5_St10unique_ptrI10MooseArrayIN7libMesh11VectorValueIN11MetaPhysicL10DualNumberIdNSC_28SemiDynamicSparseNumberArrayIdmNSC_8NWrapperILm64EEEEELb1EEEEEESt14default_deleteISK_EEESaISO_ENSt8__detail10_Select1stESt8equal_toIS5_ESt4hashIS5_ENSQ_18_Mod_range_hashingENSQ_20_Default_ranged_hashENSQ_20_Prime_rehash_policyENSQ_17_Hashtable_traitsILb1ELb0ELb1EEEE5clearEv
FNDA:0,_ZNSt10_HashtableINSt7__cxx1112basic_stringIcSt11char_traitsIcESaIcEEESt4pairIKS5_St10unique_ptrI10MooseArrayIN7libMesh11VectorValueIN11MetaPhysicL10DualNumberIdNSC_28SemiDynamicSparseNumberArrayIdmNSC_8NWrapperILm64EEEEELb1EEEEEESt14default_deleteISK_EEESaISO_ENSt8__detail10_Select1stESt8equal_toIS5_ESt4hashIS5_ENSQ_18_Mod_range_hashingENSQ_20_Default_ranged_hashENSQ_20_Prime_rehash_policyENSQ_17_Hashtable_traitsILb1ELb0ELb1EEEE5clearEv
FN:2081,_ZNSt10_HashtableINSt7__cxx1112basic_stringIcSt11char_traitsIcESaIcEEESt4pairIKS5_S5_ESaIS8_ENSt8__detail10_Select1stESt8equal_toIS5_ESt4hashIS5_ENSA_18_Mod_range_hashingENSA_20_Default_ranged_hashENSA_20_Prime_rehash_policyENSA_17_Hashtable_traitsILb1ELb0ELb1EEEE5clearEv
FNDA:0,_ZNSt10_HashtableINSt7__cxx1112basic_stringIcSt11char_traitsIcESaIcEEESt4pairIKS5_S5_ESaIS8_ENSt8__detail10_Select1stESt8equal_toIS5_ESt4hashIS5_ENSA_18_Mod_range_hashingENSA_20_Default_ranged_hashENSA_20_Prime_rehash_policyENSA_17_Hashtable_traitsILb1ELb0ELb1EEEE5clearEv
FN:2081,_ZNSt10_HashtableImSt4pairIKmSt6vectorIS2_IS0_IbN11MetaPhysicL10DualNumberIdNS3_28SemiDynamicSparseNumberArrayIdmNS3_8NWrapperILm64EEEEELb1EEEESaISA_EESaISC_EEESaISF_ENSt8__detail10_Select1stESt8equal_toImESt4hashImENSH_18_Mod_range_hashingENSH_20_Default_ranged_hashENSH_20_Prime_rehash_policyENSH_17_Hashtable_traitsILb0ELb0ELb1EEEE5clearEv
FNDA:0,_ZNSt10_HashtableImSt4pairIKmSt6vectorIS2_IS0_IbN11MetaPhysicL10DualNumberIdNS3_28SemiDynamicSparseNumberArrayIdmNS3_8NWrapperILm64EEEEELb1EEEESaISA_EESaISC_EEESaISF_ENSt8__detail10_Select1stESt8equal_toImESt4hashImENSH_18_Mod_range_hashingENSH_20_Default_ranged_hashENSH_20_Prime_rehash_policyENSH_17_Hashtable_traitsILb0ELb0ELb1EEEE5clearEv
FN:2081,_ZNSt10_HashtableImSt4pairIKmSt6vectorIS0_IbN11MetaPhysicL10DualNumberIdNS3_28SemiDynamicSparseNumberArrayIdmNS3_8NWrapperILm64EEEEELb1EEEESaISA_EEESaISD_ENSt8__detail10_Select1stESt8equal_toImESt4hashImENSF_18_Mod_range_hashingENSF_20_Default_ranged_hashENSF_20_Prime_rehash_policyENSF_17_Hashtable_traitsILb0ELb0ELb1EEEE5clearEv
FNDA:0,_ZNSt10_HashtableImSt4pairIKmSt6vectorIS0_IbN11MetaPhysicL10DualNumberIdNS3_28SemiDynamicSparseNumberArrayIdmNS3_8NWrapperILm64EEEEELb1EEEESaISA_EEESaISD_ENSt8__detail10_Select1stESt8equal_toImESt4hashImENSF_18_Mod_range_hashingENSF_20_Default_ranged_hashENSF_20_Prime_rehash_policyENSF_17_Hashtable_traitsILb0ELb0ELb1EEEE5clearEv
FN:2081,_ZNSt10_HashtableImSt4pairIKmSt6vectorIS0_IbdESaIS3_EEESaIS6_ENSt8__detail10_Select1stESt8equal_toImESt4hashImENS8_18_Mod_range_hashingENS8_20_Default_ranged_hashENS8_20_Prime_rehash_policyENS8_17_Hashtable_traitsILb0ELb0ELb1EEEE5clearEv
FNDA:0,_ZNSt10_HashtableImSt4pairIKmSt6vectorIS0_IbdESaIS3_EEESaIS6_ENSt8__detail10_Select1stESt8equal_toImESt4hashImENS8_18_Mod_range_hashingENS8_20_Default_ranged_hashENS8_20_Prime_rehash_policyENS8_17_Hashtable_traitsILb0ELb0ELb1EEEE5clearEv
FN:2081,_ZNSt10_HashtableINSt7__cxx1112basic_stringIcSt11char_traitsIcESaIcEEESt4pairIKS5_St6vectorIjSaIjEEESaISB_ENSt8__detail10_Select1stESt8equal_toIS5_ESt4hashIS5_ENSD_18_Mod_range_hashingENSD_20_Default_ranged_hashENSD_20_Prime_rehash_policyENSD_17_Hashtable_traitsILb1ELb0ELb1EEEE5clearEv
FNDA:0,_ZNSt10_HashtableINSt7__cxx1112basic_stringIcSt11char_traitsIcESaIcEEESt4pairIKS5_St6vectorIjSaIjEEESaISB_ENSt8__detail10_Select1stESt8equal_toIS5_ESt4hashIS5_ENSD_18_Mod_range_hashingENSD_20_Default_ranged_hashENSD_20_Prime_rehash_policyENSD_17_Hashtable_traitsILb1ELb0ELb1EEEE5clearEv
FN:2081,_ZNSt10_HashtableINSt7__cxx1112basic_stringIcSt11char_traitsIcESaIcEEESt4pairIKS5_St10unique_ptrI10MooseArrayIN5Eigen6MatrixIdLin1ELi1ELi0ELin1ELi1EEEESt14default_deleteISD_EEESaISH_ENSt8__detail10_Select1stESt8equal_toIS5_ESt4hashIS5_ENSJ_18_Mod_range_hashingENSJ_20_Default_ranged_hashENSJ_20_Prime_rehash_policyENSJ_17_Hashtable_traitsILb1ELb0ELb1EEEE5clearEv
FNDA:0,_ZNSt10_HashtableINSt7__cxx1112basic_stringIcSt11char_traitsIcESaIcEEESt4pairIKS5_St10unique_ptrI10MooseArrayIN5Eigen6MatrixIdLin1ELi1ELi0ELin1ELi1EEEESt14default_deleteISD_EEESaISH_ENSt8__detail10_Select1stESt8equal_toIS5_ESt4hashIS5_ENSJ_18_Mod_range_hashingENSJ_20_Default_ranged_hashENSJ_20_Prime_rehash_policyENSJ_17_Hashtable_traitsILb1ELb0ELb1EEEE5clearEv
FN:2119,_ZNSt10_HashtableIjjSaIjENSt8__detail9_IdentityESt8equal_toIjESt4hashIjENS1_18_Mod_range_hashingENS1_20_Default_ranged_hashENS1_20_Prime_rehash_policyENS1_17_Hashtable_traitsILb0ELb1ELb1EEEE9_M_rehashEmRKm
FNDA:0,_ZNSt10_HashtableIjjSaIjENSt8__detail9_IdentityESt8equal_toIjESt4hashIjENS1_18_Mod_range_hashingENS1_20_Default_ranged_hashENS1_20_Prime_rehash_policyENS1_17_Hashtable_traitsILb0ELb1ELb1EEEE9_M_rehashEmRKm
FN:2119,_ZNSt10_HashtableImSt4pairIKmSt6vectorIS0_IbN11MetaPhysicL10DualNumberIdNS3_28SemiDynamicSparseNumberArrayIdmNS3_8NWrapperILm64EEEEELb1EEEESaISA_EEESaISD_ENSt8__detail10_Select1stESt8equal_toImESt4hashImENSF_18_Mod_range_hashingENSF_20_Default_ranged_hashENSF_20_Prime_rehash_policyENSF_17_Hashtable_traitsILb0ELb0ELb1EEEE9_M_rehashEmRS1_
FNDA:0,_ZNSt10_HashtableImSt4pairIKmSt6vectorIS0_IbN11MetaPhysicL10DualNumberIdNS3_28SemiDynamicSparseNumberArrayIdmNS3_8NWrapperILm64EEEEELb1EEEESaISA_EEESaISD_ENSt8__detail10_Select1stESt8equal_toImESt4hashImENSF_18_Mod_range_hashingENSF_20_Default_ranged_hashENSF_20_Prime_rehash_policyENSF_17_Hashtable_traitsILb0ELb0ELb1EEEE9_M_rehashEmRS1_
FN:2119,_ZNSt10_HashtableImSt4pairIKmSt6vectorIS2_IS0_IbN11MetaPhysicL10DualNumberIdNS3_28SemiDynamicSparseNumberArrayIdmNS3_8NWrapperILm64EEEEELb1EEEESaISA_EESaISC_EEESaISF_ENSt8__detail10_Select1stESt8equal_toImESt4hashImENSH_18_Mod_range_hashingENSH_20_Default_ranged_hashENSH_20_Prime_rehash_policyENSH_17_Hashtable_traitsILb0ELb0ELb1EEEE9_M_rehashEmRS1_
FNDA:0,_ZNSt10_HashtableImSt4pairIKmSt6vectorIS2_IS0_IbN11MetaPhysicL10DualNumberIdNS3_28SemiDynamicSparseNumberArrayIdmNS3_8NWrapperILm64EEEEELb1EEEESaISA_EESaISC_EEESaISF_ENSt8__detail10_Select1stESt8equal_toImESt4hashImENSH_18_Mod_range_hashingENSH_20_Default_ranged_hashENSH_20_Prime_rehash_policyENSH_17_Hashtable_traitsILb0ELb0ELb1EEEE9_M_rehashEmRS1_
FN:2119,_ZNSt10_HashtableImSt4pairIKmSt6vectorIS0_IbdESaIS3_EEESaIS6_ENSt8__detail10_Select1stESt8equal_toImESt4hashImENS8_18_Mod_range_hashingENS8_20_Default_ranged_hashENS8_20_Prime_rehash_policyENS8_17_Hashtable_traitsILb0ELb0ELb1EEEE9_M_rehashEmRS1_
FNDA:0,_ZNSt10_HashtableImSt4pairIKmSt6vectorIS0_IbdESaIS3_EEESaIS6_ENSt8__detail10_Select1stESt8equal_toImESt4hashImENS8_18_Mod_range_hashingENS8_20_Default_ranged_hashENS8_20_Prime_rehash_policyENS8_17_Hashtable_traitsILb0ELb0ELb1EEEE9_M_rehashEmRS1_
FN:2119,_ZNSt10_HashtableImSt4pairIKmSt6vectorIS2_IS0_IbdESaIS3_EESaIS5_EEESaIS8_ENSt8__detail10_Select1stESt8equal_toImESt4hashImENSA_18_Mod_range_hashingENSA_20_Default_ranged_hashENSA_20_Prime_rehash_policyENSA_17_Hashtable_traitsILb0ELb0ELb1EEEE9_M_rehashEmRS1_
FNDA:0,_ZNSt10_HashtableImSt4pairIKmSt6vectorIS2_IS0_IbdESaIS3_EESaIS5_EEESaIS8_ENSt8__detail10_Select1stESt8equal_toImESt4hashImENSA_18_Mod_range_hashingENSA_20_Default_ranged_hashENSA_20_Prime_rehash_policyENSA_17_Hashtable_traitsILb0ELb0ELb1EEEE9_M_rehashEmRS1_
FN:2142,_ZNSt10_HashtableIjjSaIjENSt8__detail9_IdentityESt8equal_toIjESt4hashIjENS1_18_Mod_range_hashingENS1_20_Default_ranged_hashENS1_20_Prime_rehash_policyENS1_17_Hashtable_traitsILb0ELb1ELb1EEEE13_M_rehash_auxEmSt17integral_constantIbLb1EE
FNDA:0,_ZNSt10_HashtableIjjSaIjENSt8__detail9_IdentityESt8equal_toIjESt4hashIjENS1_18_Mod_range_hashingENS1_20_Default_ranged_hashENS1_20_Prime_rehash_policyENS1_17_Hashtable_traitsILb0ELb1ELb1EEEE13_M_rehash_auxEmSt17integral_constantIbLb1EE
FN:2142,_ZNSt10_HashtableImSt4pairIKmSt6vectorIS2_IS0_IbdESaIS3_EESaIS5_EEESaIS8_ENSt8__detail10_Select1stESt8equal_toImESt4hashImENSA_18_Mod_range_hashingENSA_20_Default_ranged_hashENSA_20_Prime_rehash_policyENSA_17_Hashtable_traitsILb0ELb0ELb1EEEE13_M_rehash_auxEmSt17integral_constantIbLb1EE
FNDA:0,_ZNSt10_HashtableImSt4pairIKmSt6vectorIS2_IS0_IbdESaIS3_EESaIS5_EEESaIS8_ENSt8__detail10_Select1stESt8equal_toImESt4hashImENSA_18_Mod_range_hashingENSA_20_Default_ranged_hashENSA_20_Prime_rehash_policyENSA_17_Hashtable_traitsILb0ELb0ELb1EEEE13_M_rehash_auxEmSt17integral_constantIbLb1EE
FN:2142,_ZNSt10_HashtableImSt4pairIKmSt6vectorIS0_IbN11MetaPhysicL10DualNumberIdNS3_28SemiDynamicSparseNumberArrayIdmNS3_8NWrapperILm64EEEEELb1EEEESaISA_EEESaISD_ENSt8__detail10_Select1stESt8equal_toImESt4hashImENSF_18_Mod_range_hashingENSF_20_Default_ranged_hashENSF_20_Prime_rehash_policyENSF_17_Hashtable_traitsILb0ELb0ELb1EEEE13_M_rehash_auxEmSt17integral_constantIbLb1EE
FNDA:0,_ZNSt10_HashtableImSt4pairIKmSt6vectorIS0_IbN11MetaPhysicL10DualNumberIdNS3_28SemiDynamicSparseNumberArrayIdmNS3_8NWrapperILm64EEEEELb1EEEESaISA_EEESaISD_ENSt8__detail10_Select1stESt8equal_toImESt4hashImENSF_18_Mod_range_hashingENSF_20_Default_ranged_hashENSF_20_Prime_rehash_policyENSF_17_Hashtable_traitsILb0ELb0ELb1EEEE13_M_rehash_auxEmSt17integral_constantIbLb1EE
FN:2142,_ZNSt10_HashtableImSt4pairIKmSt6vectorIS2_IS0_IbN11MetaPhysicL10DualNumberIdNS3_28SemiDynamicSparseNumberArrayIdmNS3_8NWrapperILm64EEEEELb1EEEESaISA_EESaISC_EEESaISF_ENSt8__detail10_Select1stESt8equal_toImESt4hashImENSH_18_Mod_range_hashingENSH_20_Default_ranged_hashENSH_20_Prime_rehash_policyENSH_17_Hashtable_traitsILb0ELb0ELb1EEEE13_M_rehash_auxEmSt17integral_constantIbLb1EE
FNDA:0,_ZNSt10_HashtableImSt4pairIKmSt6vectorIS2_IS0_IbN11MetaPhysicL10DualNumberIdNS3_28SemiDynamicSparseNumberArrayIdmNS3_8NWrapperILm64EEEEELb1EEEESaISA_EESaISC_EEESaISF_ENSt8__detail10_Select1stESt8equal_toImESt4hashImENSH_18_Mod_range_hashingENSH_20_Default_ranged_hashENSH_20_Prime_rehash_policyENSH_17_Hashtable_traitsILb0ELb0ELb1EEEE13_M_rehash_auxEmSt17integral_constantIbLb1EE
FN:2142,_ZNSt10_HashtableImSt4pairIKmSt6vectorIS0_IbdESaIS3_EEESaIS6_ENSt8__detail10_Select1stESt8equal_toImESt4hashImENS8_18_Mod_range_hashingENS8_20_Default_ranged_hashENS8_20_Prime_rehash_policyENS8_17_Hashtable_traitsILb0ELb0ELb1EEEE13_M_rehash_auxEmSt17integral_constantIbLb1EE
FNDA:0,_ZNSt10_HashtableImSt4pairIKmSt6vectorIS0_IbdESaIS3_EEESaIS6_ENSt8__detail10_Select1stESt8equal_toImESt4hashImENS8_18_Mod_range_hashingENS8_20_Default_ranged_hashENS8_20_Prime_rehash_policyENS8_17_Hashtable_traitsILb0ELb0ELb1EEEE13_M_rehash_auxEmSt17integral_constantIbLb1EE
FNF:63
FNH:3
DA:279,0
DA:280,0
DA:284,0
DA:286,0
DA:290,0
DA:290,0
DA:290,0
DA:290,0
DA:290,0
DA:394,1362
DA:406,0
DA:408,0
DA:409,0
DA:412,0
DA:418,1362
DA:425,0
DA:426,0
DA:425,0
DA:426,0
DA:425,0
DA:426,0
DA:425,0
DA:426,0
DA:425,0
DA:426,0
DA:425,0
DA:426,0
DA:425,0
DA:426,0
DA:425,0
DA:426,0
DA:425,0
DA:426,0
DA:425,0
DA:426,0
DA:425,681
DA:426,681
DA:425,681
DA:426,681
DA:425,0
DA:426,0
DA:425,0
DA:426,0
DA:425,0
DA:426,0
DA:425,0
DA:426,0
DA:435,0
DA:726,0
DA:730,0
DA:741,0
DA:742,0
DA:743,0
DA:1442,0
DA:1443,0
DA:1622,0
DA:1628,0
DA:1629,0
DA:1632,0
DA:1636,0
DA:1638,0
DA:1622,0
DA:1628,0
DA:1629,0
DA:1632,0
DA:1636,0
DA:1638,0
DA:1622,0
DA:1628,0
DA:1629,0
DA:1632,0
DA:1636,0
DA:1638,0
DA:1622,0
DA:1628,0
DA:1629,0
DA:1632,0
DA:1636,0
DA:1638,0
DA:1622,0
DA:1628,0
DA:1629,0
DA:1632,0
DA:1636,0
DA:1638,0
DA:1650,0
DA:1654,0
DA:1658,0
DA:1659,0
DA:1666,0
DA:1667,0
DA:1668,0
DA:1671,0
DA:1672,0
DA:1674,0
DA:1650,0
DA:1654,0
DA:1658,0
DA:1659,0
DA:1666,0
DA:1667,0
DA:1668,0
DA:1671,0
DA:1672,0
DA:1674,0
DA:1650,0
DA:1654,0
DA:1658,0
DA:1659,0
DA:1666,0
DA:1667,0
DA:1668,0
DA:1671,0
DA:1672,0
DA:1674,0
DA:1650,0
DA:1654,0
DA:1658,0
DA:1659,0
DA:1666,0
DA:1667,0
DA:1668,0
DA:1671,0
DA:1672,0
DA:1674,0
DA:1650,0
DA:1654,0
DA:1658,0
DA:1659,0
DA:1666,0
DA:1667,0
DA:1668,0
DA:1671,0
DA:1672,0
DA:1674,0
DA:1769,0
DA:1776,0
DA:1778,0
DA:1781,0
DA:1783,0
DA:1790,0
DA:1791,0
DA:1792,0
DA:1769,0
DA:1776,0
DA:1778,0
DA:1781,0
DA:1783,0
DA:1790,0
DA:1791,0
DA:1792,0
DA:1769,0
DA:1776,0
DA:1778,0
DA:1781,0
DA:1783,0
DA:1790,0
DA:1791,0
DA:1792,0
DA:1769,0
DA:1776,0
DA:1778,0
DA:1781,0
DA:1783,0
DA:1790,0
DA:1791,0
DA:1792,0
DA:1769,0
DA:1776,0
DA:1778,0
DA:1781,0
DA:1783,0
DA:1790,0
DA:1791,0
DA:1792,0
DA:1855,0
DA:1865,0
DA:1866,0
DA:1868,0
DA:1870,0
DA:1871,0
DA:1872,0
DA:2081,0
DA:2086,0
DA:2087,0
DA:2088,0
DA:2089,0
DA:2081,0
DA:2085,0
DA:2086,0
DA:2087,0
DA:2088,0
DA:2089,0
DA:2081,0
DA:2085,0
DA:2086,0
DA:2087,0
DA:2088,0
DA:2089,0
DA:2081,0
DA:2085,0
DA:2086,0
DA:2087,0
DA:2088,0
DA:2089,0
DA:2081,0
DA:2085,0
DA:2086,0
DA:2087,0
DA:2088,0
DA:2089,0
DA:2081,0
DA:2086,0
DA:2087,0
DA:2088,0
DA:2089,0
DA:2081,0
DA:2086,0
DA:2087,0
DA:2088,0
DA:2089,0
DA:2081,0
DA:2086,0
DA:2087,0
DA:2088,0
DA:2089,0
DA:2081,0
DA:2086,0
DA:2087,0
DA:2088,0
DA:2089,0
DA:2081,0
DA:2086,0
DA:2087,0
DA:2088,0
DA:2089,0
DA:2081,681
DA:2086,681
DA:2087,681
DA:2088,681
DA:2089,681
DA:2081,0
DA:2086,0
DA:2087,0
DA:2088,0
DA:2089,0
DA:2081,0
DA:2086,0
DA:2087,0
DA:2088,0
DA:2089,0
DA:2081,0
DA:2086,0
DA:2087,0
DA:2088,0
DA:2089,0
DA:2081,0
DA:2086,0
DA:2087,0
DA:2088,0
DA:2089,0
DA:2081,0
DA:2086,0
DA:2087,0
DA:2088,0
DA:2089,0
DA:2119,0
DA:2125,0
DA:2127,0
DA:2131,0
DA:2132,0
DA:2134,0
DA:2119,0
DA:2125,0
DA:2127,0
DA:2131,0
DA:2132,0
DA:2134,0
DA:2119,0
DA:2125,0
DA:2127,0
DA:2131,0
DA:2132,0
DA:2134,0
DA:2119,0
DA:2125,0
DA:2127,0
DA:2131,0
DA:2132,0
DA:2134,0
DA:2119,0
DA:2125,0
DA:2127,0
DA:2131,0
DA:2132,0
DA:2134,0
DA:2142,0
DA:2148,0
DA:2150,0
DA:2155,0
DA:2157,0
DA:2158,0
DA:2159,0
DA:2160,0
DA:2161,0
DA:2166,0
DA:2167,0
DA:2172,0
DA:2173,0
DA:2174,0
DA:2175,0
DA:2142,0
DA:2148,0
DA:2150,0
DA:2155,0
DA:2157,0
DA:2158,0
DA:2159,0
DA:2160,0
DA:2161,0
DA:2166,0
DA:2167,0
DA:2172,0
DA:2173,0
DA:2174,0
DA:2175,0
DA:2142,0
DA:2148,0
DA:2150,0
DA:2155,0
DA:2157,0
DA:2158,0
DA:2159,0
DA:2160,0
DA:2161,0
DA:2166,0
DA:2167,0
DA:2172,0
DA:2173,0
DA:2174,0
DA:2175,0
DA:2142,0
DA:2148,0
DA:2150,0
DA:2155,0
DA:2157,0
DA:2158,0
DA:2159,0
DA:2160,0
DA:2161,0
DA:2166,0
DA:2167,0
DA:2172,0
DA:2173,0
DA:2174,0
DA:2175,0
DA:2142,0
DA:2148,0
DA:2150,0
DA:2155,0
DA:2157,0
DA:2158,0
DA:2159,0
DA:2160,0
DA:2161,0
DA:2166,0
DA:2167,0
DA:2172,0
DA:2173,0
DA:2174,0
DA:2175,0
LF:371
LH:11
end_of_record
SF:/home/runner/work/raccoon/raccoon/src/materials/large_deformation_models/ComputeLargeDeformationStress.C
FN:13,_ZN29ComputeLargeDeformationStress11validParamsEv
FNDA:190,_ZN29ComputeLargeDeformationStress11validParamsEv
FN:29,_ZN29ComputeLargeDeformationStressC2ERK15InputParameters
FNDA:48,_ZN29ComputeLargeDeformationStressC2ERK15InputParameters
FN:44,_ZN29ComputeLargeDeformationStress12initialSetupEv
FNDA:48,_ZN29ComputeLargeDeformationStress12initialSetupEv
FN:67,_ZN29ComputeLargeDeformationStress24initQpStatefulPropertiesEv
FNDA:0,_ZN29ComputeLargeDeformationStress24initQpStatefulPropertiesEv
FN:73,_ZN29ComputeLargeDeformationStress19computeQpPropertiesEv
FNDA:287080,_ZN29ComputeLargeDeformationStress19computeQpPropertiesEv
FNF:5
FNH:4
DA:13,190
DA:15,190
DA:16,190
DA:17,190
DA:20,380
DA:22,380
DA:23,380
DA:25,190
DA:26,190
DA:29,48
DA:32,96
DA:33,48
DA:34,48
DA:35,54
DA:37,192
DA:39,96
DA:40,0
DA:41,48
DA:44,48
DA:46,48
DA:47,48
DA:48,48
DA:49,0
DA:50,0
DA:53,48
DA:54,48
DA:55,87
DA:57,48
DA:58,39
DA:60,48
DA:61,51
DA:62,54
DA:64,48
DA:67,0
DA:69,0
DA:70,0
DA:73,287080
DA:75,287080
DA:76,287080
DA:78,287080
DA:80,62224
DA:81,62224
DA:83,287080
LF:43
LH:37
end_of_record
SF:/home/runner/work/raccoon/raccoon/src/materials/nucleation_models/KLRNucleationMicroForce.C
FN:13,_ZN23KLRNucleationMicroForce11validParamsEv
FNDA:130,_ZN23KLRNucleationMicroForce11validParamsEv
FN:29,_ZN23KLRNucleationMicroForceC2ERK15InputParameters
FNDA:3,_ZN23KLRNucleationMicroForceC2ERK15InputParameters
FN:39,_ZN23KLRNucleationMicroForce19computeQpPropertiesEv
FNDA:318000,_ZN23KLRNucleationMicroForce19computeQpPropertiesEv
FNF:3
FNH:3
DA:13,130
DA:15,130
DA:17,130
DA:20,260
DA:22,260
DA:25,260
DA:26,130
DA:29,3
DA:31,6
DA:32,6
DA:33,6
DA:34,15
DA:36,3
DA:39,318000
DA:42,636000
DA:45,318000
DA:48,318000
DA:49,318000
DA:50,636000
DA:57,318000
DA:58,1200
DA:60,318000
DA:61,1200
DA:64,954000
DA:65,318000
DA:66,636000
DA:67,318000
DA:68,636000
DA:69,1272000
DA:70,318000
DA:73,318000
DA:74,318000
DA:75,954000
DA:76,1590000
DA:78,954000
DA:80,318000
DA:81,318000
DA:82,636000
DA:83,954000
DA:84,318000
LF:40
LH:40
end_of_record
SF:/home/runner/work/raccoon/raccoon/build/header_symlinks/LinearHardening.h
LF:0
LH:0
end_of_record
SF:/home/runner/work/raccoon/raccoon/src/materials/hardening_models/PlasticHardeningModel.C
FN:8,_ZN21PlasticHardeningModel11validParamsEv
FNDA:690,_ZN21PlasticHardeningModel11validParamsEv
FN:19,_ZN21PlasticHardeningModelC2ERK15InputParameters
FNDA:45,_ZN21PlasticHardeningModelC2ERK15InputParameters
FNF:2
FNH:2
DA:8,690
DA:10,690
DA:11,690
DA:13,690
DA:14,690
DA:16,690
DA:19,45
DA:20,45
DA:22,45
LF:9
LH:9
end_of_record
SF:/home/runner/micromamba/envs/moose/libmesh/include/metaphysicl/raw_type.h
DA:73,1592860
DA:88,0
LF:2
LH:1
end_of_record
SF:/home/runner/micromamba/envs/moose/x86_64-conda-linux-gnu/include/c++/10.4.0/initializer_list
DA:71,1300
DA:79,1300
LF:2
LH:2
end_of_record
SF:/home/runner/work/raccoon/raccoon/src/materials/small_deformation_models/SmallDeformationPlasticityModel.C
FN:9,_ZN31SmallDeformationPlasticityModel11validParamsEv
FNDA:134,_ZN31SmallDeformationPlasticityModel11validParamsEv
FN:23,_ZN31SmallDeformationPlasticityModelC2ERK15InputParameters
FNDA:6,_ZN31SmallDeformationPlasticityModelC2ERK15InputParameters
FN:37,_ZN31SmallDeformationPlasticityModel12initialSetupEv
FNDA:6,_ZN31SmallDeformationPlasticityModel12initialSetupEv
FN:47,_ZN31SmallDeformationPlasticityModel5setQpEj
FNDA:139608,_ZN31SmallDeformationPlasticityModel5setQpEj
FN:54,_ZN31SmallDeformationPlasticityModel18setElasticityModelEP31SmallDeformationElasticityModel
FNDA:6,_ZN31SmallDeformationPlasticityModel18setElasticityModelEP31SmallDeformationElasticityModel
FN:61,_ZN31SmallDeformationPlasticityModel24initQpStatefulPropertiesEv
FNDA:11508,_ZN31SmallDeformationPlasticityModel24initQpStatefulPropertiesEv
FNF:6
FNH:6
DA:9,134
DA:11,134
DA:12,134
DA:13,134
DA:15,268
DA:17,134
DA:18,134
DA:20,134
DA:23,6
DA:27,12
DA:29,12
DA:30,12
DA:31,12
DA:32,36
DA:34,6
DA:37,6
DA:39,6
DA:40,6
DA:41,0
DA:42,0
DA:43,0
DA:44,6
DA:47,139608
DA:49,139608
DA:50,139608
DA:51,139608
DA:54,6
DA:57,6
DA:58,6
DA:61,11508
DA:63,11508
DA:64,11508
DA:65,11508
LF:33
LH:30
end_of_record
SF:/home/runner/work/raccoon/raccoon/moose/framework/build/header_symlinks/Assembly.h
DA:278,48
DA:391,48
LF:2
LH:2
end_of_record
SF:/home/runner/work/raccoon/raccoon/moose/framework/build/header_symlinks/MooseException.h
FN:39,_ZN14MooseExceptionC2IJRA12_KcEEEDpOT_
FNDA:0,_ZN14MooseExceptionC2IJRA12_KcEEEDpOT_
FN:53,_ZN14MooseExceptionD0Ev
FNDA:0,_ZN14MooseExceptionD0Ev
FN:53,_ZN14MooseExceptionD2Ev
FNDA:0,_ZN14MooseExceptionD2Ev
FN:60,_ZNK14MooseException4whatEv
FNDA:0,_ZNK14MooseException4whatEv
FNF:4
FNH:0
DA:39,0
DA:40,0
DA:41,0
DA:43,0
DA:44,0
DA:53,0
DA:53,0
DA:60,0
LF:8
LH:0
end_of_record
SF:/home/runner/micromamba/envs/moose/x86_64-conda-linux-gnu/include/c++/10.4.0/bits/stl_vector.h
FN:333,_ZNSt12_Vector_baseISt10unique_ptrI33OptionalMaterialPropertyProxyBaseI8MaterialESt14default_deleteIS3_EESaIS6_EED2Ev
FNDA:681,_ZNSt12_Vector_baseISt10unique_ptrI33OptionalMaterialPropertyProxyBaseI8MaterialESt14default_deleteIS3_EESaIS6_EED2Ev
FN:333,_ZNSt12_Vector_baseISt6vectorIS0_ISt4pairIhhESaIS2_EESaIS4_EESaIS6_EED2Ev
FNDA:0,_ZNSt12_Vector_baseISt6vectorIS0_ISt4pairIhhESaIS2_EESaIS4_EESaIS6_EED2Ev
FN:333,_ZNSt12_Vector_baseIP19MooseVariableScalarSaIS1_EED2Ev
FNDA:0,_ZNSt12_Vector_baseIP19MooseVariableScalarSaIS1_EED2Ev
FN:333,_ZNSt12_Vector_baseISt10unique_ptrIN5Moose15FunctorEnvelopeIN11MetaPhysicL10DualNumberIdNS3_28SemiDynamicSparseNumberArrayIdmNS3_8NWrapperILm64EEEEELb1EEEEESt14default_deleteISA_EESaISD_EED2Ev
FNDA:681,_ZNSt12_Vector_baseISt10unique_ptrIN5Moose15FunctorEnvelopeIN11MetaPhysicL10DualNumberIdNS3_28SemiDynamicSparseNumberArrayIdmNS3_8NWrapperILm64EEEEELb1EEEEESt14default_deleteISA_EESaISD_EED2Ev
FN:333,_ZNSt12_Vector_baseIP22MooseVariableFieldBaseSaIS1_EED2Ev
FNDA:0,_ZNSt12_Vector_baseIP22MooseVariableFieldBaseSaIS1_EED2Ev
FN:333,_ZNSt12_Vector_baseIP15MooseVariableFEIdESaIS2_EED2Ev
FNDA:0,_ZNSt12_Vector_baseIP15MooseVariableFEIdESaIS2_EED2Ev
FN:333,_ZNSt12_Vector_baseIP15MooseVariableFEIN7libMesh11VectorValueIdEEESaIS5_EED2Ev
FNDA:0,_ZNSt12_Vector_baseIP15MooseVariableFEIN7libMesh11VectorValueIdEEESaIS5_EED2Ev
FN:333,_ZNSt12_Vector_baseIP15MooseVariableFEIN5Eigen6MatrixIdLin1ELi1ELi0ELin1ELi1EEEESaIS5_EED2Ev
FNDA:0,_ZNSt12_Vector_baseIP15MooseVariableFEIN5Eigen6MatrixIdLin1ELi1ELi0ELin1ELi1EEEESaIS5_EED2Ev
FN:333,_ZNSt12_Vector_baseIP15MooseVariableFVIdESaIS2_EED2Ev
FNDA:0,_ZNSt12_Vector_baseIP15MooseVariableFVIdESaIS2_EED2Ev
FN:333,_ZNSt12_Vector_baseI12FunctionNameSaIS0_EED2Ev
FNDA:0,_ZNSt12_Vector_baseI12FunctionNameSaIS0_EED2Ev
FN:333,_ZNSt12_Vector_baseIP21MooseLinearVariableFVIdESaIS2_EED2Ev
FNDA:0,_ZNSt12_Vector_baseIP21MooseLinearVariableFVIdESaIS2_EED2Ev
FN:333,_ZNSt12_Vector_baseISt3setIP18MooseVariableFieldIdESt4lessIS3_ESaIS3_EESaIS7_EED2Ev
FNDA:0,_ZNSt12_Vector_baseISt3setIP18MooseVariableFieldIdESt4lessIS3_ESaIS3_EESaIS7_EED2Ev
FN:333,_ZNSt12_Vector_baseISt10unique_ptrI13PropertyValueSt14default_deleteIS1_EESaIS4_EED2Ev
FNDA:0,_ZNSt12_Vector_baseISt10unique_ptrI13PropertyValueSt14default_deleteIS1_EESaIS4_EED2Ev
FN:333,_ZNSt12_Vector_baseISt10unique_ptrI33OptionalMaterialPropertyProxyBaseI25MaterialPropertyInterfaceESt14default_deleteIS3_EESaIS6_EED2Ev
FNDA:0,_ZNSt12_Vector_baseISt10unique_ptrI33OptionalMaterialPropertyProxyBaseI25MaterialPropertyInterfaceESt14default_deleteIS3_EESaIS6_EED2Ev
FN:333,_ZNSt12_Vector_baseISt10unique_ptrIN5Moose15FunctorEnvelopeIdEESt14default_deleteIS3_EESaIS6_EED2Ev
FNDA:681,_ZNSt12_Vector_baseISt10unique_ptrIN5Moose15FunctorEnvelopeIdEESt14default_deleteIS3_EESaIS6_EED2Ev
FN:333,_ZNSt12_Vector_baseIN11MetaPhysicL10DualNumberIdNS0_28SemiDynamicSparseNumberArrayIdmNS0_8NWrapperILm64EEEEELb1EEESaIS6_EED2Ev
FNDA:306,_ZNSt12_Vector_baseIN11MetaPhysicL10DualNumberIdNS0_28SemiDynamicSparseNumberArrayIdmNS0_8NWrapperILm64EEEEELb1EEESaIS6_EED2Ev
FN:333,_ZNSt12_Vector_baseIN35DerivativeParsedMaterialHelperTemplILb1EE30MaterialPropertyDerivativeRuleESaIS2_EED2Ev
FNDA:306,_ZNSt12_Vector_baseIN35DerivativeParsedMaterialHelperTemplILb1EE30MaterialPropertyDerivativeRuleESaIS2_EED2Ev
FN:333,_ZNSt12_Vector_baseIN35DerivativeParsedMaterialHelperTemplILb1EE10DerivativeESaIS2_EED2Ev
FNDA:306,_ZNSt12_Vector_baseIN35DerivativeParsedMaterialHelperTemplILb1EE10DerivativeESaIS2_EED2Ev
FN:333,_ZNSt12_Vector_baseIP12MaterialBaseSaIS1_EED2Ev
FNDA:306,_ZNSt12_Vector_baseIP12MaterialBaseSaIS1_EED2Ev
FN:333,_ZNSt12_Vector_baseI12MaterialNameSaIS0_EED2Ev
FNDA:306,_ZNSt12_Vector_baseI12MaterialNameSaIS0_EED2Ev
FN:333,_ZNSt12_Vector_baseIPKdSaIS1_EED2Ev
FNDA:306,_ZNSt12_Vector_baseIPKdSaIS1_EED2Ev
FN:333,_ZNSt12_Vector_baseI34FunctionMaterialPropertyDescriptorILb1EESaIS1_EED2Ev
FNDA:306,_ZNSt12_Vector_baseI34FunctionMaterialPropertyDescriptorILb1EESaIS1_EED2Ev
FN:333,_ZNSt12_Vector_baseIN20ParsedMaterialHelperILb1EE12ExtraSymbolsESaIS2_EED2Ev
FNDA:306,_ZNSt12_Vector_baseIN20ParsedMaterialHelperILb1EE12ExtraSymbolsESaIS2_EED2Ev
FN:333,_ZNSt12_Vector_baseIPK10MooseArrayIN11MetaPhysicL10DualNumberIdNS1_28SemiDynamicSparseNumberArrayIdmNS1_8NWrapperILm64EEEEELb1EEEESaISA_EED2Ev
FNDA:354,_ZNSt12_Vector_baseIPK10MooseArrayIN11MetaPhysicL10DualNumberIdNS1_28SemiDynamicSparseNumberArrayIdmNS1_8NWrapperILm64EEEEELb1EEEESaISA_EED2Ev
FN:333,_ZNSt12_Vector_baseIPK18ADMaterialPropertyI18RankTwoTensorTemplIdEESaIS5_EED2Ev
FNDA:48,_ZNSt12_Vector_baseIPK18ADMaterialPropertyI18RankTwoTensorTemplIdEESaIS5_EED2Ev
FN:333,_ZNSt12_Vector_baseI20MaterialPropertyNameSaIS0_EED2Ev
FNDA:626,_ZNSt12_Vector_baseI20MaterialPropertyNameSaIS0_EED2Ev
FN:333,_ZNSt12_Vector_baseIPK10MooseArrayIN7libMesh11VectorValueIN11MetaPhysicL10DualNumberIdNS3_28SemiDynamicSparseNumberArrayIdmNS3_8NWrapperILm64EEEEELb1EEEEEESaISD_EED2Ev
FNDA:48,_ZNSt12_Vector_baseIPK10MooseArrayIN7libMesh11VectorValueIN11MetaPhysicL10DualNumberIdNS3_28SemiDynamicSparseNumberArrayIdmNS3_8NWrapperILm64EEEEELb1EEEEEESaISD_EED2Ev
FN:333,_ZNSt12_Vector_baseISt6vectorISt4pairIbN11MetaPhysicL10DualNumberIdNS2_28SemiDynamicSparseNumberArrayIdmNS2_8NWrapperILm64EEEEELb1EEEESaIS9_EESaISB_EED2Ev
FNDA:0,_ZNSt12_Vector_baseISt6vectorISt4pairIbN11MetaPhysicL10DualNumberIdNS2_28SemiDynamicSparseNumberArrayIdmNS2_8NWrapperILm64EEEEELb1EEEESaIS9_EESaISB_EED2Ev
FN:333,_ZNSt12_Vector_baseINSt7__cxx1112basic_stringIcSt11char_traitsIcESaIcEEESaIS5_EED2Ev
FNDA:1416,_ZNSt12_Vector_baseINSt7__cxx1112basic_stringIcSt11char_traitsIcESaIcEEESaIS5_EED2Ev
FN:333,_ZNSt12_Vector_baseImSaImEED2Ev
FNDA:987,_ZNSt12_Vector_baseImSaImEED2Ev
FN:333,_ZNSt12_Vector_baseISt6vectorIS0_IS0_ISt4pairIhhESaIS2_EESaIS4_EESaIS6_EESaIS8_EED2Ev
FNDA:0,_ZNSt12_Vector_baseISt6vectorIS0_IS0_ISt4pairIhhESaIS2_EESaIS4_EESaIS6_EESaIS8_EED2Ev
FN:333,_ZNSt12_Vector_baseISt6vectorIS0_IaSaIaEESaIS2_EESaIS4_EED2Ev
FNDA:0,_ZNSt12_Vector_baseISt6vectorIS0_IaSaIaEESaIS2_EESaIS4_EED2Ev
FN:333,_ZNSt12_Vector_baseIjSaIjEED2Ev
FNDA:1293,_ZNSt12_Vector_baseIjSaIjEED2Ev
FN:333,_ZNSt12_Vector_baseIdSaIdEED2Ev
FNDA:657,_ZNSt12_Vector_baseIdSaIdEED2Ev
FN:333,_ZNSt12_Vector_baseIiSaIiEED2Ev
FNDA:306,_ZNSt12_Vector_baseIiSaIiEED2Ev
FN:333,_ZNSt12_Vector_baseItSaItEED2Ev
FNDA:0,_ZNSt12_Vector_baseItSaItEED2Ev
FN:333,_ZNSt12_Vector_baseIPK8FunctionSaIS2_EED2Ev
FNDA:0,_ZNSt12_Vector_baseIPK8FunctionSaIS2_EED2Ev
FN:333,_ZNSt12_Vector_baseISt5tupleIJNSt7__cxx1112basic_stringIcSt11char_traitsIcESaIcEEEN5Moose23RelationshipManagerTypeESt8functionIFvRK15InputParametersRSA_EEEESaISG_EED2Ev
FNDA:0,_ZNSt12_Vector_baseISt5tupleIJNSt7__cxx1112basic_stringIcSt11char_traitsIcESaIcEEEN5Moose23RelationshipManagerTypeESt8functionIFvRK15InputParametersRSA_EEEESaISG_EED2Ev
FN:333,_ZNSt12_Vector_baseISt4pairIhhESaIS1_EED2Ev
FNDA:0,_ZNSt12_Vector_baseISt4pairIhhESaIS1_EED2Ev
FN:333,_ZNSt12_Vector_baseISt6vectorIaSaIaEESaIS2_EED2Ev
FNDA:0,_ZNSt12_Vector_baseISt6vectorIaSaIaEESaIS2_EED2Ev
FN:333,_ZNSt12_Vector_baseISt4pairIbN11MetaPhysicL10DualNumberIdNS1_28SemiDynamicSparseNumberArrayIdmNS1_8NWrapperILm64EEEEELb1EEEESaIS8_EED2Ev
FNDA:0,_ZNSt12_Vector_baseISt4pairIbN11MetaPhysicL10DualNumberIdNS1_28SemiDynamicSparseNumberArrayIdmNS1_8NWrapperILm64EEEEELb1EEEESaIS8_EED2Ev
FN:333,_ZNSt12_Vector_baseI13SubdomainNameSaIS0_EED2Ev
FNDA:0,_ZNSt12_Vector_baseI13SubdomainNameSaIS0_EED2Ev
FN:333,_ZNSt12_Vector_baseISt6vectorISt4pairIbdESaIS2_EESaIS4_EED2Ev
FNDA:0,_ZNSt12_Vector_baseISt6vectorISt4pairIbdESaIS2_EESaIS4_EED2Ev
FN:333,_ZNSt12_Vector_baseISt10shared_ptrI17RegistryEntryBaseESaIS2_EED2Ev
FNDA:0,_ZNSt12_Vector_baseISt10shared_ptrI17RegistryEntryBaseESaIS2_EED2Ev
FN:333,_ZNSt12_Vector_baseISt10unique_ptrI10MooseArrayIdESt14default_deleteIS2_EESaIS5_EED2Ev
FNDA:0,_ZNSt12_Vector_baseISt10unique_ptrI10MooseArrayIdESt14default_deleteIS2_EESaIS5_EED2Ev
FN:333,_ZNSt12_Vector_baseISt4pairIbdESaIS1_EED2Ev
FNDA:0,_ZNSt12_Vector_baseISt4pairIbdESaIS1_EED2Ev
FN:333,_ZNSt12_Vector_baseISt6vectorISt4pairIhhESaIS2_EESaIS4_EED2Ev
FNDA:0,_ZNSt12_Vector_baseISt6vectorISt4pairIhhESaIS2_EESaIS4_EED2Ev
FN:333,_ZNSt12_Vector_baseIaSaIaEED2Ev
FNDA:0,_ZNSt12_Vector_baseIaSaIaEED2Ev
FN:359,_ZNSt12_Vector_baseIPK18ADMaterialPropertyI18RankTwoTensorTemplIdEESaIS5_EE17_M_create_storageEm
FNDA:48,_ZNSt12_Vector_baseIPK18ADMaterialPropertyI18RankTwoTensorTemplIdEESaIS5_EE17_M_create_storageEm
FN:359,_ZNSt12_Vector_baseIN11MetaPhysicL10DualNumberIdNS0_28SemiDynamicSparseNumberArrayIdmNS0_8NWrapperILm64EEEEELb1EEESaIS6_EE17_M_create_storageEm
FNDA:0,_ZNSt12_Vector_baseIN11MetaPhysicL10DualNumberIdNS0_28SemiDynamicSparseNumberArrayIdmNS0_8NWrapperILm64EEEEELb1EEESaIS6_EE17_M_create_storageEm
FN:359,_ZNSt12_Vector_baseIPK10MooseArrayIN11MetaPhysicL10DualNumberIdNS1_28SemiDynamicSparseNumberArrayIdmNS1_8NWrapperILm64EEEEELb1EEEESaISA_EE17_M_create_storageEm
FNDA:0,_ZNSt12_Vector_baseIPK10MooseArrayIN11MetaPhysicL10DualNumberIdNS1_28SemiDynamicSparseNumberArrayIdmNS1_8NWrapperILm64EEEEELb1EEEESaISA_EE17_M_create_storageEm
FN:359,_ZNSt12_Vector_baseINSt7__cxx1112basic_stringIcSt11char_traitsIcESaIcEEESaIS5_EE17_M_create_storageEm
FNDA:918,_ZNSt12_Vector_baseINSt7__cxx1112basic_stringIcSt11char_traitsIcESaIcEEESaIS5_EE17_M_create_storageEm
FN:465,_ZNSt6vectorISt10unique_ptrI13PropertyValueSt14default_deleteIS1_EESaIS4_EE11_S_relocateEPS4_S7_S7_RS5_
FNDA:0,_ZNSt6vectorISt10unique_ptrI13PropertyValueSt14default_deleteIS1_EESaIS4_EE11_S_relocateEPS4_S7_S7_RS5_
FN:510,_ZNSt6vectorIPK10MooseArrayIN11MetaPhysicL10DualNumberIdNS1_28SemiDynamicSparseNumberArrayIdmNS1_8NWrapperILm64EEEEELb1EEEESaISA_EEC2EmRKSB_
FNDA:0,_ZNSt6vectorIPK10MooseArrayIN11MetaPhysicL10DualNumberIdNS1_28SemiDynamicSparseNumberArrayIdmNS1_8NWrapperILm64EEEEELb1EEEESaISA_EEC2EmRKSB_
FN:510,_ZNSt6vectorIPK18ADMaterialPropertyI18RankTwoTensorTemplIdEESaIS5_EEC2EmRKS6_
FNDA:48,_ZNSt6vectorIPK18ADMaterialPropertyI18RankTwoTensorTemplIdEESaIS5_EEC2EmRKS6_
FN:510,_ZNSt6vectorIN11MetaPhysicL10DualNumberIdNS0_28SemiDynamicSparseNumberArrayIdmNS0_8NWrapperILm64EEEEELb1EEESaIS6_EEC2EmRKS7_
FNDA:0,_ZNSt6vectorIN11MetaPhysicL10DualNumberIdNS0_28SemiDynamicSparseNumberArrayIdmNS0_8NWrapperILm64EEEEELb1EEESaIS6_EEC2EmRKS7_
FN:553,_ZNSt6vectorINSt7__cxx1112basic_stringIcSt11char_traitsIcESaIcEEESaIS5_EEC2ERKS7_
FNDA:918,_ZNSt6vectorINSt7__cxx1112basic_stringIcSt11char_traitsIcESaIcEEESaIS5_EEC2ERKS7_
FN:625,_ZNSt6vectorINSt7__cxx1112basic_stringIcSt11char_traitsIcESaIcEEESaIS5_EEC2ESt16initializer_listIS5_ERKS6_
FNDA:0,_ZNSt6vectorINSt7__cxx1112basic_stringIcSt11char_traitsIcESaIcEEESaIS5_EEC2ESt16initializer_listIS5_ERKS6_
FN:625,_ZNSt6vectorIdSaIdEEC2ESt16initializer_listIdERKS0_
FNDA:0,_ZNSt6vectorIdSaIdEEC2ESt16initializer_listIdERKS0_
FN:625,_ZNSt6vectorI20MaterialPropertyNameSaIS0_EEC2ESt16initializer_listIS0_ERKS1_
FNDA:578,_ZNSt6vectorI20MaterialPropertyNameSaIS0_EEC2ESt16initializer_listIS0_ERKS1_
FN:678,_ZNSt6vectorISt10unique_ptrI33OptionalMaterialPropertyProxyBaseI8MaterialESt14default_deleteIS3_EESaIS6_EED2Ev
FNDA:681,_ZNSt6vectorISt10unique_ptrI33OptionalMaterialPropertyProxyBaseI8MaterialESt14default_deleteIS3_EESaIS6_EED2Ev
FN:678,_ZNSt6vectorISt5tupleIJNSt7__cxx1112basic_stringIcSt11char_traitsIcESaIcEEEN5Moose23RelationshipManagerTypeESt8functionIFvRK15InputParametersRSA_EEEESaISG_EED2Ev
FNDA:0,_ZNSt6vectorISt5tupleIJNSt7__cxx1112basic_stringIcSt11char_traitsIcESaIcEEEN5Moose23RelationshipManagerTypeESt8functionIFvRK15InputParametersRSA_EEEESaISG_EED2Ev
FN:678,_ZNSt6vectorIS_ISt4pairIbN11MetaPhysicL10DualNumberIdNS1_28SemiDynamicSparseNumberArrayIdmNS1_8NWrapperILm64EEEEELb1EEEESaIS8_EESaISA_EED2Ev
FNDA:0,_ZNSt6vectorIS_ISt4pairIbN11MetaPhysicL10DualNumberIdNS1_28SemiDynamicSparseNumberArrayIdmNS1_8NWrapperILm64EEEEELb1EEEESaIS8_EESaISA_EED2Ev
FN:678,_ZNSt6vectorI20MaterialPropertyNameSaIS0_EED2Ev
FNDA:626,_ZNSt6vectorI20MaterialPropertyNameSaIS0_EED2Ev
FN:678,_ZNSt6vectorIS_ISt4pairIbdESaIS1_EESaIS3_EED2Ev
FNDA:0,_ZNSt6vectorIS_ISt4pairIbdESaIS1_EESaIS3_EED2Ev
FN:678,_ZNSt6vectorI34FunctionMaterialPropertyDescriptorILb1EESaIS1_EED2Ev
FNDA:306,_ZNSt6vectorI34FunctionMaterialPropertyDescriptorILb1EESaIS1_EED2Ev
FN:678,_ZNSt6vectorI12MaterialNameSaIS0_EED2Ev
FNDA:306,_ZNSt6vectorI12MaterialNameSaIS0_EED2Ev
FN:678,_ZNSt6vectorIN35DerivativeParsedMaterialHelperTemplILb1EE10DerivativeESaIS2_EED2Ev
FNDA:306,_ZNSt6vectorIN35DerivativeParsedMaterialHelperTemplILb1EE10DerivativeESaIS2_EED2Ev
FN:678,_ZNSt6vectorIN35DerivativeParsedMaterialHelperTemplILb1EE30MaterialPropertyDerivativeRuleESaIS2_EED2Ev
FNDA:306,_ZNSt6vectorIN35DerivativeParsedMaterialHelperTemplILb1EE30MaterialPropertyDerivativeRuleESaIS2_EED2Ev
FN:678,_ZNSt6vectorIS_ISt4pairIhhESaIS1_EESaIS3_EED2Ev
FNDA:0,_ZNSt6vectorIS_ISt4pairIhhESaIS1_EESaIS3_EED2Ev
FN:678,_ZNSt6vectorISt10unique_ptrI33OptionalMaterialPropertyProxyBaseI25MaterialPropertyInterfaceESt14default_deleteIS3_EESaIS6_EED2Ev
FNDA:0,_ZNSt6vectorISt10unique_ptrI33OptionalMaterialPropertyProxyBaseI25MaterialPropertyInterfaceESt14default_deleteIS3_EESaIS6_EED2Ev
FN:678,_ZNSt6vectorISt10unique_ptrI10MooseArrayIdESt14default_deleteIS2_EESaIS5_EED2Ev
FNDA:0,_ZNSt6vectorISt10unique_ptrI10MooseArrayIdESt14default_deleteIS2_EESaIS5_EED2Ev
FN:678,_ZNSt6vectorISt10unique_ptrI13PropertyValueSt14default_deleteIS1_EESaIS4_EED2Ev
FNDA:0,_ZNSt6vectorISt10unique_ptrI13PropertyValueSt14default_deleteIS1_EESaIS4_EED2Ev
FN:678,_ZNSt6vectorISt10shared_ptrI17RegistryEntryBaseESaIS2_EED2Ev
FNDA:0,_ZNSt6vectorISt10shared_ptrI17RegistryEntryBaseESaIS2_EED2Ev
FN:678,_ZNSt6vectorIS_IS_ISt4pairIhhESaIS1_EESaIS3_EESaIS5_EED2Ev
FNDA:0,_ZNSt6vectorIS_IS_ISt4pairIhhESaIS1_EESaIS3_EESaIS5_EED2Ev
FN:678,_ZNSt6vectorISt3setIP18MooseVariableFieldIdESt4lessIS3_ESaIS3_EESaIS7_EED2Ev
FNDA:0,_ZNSt6vectorISt3setIP18MooseVariableFieldIdESt4lessIS3_ESaIS3_EESaIS7_EED2Ev
FN:678,_ZNSt6vectorISt10unique_ptrIN5Moose15FunctorEnvelopeIN11MetaPhysicL10DualNumberIdNS3_28SemiDynamicSparseNumberArrayIdmNS3_8NWrapperILm64EEEEELb1EEEEESt14default_deleteISA_EESaISD_EED2Ev
FNDA:681,_ZNSt6vectorISt10unique_ptrIN5Moose15FunctorEnvelopeIN11MetaPhysicL10DualNumberIdNS3_28SemiDynamicSparseNumberArrayIdmNS3_8NWrapperILm64EEEEELb1EEEEESt14default_deleteISA_EESaISD_EED2Ev
FN:678,_ZNSt6vectorISt10unique_ptrIN5Moose15FunctorEnvelopeIdEESt14default_deleteIS3_EESaIS6_EED2Ev
FNDA:681,_ZNSt6vectorISt10unique_ptrIN5Moose15FunctorEnvelopeIdEESt14default_deleteIS3_EESaIS6_EED2Ev
FN:678,_ZNSt6vectorINSt7__cxx1112basic_stringIcSt11char_traitsIcESaIcEEESaIS5_EED2Ev
FNDA:1416,_ZNSt6vectorINSt7__cxx1112basic_stringIcSt11char_traitsIcESaIcEEESaIS5_EED2Ev
FN:678,_ZNSt6vectorI12FunctionNameSaIS0_EED2Ev
FNDA:0,_ZNSt6vectorI12FunctionNameSaIS0_EED2Ev
FN:678,_ZNSt6vectorIS_IaSaIaEESaIS1_EED2Ev
FNDA:0,_ZNSt6vectorIS_IaSaIaEESaIS1_EED2Ev
FN:678,_ZNSt6vectorIS_IS_IS_ISt4pairIhhESaIS1_EESaIS3_EESaIS5_EESaIS7_EED2Ev
FNDA:0,_ZNSt6vectorIS_IS_IS_ISt4pairIhhESaIS1_EESaIS3_EESaIS5_EESaIS7_EED2Ev
FN:678,_ZNSt6vectorIS_IS_IaSaIaEESaIS1_EESaIS3_EED2Ev
FNDA:0,_ZNSt6vectorIS_IS_IaSaIaEESaIS1_EESaIS3_EED2Ev
FN:678,_ZNSt6vectorI13SubdomainNameSaIS0_EED2Ev
FNDA:0,_ZNSt6vectorI13SubdomainNameSaIS0_EED2Ev
FN:730,_ZNSt6vectorINSt7__cxx1112basic_stringIcSt11char_traitsIcESaIcEEESaIS5_EEaSESt16initializer_listIS5_E
FNDA:722,_ZNSt6vectorINSt7__cxx1112basic_stringIcSt11char_traitsIcESaIcEEESaIS5_EEaSESt16initializer_listIS5_E
FN:937,_ZNSt6vectorIS_ISt4pairIbdESaIS1_EESaIS3_EE6resizeEm
FNDA:0,_ZNSt6vectorIS_ISt4pairIbdESaIS1_EESaIS3_EE6resizeEm
FN:937,_ZNSt6vectorIPK8FunctionSaIS2_EE6resizeEm
FNDA:0,_ZNSt6vectorIPK8FunctionSaIS2_EE6resizeEm
FN:937,_ZNSt6vectorIS_ISt4pairIbN11MetaPhysicL10DualNumberIdNS1_28SemiDynamicSparseNumberArrayIdmNS1_8NWrapperILm64EEEEELb1EEEESaIS8_EESaISA_EE6resizeEm
FNDA:0,_ZNSt6vectorIS_ISt4pairIbN11MetaPhysicL10DualNumberIdNS1_28SemiDynamicSparseNumberArrayIdmNS1_8NWrapperILm64EEEEELb1EEEESaIS8_EESaISA_EE6resizeEm
FN:937,_ZNSt6vectorISt10unique_ptrI13PropertyValueSt14default_deleteIS1_EESaIS4_EE6resizeEm
FNDA:0,_ZNSt6vectorISt10unique_ptrI13PropertyValueSt14default_deleteIS1_EESaIS4_EE6resizeEm
FN:957,_ZNSt6vectorISt4pairIbdESaIS1_EE6resizeEmRKS1_
FNDA:0,_ZNSt6vectorISt4pairIbdESaIS1_EE6resizeEmRKS1_
FN:957,_ZNSt6vectorISt4pairIbN11MetaPhysicL10DualNumberIdNS1_28SemiDynamicSparseNumberArrayIdmNS1_8NWrapperILm64EEEEELb1EEEESaIS8_EE6resizeEmRKS8_
FNDA:0,_ZNSt6vectorISt4pairIbN11MetaPhysicL10DualNumberIdNS1_28SemiDynamicSparseNumberArrayIdmNS1_8NWrapperILm64EEEEELb1EEEESaIS8_EE6resizeEmRKS8_
FN:1508,_ZNSt6vectorINSt7__cxx1112basic_stringIcSt11char_traitsIcESaIcEEESaIS5_EE20_M_allocate_and_copyIN9__gnu_cxx17__normal_iteratorIPKS5_S7_EEEEPS5_mT_SF_
FNDA:0,_ZNSt6vectorINSt7__cxx1112basic_stringIcSt11char_traitsIcESaIcEEESaIS5_EE20_M_allocate_and_copyIN9__gnu_cxx17__normal_iteratorIPKS5_S7_EEEEPS5_mT_SF_
FN:1508,_ZNSt6vectorI20MaterialPropertyNameSaIS0_EE20_M_allocate_and_copyIN9__gnu_cxx17__normal_iteratorIPKS0_S2_EEEEPS0_mT_SA_
FNDA:0,_ZNSt6vectorI20MaterialPropertyNameSaIS0_EE20_M_allocate_and_copyIN9__gnu_cxx17__normal_iteratorIPKS0_S2_EEEEPS0_mT_SA_
FN:1508,_ZNSt6vectorI12FunctionNameSaIS0_EE20_M_allocate_and_copyIN9__gnu_cxx17__normal_iteratorIPKS0_S2_EEEEPS0_mT_SA_
FNDA:0,_ZNSt6vectorI12FunctionNameSaIS0_EE20_M_allocate_and_copyIN9__gnu_cxx17__normal_iteratorIPKS0_S2_EEEEPS0_mT_SA_
FN:1508,_ZNSt6vectorINSt7__cxx1112basic_stringIcSt11char_traitsIcESaIcEEESaIS5_EE20_M_allocate_and_copyIPKS5_EEPS5_mT_SC_
FNDA:722,_ZNSt6vectorINSt7__cxx1112basic_stringIcSt11char_traitsIcESaIcEEESaIS5_EE20_M_allocate_and_copyIPKS5_EEPS5_mT_SC_
FN:1577,_ZNSt6vectorIdSaIdEE19_M_range_initializeIPKdEEvT_S5_St20forward_iterator_tag
FNDA:0,_ZNSt6vectorIdSaIdEE19_M_range_initializeIPKdEEvT_S5_St20forward_iterator_tag
FN:1577,_ZNSt6vectorINSt7__cxx1112basic_stringIcSt11char_traitsIcESaIcEEESaIS5_EE19_M_range_initializeIPKS5_EEvT_SB_St20forward_iterator_tag
FNDA:0,_ZNSt6vectorINSt7__cxx1112basic_stringIcSt11char_traitsIcESaIcEEESaIS5_EE19_M_range_initializeIPKS5_EEvT_SB_St20forward_iterator_tag
FN:1577,_ZNSt6vectorI20MaterialPropertyNameSaIS0_EE19_M_range_initializeIPKS0_EEvT_S6_St20forward_iterator_tag
FNDA:578,_ZNSt6vectorI20MaterialPropertyNameSaIS0_EE19_M_range_initializeIPKS0_EEvT_S6_St20forward_iterator_tag
FN:1603,_ZNSt6vectorIN11MetaPhysicL10DualNumberIdNS0_28SemiDynamicSparseNumberArrayIdmNS0_8NWrapperILm64EEEEELb1EEESaIS6_EE21_M_default_initializeEm
FNDA:0,_ZNSt6vectorIN11MetaPhysicL10DualNumberIdNS0_28SemiDynamicSparseNumberArrayIdmNS0_8NWrapperILm64EEEEELb1EEESaIS6_EE21_M_default_initializeEm
FN:1756,_ZNKSt6vectorISt4pairIbdESaIS1_EE12_M_check_lenEmPKc
FNDA:0,_ZNKSt6vectorISt4pairIbdESaIS1_EE12_M_check_lenEmPKc
FN:1756,_ZNKSt6vectorISt4pairIbN11MetaPhysicL10DualNumberIdNS1_28SemiDynamicSparseNumberArrayIdmNS1_8NWrapperILm64EEEEELb1EEEESaIS8_EE12_M_check_lenEmPKc
FNDA:0,_ZNKSt6vectorISt4pairIbN11MetaPhysicL10DualNumberIdNS1_28SemiDynamicSparseNumberArrayIdmNS1_8NWrapperILm64EEEEELb1EEEESaIS8_EE12_M_check_lenEmPKc
FN:1756,_ZNKSt6vectorIS_ISt4pairIbdESaIS1_EESaIS3_EE12_M_check_lenEmPKc
FNDA:0,_ZNKSt6vectorIS_ISt4pairIbdESaIS1_EESaIS3_EE12_M_check_lenEmPKc
FN:1756,_ZNKSt6vectorIS_ISt4pairIbN11MetaPhysicL10DualNumberIdNS1_28SemiDynamicSparseNumberArrayIdmNS1_8NWrapperILm64EEEEELb1EEEESaIS8_EESaISA_EE12_M_check_lenEmPKc
FNDA:0,_ZNKSt6vectorIS_ISt4pairIbN11MetaPhysicL10DualNumberIdNS1_28SemiDynamicSparseNumberArrayIdmNS1_8NWrapperILm64EEEEELb1EEEESaIS8_EESaISA_EE12_M_check_lenEmPKc
FN:1756,_ZNKSt6vectorIPK8FunctionSaIS2_EE12_M_check_lenEmPKc
FNDA:0,_ZNKSt6vectorIPK8FunctionSaIS2_EE12_M_check_lenEmPKc
FN:1756,_ZNKSt6vectorISt10unique_ptrI13PropertyValueSt14default_deleteIS1_EESaIS4_EE12_M_check_lenEmPKc
FNDA:0,_ZNKSt6vectorISt10unique_ptrI13PropertyValueSt14default_deleteIS1_EESaIS4_EE12_M_check_lenEmPKc
FN:1756,_ZNKSt6vectorIPK10MooseArrayIN11MetaPhysicL10DualNumberIdNS1_28SemiDynamicSparseNumberArrayIdmNS1_8NWrapperILm64EEEEELb1EEEESaISA_EE12_M_check_lenEmPKc
FNDA:0,_ZNKSt6vectorIPK10MooseArrayIN11MetaPhysicL10DualNumberIdNS1_28SemiDynamicSparseNumberArrayIdmNS1_8NWrapperILm64EEEEELb1EEEESaISA_EE12_M_check_lenEmPKc
FN:1756,_ZNKSt6vectorIPK10MooseArrayIN7libMesh11VectorValueIN11MetaPhysicL10DualNumberIdNS3_28SemiDynamicSparseNumberArrayIdmNS3_8NWrapperILm64EEEEELb1EEEEEESaISD_EE12_M_check_lenEmPKc
FNDA:66,_ZNKSt6vectorIPK10MooseArrayIN7libMesh11VectorValueIN11MetaPhysicL10DualNumberIdNS3_28SemiDynamicSparseNumberArrayIdmNS3_8NWrapperILm64EEEEELb1EEEEEESaISD_EE12_M_check_lenEmPKc
FN:1756,_ZNKSt6vectorISt10shared_ptrI17RegistryEntryBaseESaIS2_EE12_M_check_lenEmPKc
FNDA:0,_ZNKSt6vectorISt10shared_ptrI17RegistryEntryBaseESaIS2_EE12_M_check_lenEmPKc
FN:1792,_ZNSt6vectorINSt7__cxx1112basic_stringIcSt11char_traitsIcESaIcEEESaIS5_EE15_M_erase_at_endEPS5_
FNDA:0,_ZNSt6vectorINSt7__cxx1112basic_stringIcSt11char_traitsIcESaIcEEESaIS5_EE15_M_erase_at_endEPS5_
FN:1792,_ZNSt6vectorIS_ISt4pairIbdESaIS1_EESaIS3_EE15_M_erase_at_endEPS3_
FNDA:0,_ZNSt6vectorIS_ISt4pairIbdESaIS1_EESaIS3_EE15_M_erase_at_endEPS3_
FN:1792,_ZNSt6vectorISt10unique_ptrI13PropertyValueSt14default_deleteIS1_EESaIS4_EE15_M_erase_at_endEPS4_
FNDA:0,_ZNSt6vectorISt10unique_ptrI13PropertyValueSt14default_deleteIS1_EESaIS4_EE15_M_erase_at_endEPS4_
FN:1792,_ZNSt6vectorIS_ISt4pairIbN11MetaPhysicL10DualNumberIdNS1_28SemiDynamicSparseNumberArrayIdmNS1_8NWrapperILm64EEEEELb1EEEESaIS8_EESaISA_EE15_M_erase_at_endEPSA_
FNDA:0,_ZNSt6vectorIS_ISt4pairIbN11MetaPhysicL10DualNumberIdNS1_28SemiDynamicSparseNumberArrayIdmNS1_8NWrapperILm64EEEEELb1EEEESaIS8_EESaISA_EE15_M_erase_at_endEPSA_
FNF:112
FNH:38
DA:97,4586
DA:98,3042
DA:102,0
DA:103,0
DA:104,0
DA:105,0
DA:277,0
DA:305,48
DA:333,681
DA:336,681
DA:337,681
DA:333,681
DA:336,681
DA:337,681
DA:333,0
DA:336,0
DA:337,0
DA:333,0
DA:336,0
DA:337,0
DA:333,0
DA:336,0
DA:337,0
DA:333,0
DA:336,0
DA:337,0
DA:333,0
DA:336,0
DA:337,0
DA:333,0
DA:336,0
DA:337,0
DA:333,0
DA:336,0
DA:337,0
DA:333,0
DA:336,0
DA:337,0
DA:333,0
DA:336,0
DA:337,0
DA:333,681
DA:336,681
DA:337,681
DA:333,306
DA:336,306
DA:337,306
DA:333,0
DA:336,0
DA:337,0
DA:333,0
DA:336,0
DA:337,0
DA:333,0
DA:336,0
DA:337,0
DA:333,0
DA:336,0
DA:337,0
DA:333,306
DA:336,306
DA:337,306
DA:333,657
DA:336,657
DA:337,657
DA:333,1293
DA:336,1293
DA:337,1293
DA:333,0
DA:336,0
DA:337,0
DA:333,0
DA:336,0
DA:337,0
DA:333,987
DA:336,987
DA:337,987
DA:333,1416
DA:336,1416
DA:337,1416
DA:333,0
DA:336,0
DA:337,0
DA:333,0
DA:336,0
DA:337,0
DA:333,0
DA:336,0
DA:337,0
DA:333,0
DA:336,0
DA:337,0
DA:333,0
DA:336,0
DA:337,0
DA:333,0
DA:336,0
DA:337,0
DA:333,0
DA:335,0
DA:336,0
DA:337,0
DA:333,0
DA:336,0
DA:337,0
DA:333,0
DA:336,0
DA:337,0
DA:333,0
DA:336,0
DA:337,0
DA:333,0
DA:336,0
DA:337,0
DA:333,0
DA:336,0
DA:337,0
DA:333,0
DA:336,0
DA:337,0
DA:333,306
DA:336,306
DA:337,306
DA:333,306
DA:336,306
DA:337,306
DA:333,306
DA:336,306
DA:337,306
DA:333,306
DA:336,306
DA:337,306
DA:333,306
DA:336,306
DA:337,306
DA:333,306
DA:336,306
DA:337,306
DA:333,306
DA:336,306
DA:337,306
DA:333,48
DA:336,48
DA:337,48
DA:333,626
DA:336,626
DA:337,626
DA:333,48
DA:336,48
DA:337,48
DA:333,354
DA:336,354
DA:337,354
DA:346,1780
DA:353,11014
DA:359,918
DA:361,918
DA:362,918
DA:363,918
DA:364,918
DA:359,48
DA:361,48
DA:362,48
DA:363,48
DA:364,48
DA:359,0
DA:361,0
DA:362,0
DA:363,0
DA:364,0
DA:359,0
DA:361,0
DA:362,0
DA:363,0
DA:364,0
DA:465,0
DA:469,0
DA:510,48
DA:511,48
DA:512,48
DA:510,0
DA:511,0
DA:512,0
DA:510,0
DA:511,0
DA:512,0
DA:553,918
DA:555,0
DA:557,918
DA:558,918
DA:561,918
DA:625,578
DA:627,578
DA:629,578
DA:631,578
DA:625,0
DA:627,0
DA:629,0
DA:631,0
DA:625,0
DA:627,0
DA:629,0
DA:631,0
DA:678,306
DA:680,306
DA:683,306
DA:678,1416
DA:680,1416
DA:683,1416
DA:678,0
DA:680,0
DA:683,0
DA:678,0
DA:680,0
DA:683,0
DA:678,0
DA:680,0
DA:683,0
DA:678,681
DA:680,681
DA:683,681
DA:678,681
DA:680,681
DA:683,681
DA:678,0
DA:680,0
DA:683,0
DA:678,0
DA:680,0
DA:683,0
DA:678,0
DA:680,0
DA:683,0
DA:678,681
DA:680,681
DA:683,681
DA:678,626
DA:680,626
DA:683,626
DA:678,0
DA:680,0
DA:683,0
DA:678,306
DA:680,306
DA:683,306
DA:678,306
DA:680,306
DA:683,306
DA:678,306
DA:680,306
DA:683,306
DA:678,0
DA:680,0
DA:683,0
DA:678,0
DA:680,0
DA:683,0
DA:678,0
DA:680,0
DA:683,0
DA:678,0
DA:680,0
DA:683,0
DA:678,0
DA:680,0
DA:683,0
DA:678,0
DA:680,0
DA:683,0
DA:678,0
DA:680,0
DA:683,0
DA:678,0
DA:680,0
DA:683,0
DA:683,351
DA:730,722
DA:732,722
DA:734,722
DA:919,685003
DA:937,0
DA:939,0
DA:940,0
DA:941,0
DA:942,0
DA:943,0
DA:937,0
DA:939,0
DA:940,0
DA:941,0
DA:942,0
DA:943,0
DA:937,0
DA:939,0
DA:940,0
DA:941,0
DA:942,0
DA:943,0
DA:937,0
DA:939,0
DA:940,0
DA:941,0
DA:942,0
DA:943,0
DA:957,0
DA:959,0
DA:960,0
DA:961,0
DA:962,0
DA:963,0
DA:957,0
DA:959,0
DA:960,0
DA:961,0
DA:962,0
DA:963,0
DA:999,722
DA:1000,722
DA:1046,11330671
DA:1064,138
DA:1204,1129
DA:1508,0
DA:1514,0
DA:1516,0
DA:1518,0
DA:1521,0
DA:1508,0
DA:1514,0
DA:1516,0
DA:1518,0
DA:1521,0
DA:1508,722
DA:1516,722
DA:1518,0
DA:1521,0
DA:1508,0
DA:1514,0
DA:1516,0
DA:1518,0
DA:1521,0
DA:1577,578
DA:1580,578
DA:1582,578
DA:1583,578
DA:1584,578
DA:1588,578
DA:1577,0
DA:1580,0
DA:1582,0
DA:1583,0
DA:1584,0
DA:1588,0
DA:1577,0
DA:1580,0
DA:1582,0
DA:1583,0
DA:1584,0
DA:1588,0
DA:1603,0
DA:1605,48
DA:1606,48
DA:1608,0
DA:1709,0
DA:1716,0
DA:1756,0
DA:1758,0
DA:1759,0
DA:1761,0
DA:1762,0
DA:1756,0
DA:1758,0
DA:1759,0
DA:1761,0
DA:1762,0
DA:1756,0
DA:1758,0
DA:1759,0
DA:1761,0
DA:1762,0
DA:1756,0
DA:1758,0
DA:1759,0
DA:1761,0
DA:1762,0
DA:1756,0
DA:1758,0
DA:1759,0
DA:1761,0
DA:1762,0
DA:1756,66
DA:1758,66
DA:1759,0
DA:1761,66
DA:1762,66
DA:1756,0
DA:1758,0
DA:1759,0
DA:1761,0
DA:1762,0
DA:1756,0
DA:1758,0
DA:1759,0
DA:1761,0
DA:1762,0
DA:1756,0
DA:1758,0
DA:1759,0
DA:1761,0
DA:1762,0
DA:1769,1348
DA:1770,0
DA:1792,0
DA:1794,0
DA:1798,0
DA:1801,0
DA:1792,0
DA:1794,0
DA:1798,0
DA:1801,0
DA:1792,0
DA:1794,0
DA:1798,0
DA:1801,0
DA:1792,0
DA:1794,0
DA:1798,0
DA:1801,0
DA:1794,0
DA:1798,0
LF:429
LH:138
end_of_record
SF:/home/runner/work/raccoon/raccoon/src/materials/ArrheniusLaw.C
FN:10,_ZN12ArrheniusLaw11validParamsEv
FNDA:142,_ZN12ArrheniusLaw11validParamsEv
FN:27,_ZN12ArrheniusLawC2ERK15InputParameters
FNDA:12,_ZN12ArrheniusLawC2ERK15InputParameters
FN:42,_ZN12ArrheniusLaw19computeQpPropertiesEv
FNDA:33336,_ZN12ArrheniusLaw19computeQpPropertiesEv
FNF:3
FNH:3
DA:10,142
DA:12,142
DA:13,142
DA:14,142
DA:18,284
DA:20,284
DA:21,284
DA:22,284
DA:24,142
DA:27,12
DA:31,24
DA:32,12
DA:34,48
DA:35,24
DA:36,12
DA:37,72
DA:39,12
DA:42,33336
DA:44,66672
DA:45,66672
DA:46,33336
LF:21
LH:21
end_of_record
SF:/home/runner/micromamba/envs/moose/x86_64-conda-linux-gnu/include/c++/10.4.0/bits/unique_ptr.h
FN:79,_ZNKSt14default_deleteI10MooseArrayIdEEclEPS1_
FNDA:0,_ZNKSt14default_deleteI10MooseArrayIdEEclEPS1_
FN:79,_ZNKSt14default_deleteI10MooseArrayIN11MetaPhysicL10DualNumberIdNS1_28SemiDynamicSparseNumberArrayIdmNS1_8NWrapperILm64EEEEELb1EEEEEclEPS8_
FNDA:0,_ZNKSt14default_deleteI10MooseArrayIN11MetaPhysicL10DualNumberIdNS1_28SemiDynamicSparseNumberArrayIdmNS1_8NWrapperILm64EEEEELb1EEEEEclEPS8_
FN:79,_ZNKSt14default_deleteI10MooseArrayIN7libMesh11VectorValueIdEEEEclEPS4_
FNDA:0,_ZNKSt14default_deleteI10MooseArrayIN7libMesh11VectorValueIdEEEEclEPS4_
FN:79,_ZNKSt14default_deleteI10MooseArrayIN5Eigen6MatrixIdLin1ELi1ELi0ELin1ELi1EEEEEclEPS4_
FNDA:0,_ZNKSt14default_deleteI10MooseArrayIN5Eigen6MatrixIdLin1ELi1ELi0ELin1ELi1EEEEEclEPS4_
FN:79,_ZNKSt14default_deleteI10MooseArrayIN7libMesh11VectorValueIN11MetaPhysicL10DualNumberIdNS3_28SemiDynamicSparseNumberArrayIdmNS3_8NWrapperILm64EEEEELb1EEEEEEEclEPSB_
FNDA:0,_ZNKSt14default_deleteI10MooseArrayIN7libMesh11VectorValueIN11MetaPhysicL10DualNumberIdNS3_28SemiDynamicSparseNumberArrayIdmNS3_8NWrapperILm64EEEEELb1EEEEEEEclEPSB_
FN:116,_ZNKSt14default_deleteIA_N11MetaPhysicL10DualNumberIdNS0_28SemiDynamicSparseNumberArrayIdmNS0_8NWrapperILm64EEEEELb1EEEEclIS6_EENSt9enable_ifIXsrSt14is_convertibleIPA_T_PS7_E5valueEvE4typeEPSC_
FNDA:0,_ZNKSt14default_deleteIA_N11MetaPhysicL10DualNumberIdNS0_28SemiDynamicSparseNumberArrayIdmNS0_8NWrapperILm64EEEEELb1EEEEclIS6_EENSt9enable_ifIXsrSt14is_convertibleIPA_T_PS7_E5valueEvE4typeEPSC_
FN:116,_ZNKSt14default_deleteIA_18RankTwoTensorTemplIN11MetaPhysicL10DualNumberIdNS1_28SemiDynamicSparseNumberArrayIdmNS1_8NWrapperILm64EEEEELb1EEEEEclIS8_EENSt9enable_ifIXsrSt14is_convertibleIPA_T_PS9_E5valueEvE4typeEPSE_
FNDA:0,_ZNKSt14default_deleteIA_18RankTwoTensorTemplIN11MetaPhysicL10DualNumberIdNS1_28SemiDynamicSparseNumberArrayIdmNS1_8NWrapperILm64EEEEELb1EEEEEclIS8_EENSt9enable_ifIXsrSt14is_convertibleIPA_T_PS9_E5valueEvE4typeEPSE_
FN:116,_ZNKSt14default_deleteIA_18RankTwoTensorTemplIdEEclIS1_EENSt9enable_ifIXsrSt14is_convertibleIPA_T_PS2_E5valueEvE4typeEPS7_
FNDA:0,_ZNKSt14default_deleteIA_18RankTwoTensorTemplIdEEclIS1_EENSt9enable_ifIXsrSt14is_convertibleIPA_T_PS2_E5valueEvE4typeEPS7_
FN:116,_ZNKSt14default_deleteIA_N5Eigen6MatrixIdLin1ELi1ELi0ELin1ELi1EEEEclIS2_EENSt9enable_ifIXsrSt14is_convertibleIPA_T_PS3_E5valueEvE4typeEPS8_
FNDA:0,_ZNKSt14default_deleteIA_N5Eigen6MatrixIdLin1ELi1ELi0ELin1ELi1EEEEclIS2_EENSt9enable_ifIXsrSt14is_convertibleIPA_T_PS3_E5valueEvE4typeEPS8_
FN:116,_ZNKSt14default_deleteIA_N7libMesh11TensorValueIdEEEclIS2_EENSt9enable_ifIXsrSt14is_convertibleIPA_T_PS3_E5valueEvE4typeEPS8_
FNDA:0,_ZNKSt14default_deleteIA_N7libMesh11TensorValueIdEEEclIS2_EENSt9enable_ifIXsrSt14is_convertibleIPA_T_PS3_E5valueEvE4typeEPS8_
FN:116,_ZNKSt14default_deleteIA_N7libMesh11TensorValueIN11MetaPhysicL10DualNumberIdNS2_28SemiDynamicSparseNumberArrayIdmNS2_8NWrapperILm64EEEEELb1EEEEEEclIS9_EENSt9enable_ifIXsrSt14is_convertibleIPA_T_PSA_E5valueEvE4typeEPSF_
FNDA:0,_ZNKSt14default_deleteIA_N7libMesh11TensorValueIN11MetaPhysicL10DualNumberIdNS2_28SemiDynamicSparseNumberArrayIdmNS2_8NWrapperILm64EEEEELb1EEEEEEclIS9_EENSt9enable_ifIXsrSt14is_convertibleIPA_T_PSA_E5valueEvE4typeEPSF_
FN:116,_ZNKSt14default_deleteIA_N7libMesh11VectorValueIN11MetaPhysicL10DualNumberIdNS2_28SemiDynamicSparseNumberArrayIdmNS2_8NWrapperILm64EEEEELb1EEEEEEclIS9_EENSt9enable_ifIXsrSt14is_convertibleIPA_T_PSA_E5valueEvE4typeEPSF_
FNDA:0,_ZNKSt14default_deleteIA_N7libMesh11VectorValueIN11MetaPhysicL10DualNumberIdNS2_28SemiDynamicSparseNumberArrayIdmNS2_8NWrapperILm64EEEEELb1EEEEEEclIS9_EENSt9enable_ifIXsrSt14is_convertibleIPA_T_PSA_E5valueEvE4typeEPSF_
FN:116,_ZNKSt14default_deleteIA_N5Eigen6MatrixIdLin1ELi3ELi0ELin1ELi3EEEEclIS2_EENSt9enable_ifIXsrSt14is_convertibleIPA_T_PS3_E5valueEvE4typeEPS8_
FNDA:0,_ZNKSt14default_deleteIA_N5Eigen6MatrixIdLin1ELi3ELi0ELin1ELi3EEEEclIS2_EENSt9enable_ifIXsrSt14is_convertibleIPA_T_PS3_E5valueEvE4typeEPS8_
FN:165,_ZNSt15__uniq_ptr_implI13PropertyValueSt14default_deleteIS0_EEaSEOS3_
FNDA:0,_ZNSt15__uniq_ptr_implI13PropertyValueSt14default_deleteIS0_EEaSEOS3_
FN:165,_ZNSt15__uniq_ptr_implIN7libMesh10Parameters5ValueESt14default_deleteIS2_EEaSEOS5_
FNDA:0,_ZNSt15__uniq_ptr_implIN7libMesh10Parameters5ValueESt14default_deleteIS2_EEaSEOS5_
FN:355,_ZNSt10unique_ptrIN5Moose11FunctorBaseIdEESt14default_deleteIS2_EED2Ev
FNDA:0,_ZNSt10unique_ptrIN5Moose11FunctorBaseIdEESt14default_deleteIS2_EED2Ev
FN:355,_ZNSt10unique_ptrI27RationalDegradationFunctionSt14default_deleteIS0_EED2Ev
FNDA:111,_ZNSt10unique_ptrI27RationalDegradationFunctionSt14default_deleteIS0_EED2Ev
FN:355,_ZNSt10unique_ptrI10MooseArrayIdESt14default_deleteIS1_EED2Ev
FNDA:0,_ZNSt10unique_ptrI10MooseArrayIdESt14default_deleteIS1_EED2Ev
FN:355,_ZNSt10unique_ptrI10MooseArrayIN11MetaPhysicL10DualNumberIdNS1_28SemiDynamicSparseNumberArrayIdmNS1_8NWrapperILm64EEEEELb1EEEESt14default_deleteIS8_EED2Ev
FNDA:0,_ZNSt10unique_ptrI10MooseArrayIN11MetaPhysicL10DualNumberIdNS1_28SemiDynamicSparseNumberArrayIdmNS1_8NWrapperILm64EEEEELb1EEEESt14default_deleteIS8_EED2Ev
FN:355,_ZNSt10unique_ptrIdSt14default_deleteIdEED2Ev
FNDA:0,_ZNSt10unique_ptrIdSt14default_deleteIdEED2Ev
FN:355,_ZNSt10unique_ptrI10MooseArrayIN7libMesh11VectorValueIdEEESt14default_deleteIS4_EED2Ev
FNDA:0,_ZNSt10unique_ptrI10MooseArrayIN7libMesh11VectorValueIdEEESt14default_deleteIS4_EED2Ev
FN:355,_ZNSt10unique_ptrI10MooseArrayIN5Eigen6MatrixIdLin1ELi1ELi0ELin1ELi1EEEESt14default_deleteIS4_EED2Ev
FNDA:0,_ZNSt10unique_ptrI10MooseArrayIN5Eigen6MatrixIdLin1ELi1ELi0ELin1ELi1EEEESt14default_deleteIS4_EED2Ev
FN:355,_ZNSt10unique_ptrI10MooseArrayIN7libMesh11VectorValueIN11MetaPhysicL10DualNumberIdNS3_28SemiDynamicSparseNumberArrayIdmNS3_8NWrapperILm64EEEEELb1EEEEEESt14default_deleteISB_EED2Ev
FNDA:0,_ZNSt10unique_ptrI10MooseArrayIN7libMesh11VectorValueIN11MetaPhysicL10DualNumberIdNS3_28SemiDynamicSparseNumberArrayIdmNS3_8NWrapperILm64EEEEELb1EEEEEESt14default_deleteISB_EED2Ev
FN:355,_ZNSt10unique_ptrIN7libMesh10Parameters5ValueESt14default_deleteIS2_EED2Ev
FNDA:0,_ZNSt10unique_ptrIN7libMesh10Parameters5ValueESt14default_deleteIS2_EED2Ev
FN:355,_ZNSt10unique_ptrIN5Moose11FunctorBaseIN11MetaPhysicL10DualNumberIdNS2_28SemiDynamicSparseNumberArrayIdmNS2_8NWrapperILm64EEEEELb1EEEEESt14default_deleteIS9_EED2Ev
FNDA:0,_ZNSt10unique_ptrIN5Moose11FunctorBaseIN11MetaPhysicL10DualNumberIdNS2_28SemiDynamicSparseNumberArrayIdmNS2_8NWrapperILm64EEEEELb1EEEEESt14default_deleteIS9_EED2Ev
FN:355,_ZNSt10unique_ptrI28SmallDeformationJ2PlasticitySt14default_deleteIS0_EED2Ev
FNDA:6,_ZNSt10unique_ptrI28SmallDeformationJ2PlasticitySt14default_deleteIS0_EED2Ev
FN:355,_ZNSt10unique_ptrI35SmallDeformationIsotropicElasticitySt14default_deleteIS0_EED2Ev
FNDA:54,_ZNSt10unique_ptrI35SmallDeformationIsotropicElasticitySt14default_deleteIS0_EED2Ev
FN:355,_ZNSt10unique_ptrI29ComputeSmallDeformationStressSt14default_deleteIS0_EED2Ev
FNDA:54,_ZNSt10unique_ptrI29ComputeSmallDeformationStressSt14default_deleteIS0_EED2Ev
FN:355,_ZNSt10unique_ptrIN7libMesh10Parameters9ParameterIjEESt14default_deleteIS3_EED2Ev
FNDA:0,_ZNSt10unique_ptrIN7libMesh10Parameters9ParameterIjEESt14default_deleteIS3_EED2Ev
FN:355,_ZNSt10unique_ptrINSt13__future_base12_Result_baseENS1_8_DeleterEED2Ev
FNDA:0,_ZNSt10unique_ptrINSt13__future_base12_Result_baseENS1_8_DeleterEED2Ev
FN:355,_ZNSt10unique_ptrIN7libMesh10Parameters9ParameterIP13FEProblemBaseEESt14default_deleteIS5_EED2Ev
FNDA:0,_ZNSt10unique_ptrIN7libMesh10Parameters9ParameterIP13FEProblemBaseEESt14default_deleteIS5_EED2Ev
FN:355,_ZNSt10unique_ptrIN7libMesh10Parameters9ParameterIdEESt14default_deleteIS3_EED2Ev
FNDA:0,_ZNSt10unique_ptrIN7libMesh10Parameters9ParameterIdEESt14default_deleteIS3_EED2Ev
FN:355,_ZNSt10unique_ptrIN7libMesh10Parameters9ParameterI20MaterialPropertyNameEESt14default_deleteIS4_EED2Ev
FNDA:0,_ZNSt10unique_ptrIN7libMesh10Parameters9ParameterI20MaterialPropertyNameEESt14default_deleteIS4_EED2Ev
FN:355,_ZNSt10unique_ptrIN7libMesh10Parameters9ParameterISt6vectorI12FunctionNameSaIS4_EEEESt14default_deleteIS7_EED2Ev
FNDA:0,_ZNSt10unique_ptrIN7libMesh10Parameters9ParameterISt6vectorI12FunctionNameSaIS4_EEEESt14default_deleteIS7_EED2Ev
FN:355,_ZNSt10unique_ptrIN7libMesh10Parameters9ParameterI12FunctionNameEESt14default_deleteIS4_EED2Ev
FNDA:0,_ZNSt10unique_ptrIN7libMesh10Parameters9ParameterI12FunctionNameEESt14default_deleteIS4_EED2Ev
FN:355,_ZNSt10unique_ptrIN7libMesh10Parameters9ParameterIbEESt14default_deleteIS3_EED2Ev
FNDA:0,_ZNSt10unique_ptrIN7libMesh10Parameters9ParameterIbEESt14default_deleteIS3_EED2Ev
FN:355,_ZNSt10unique_ptrIN7libMesh10Parameters9ParameterI12MaterialNameEESt14default_deleteIS4_EED2Ev
FNDA:1460,_ZNSt10unique_ptrIN7libMesh10Parameters9ParameterI12MaterialNameEESt14default_deleteIS4_EED2Ev
FN:355,_ZNSt10unique_ptrIN7libMesh10Parameters9ParameterINSt7__cxx1112basic_stringIcSt11char_traitsIcESaIcEEEEESt14default_deleteIS9_EED2Ev
FNDA:0,_ZNSt10unique_ptrIN7libMesh10Parameters9ParameterINSt7__cxx1112basic_stringIcSt11char_traitsIcESaIcEEEEESt14default_deleteIS9_EED2Ev
FN:355,_ZNSt10unique_ptrI16MaterialPropertyI18RankTwoTensorTemplIdEESt14default_deleteIS3_EED2Ev
FNDA:0,_ZNSt10unique_ptrI16MaterialPropertyI18RankTwoTensorTemplIdEESt14default_deleteIS3_EED2Ev
FN:355,_ZNSt10unique_ptrIN7libMesh10Parameters9ParameterISt6vectorINSt7__cxx1112basic_stringIcSt11char_traitsIcESaIcEEESaIS9_EEEESt14default_deleteISC_EED2Ev
FNDA:0,_ZNSt10unique_ptrIN7libMesh10Parameters9ParameterISt6vectorINSt7__cxx1112basic_stringIcSt11char_traitsIcESaIcEEESaIS9_EEEESt14default_deleteISC_EED2Ev
FN:355,_ZNSt10unique_ptrI18ADMaterialPropertyIdESt14default_deleteIS1_EED2Ev
FNDA:0,_ZNSt10unique_ptrI18ADMaterialPropertyIdESt14default_deleteIS1_EED2Ev
FN:355,_ZNSt10unique_ptrIN7libMesh10Parameters9ParameterI9MooseEnumEESt14default_deleteIS4_EED2Ev
FNDA:0,_ZNSt10unique_ptrIN7libMesh10Parameters9ParameterI9MooseEnumEESt14default_deleteIS4_EED2Ev
FN:355,_ZNSt10unique_ptrIN7libMesh10Parameters9ParameterISt6vectorI20MaterialPropertyNameSaIS4_EEEESt14default_deleteIS7_EED2Ev
FNDA:0,_ZNSt10unique_ptrIN7libMesh10Parameters9ParameterISt6vectorI20MaterialPropertyNameSaIS4_EEEESt14default_deleteIS7_EED2Ev
FN:355,_ZNSt10unique_ptrI13PropertyValueSt14default_deleteIS0_EED2Ev
FNDA:0,_ZNSt10unique_ptrI13PropertyValueSt14default_deleteIS0_EED2Ev
FN:355,_ZNSt10unique_ptrI16MaterialPropertyIdESt14default_deleteIS1_EED2Ev
FNDA:0,_ZNSt10unique_ptrI16MaterialPropertyIdESt14default_deleteIS1_EED2Ev
FN:355,_ZNSt10unique_ptrI33OptionalMaterialPropertyProxyBaseI25MaterialPropertyInterfaceESt14default_deleteIS2_EED2Ev
FNDA:0,_ZNSt10unique_ptrI33OptionalMaterialPropertyProxyBaseI25MaterialPropertyInterfaceESt14default_deleteIS2_EED2Ev
FN:355,_ZNSt10unique_ptrI33OptionalMaterialPropertyProxyBaseI8MaterialESt14default_deleteIS2_EED2Ev
FNDA:0,_ZNSt10unique_ptrI33OptionalMaterialPropertyProxyBaseI8MaterialESt14default_deleteIS2_EED2Ev
FN:355,_ZNSt10unique_ptrI18ADMaterialPropertyI18RankTwoTensorTemplIdEESt14default_deleteIS3_EED2Ev
FNDA:0,_ZNSt10unique_ptrI18ADMaterialPropertyI18RankTwoTensorTemplIdEESt14default_deleteIS3_EED2Ev
FN:355,_ZNSt10unique_ptrI23KLRNucleationMicroForceSt14default_deleteIS0_EED2Ev
FNDA:3,_ZNSt10unique_ptrI23KLRNucleationMicroForceSt14default_deleteIS0_EED2Ev
FN:355,_ZNSt10unique_ptrI26ComputeDeformationGradientSt14default_deleteIS0_EED2Ev
FNDA:48,_ZNSt10unique_ptrI26ComputeDeformationGradientSt14default_deleteIS0_EED2Ev
FN:355,_ZNSt10unique_ptrI15PressureDensitySt14default_deleteIS0_EED2Ev
FNDA:6,_ZNSt10unique_ptrI15PressureDensitySt14default_deleteIS0_EED2Ev
FN:355,_ZNSt10unique_ptrI29ComputeLargeDeformationStressSt14default_deleteIS0_EED2Ev
FNDA:48,_ZNSt10unique_ptrI29ComputeLargeDeformationStressSt14default_deleteIS0_EED2Ev
FN:355,_ZNSt10unique_ptrI22CNHIsotropicElasticitySt14default_deleteIS0_EED2Ev
FNDA:3,_ZNSt10unique_ptrI22CNHIsotropicElasticitySt14default_deleteIS0_EED2Ev
FN:355,_ZNSt10unique_ptrI25HenckyIsotropicElasticitySt14default_deleteIS0_EED2Ev
FNDA:45,_ZNSt10unique_ptrI25HenckyIsotropicElasticitySt14default_deleteIS0_EED2Ev
FN:355,_ZNSt10unique_ptrI19CrackSurfaceDensitySt14default_deleteIS0_EED2Ev
FNDA:0,_ZNSt10unique_ptrI19CrackSurfaceDensitySt14default_deleteIS0_EED2Ev
FN:355,_ZNSt10unique_ptrI28LargeDeformationJ2PlasticitySt14default_deleteIS0_EED2Ev
FNDA:33,_ZNSt10unique_ptrI28LargeDeformationJ2PlasticitySt14default_deleteIS0_EED2Ev
FN:355,_ZNSt10unique_ptrI20ExponentialHardeningSt14default_deleteIS0_EED2Ev
FNDA:3,_ZNSt10unique_ptrI20ExponentialHardeningSt14default_deleteIS0_EED2Ev
FN:355,_ZNSt10unique_ptrI31LargeDeformationJ2PowerLawCreepSt14default_deleteIS0_EED2Ev
FNDA:6,_ZNSt10unique_ptrI31LargeDeformationJ2PowerLawCreepSt14default_deleteIS0_EED2Ev
FN:355,_ZNSt10unique_ptrI47ComputeThermalExpansionEigenDeformationGradientSt14default_deleteIS0_EED2Ev
FNDA:3,_ZNSt10unique_ptrI47ComputeThermalExpansionEigenDeformationGradientSt14default_deleteIS0_EED2Ev
FN:355,_ZNSt10unique_ptrI34LargeDeformationNewtonianViscositySt14default_deleteIS0_EED2Ev
FNDA:3,_ZNSt10unique_ptrI34LargeDeformationNewtonianViscositySt14default_deleteIS0_EED2Ev
FN:355,_ZNSt10unique_ptrI24KLBFNucleationMicroForceSt14default_deleteIS0_EED2Ev
FNDA:3,_ZNSt10unique_ptrI24KLBFNucleationMicroForceSt14default_deleteIS0_EED2Ev
FN:355,_ZNSt10unique_ptrI43ComputeEigenstrainFromFunctionInitialStressSt14default_deleteIS0_EED2Ev
FNDA:0,_ZNSt10unique_ptrI43ComputeEigenstrainFromFunctionInitialStressSt14default_deleteIS0_EED2Ev
FN:355,_ZNSt10unique_ptrI17PowerLawHardeningSt14default_deleteIS0_EED2Ev
FNDA:21,_ZNSt10unique_ptrI17PowerLawHardeningSt14default_deleteIS0_EED2Ev
FN:355,_ZNSt10unique_ptrI21ArrheniusLawHardeningSt14default_deleteIS0_EED2Ev
FNDA:12,_ZNSt10unique_ptrI21ArrheniusLawHardeningSt14default_deleteIS0_EED2Ev
FN:355,_ZNSt10unique_ptrI12ArrheniusLawSt14default_deleteIS0_EED2Ev
FNDA:12,_ZNSt10unique_ptrI12ArrheniusLawSt14default_deleteIS0_EED2Ev
FN:355,_ZNSt10unique_ptrI23LDLNucleationMicroForceSt14default_deleteIS0_EED2Ev
FNDA:3,_ZNSt10unique_ptrI23LDLNucleationMicroForceSt14default_deleteIS0_EED2Ev
FN:355,_ZNSt10unique_ptrI20JohnsonCookHardeningSt14default_deleteIS0_EED2Ev
FNDA:3,_ZNSt10unique_ptrI20JohnsonCookHardeningSt14default_deleteIS0_EED2Ev
FN:355,_ZNSt10unique_ptrI13NoDegradationSt14default_deleteIS0_EED2Ev
FNDA:21,_ZNSt10unique_ptrI13NoDegradationSt14default_deleteIS0_EED2Ev
FN:355,_ZNSt10unique_ptrI22CrackGeometricFunctionSt14default_deleteIS0_EED2Ev
FNDA:138,_ZNSt10unique_ptrI22CrackGeometricFunctionSt14default_deleteIS0_EED2Ev
FN:355,_ZNSt10unique_ptrI15LinearHardeningSt14default_deleteIS0_EED2Ev
FNDA:6,_ZNSt10unique_ptrI15LinearHardeningSt14default_deleteIS0_EED2Ev
FN:355,_ZNSt10unique_ptrI30ThinFilmInterfaceEnergyDensitySt14default_deleteIS0_EED2Ev
FNDA:0,_ZNSt10unique_ptrI30ThinFilmInterfaceEnergyDensitySt14default_deleteIS0_EED2Ev
FN:355,_ZNSt10unique_ptrI24PowerDegradationFunctionSt14default_deleteIS0_EED2Ev
FNDA:36,_ZNSt10unique_ptrI24PowerDegradationFunctionSt14default_deleteIS0_EED2Ev
FN:386,_ZNSt10unique_ptrIN7libMesh10Parameters5ValueESt14default_deleteIS2_EEaSINS1_9ParameterISt6vectorI12FunctionNameSaIS9_EEEES3_ISC_EEENSt9enable_ifIXsrSt6__and_IJSF_IJSt14is_convertibleINS_IT_T0_E7pointerEPS2_ESt6__not_ISt8is_arrayISH_EEEESt13is_assignableIRS4_OSI_EEE5valueERS5_E4typeEOSJ_
FNDA:0,_ZNSt10unique_ptrIN7libMesh10Parameters5ValueESt14default_deleteIS2_EEaSINS1_9ParameterISt6vectorI12FunctionNameSaIS9_EEEES3_ISC_EEENSt9enable_ifIXsrSt6__and_IJSF_IJSt14is_convertibleINS_IT_T0_E7pointerEPS2_ESt6__not_ISt8is_arrayISH_EEEESt13is_assignableIRS4_OSI_EEE5valueERS5_E4typeEOSJ_
FN:386,_ZNSt10unique_ptrIN7libMesh10Parameters5ValueESt14default_deleteIS2_EEaSINS1_9ParameterIdEES3_IS8_EEENSt9enable_ifIXsrSt6__and_IJSB_IJSt14is_convertibleINS_IT_T0_E7pointerEPS2_ESt6__not_ISt8is_arrayISD_EEEESt13is_assignableIRS4_OSE_EEE5valueERS5_E4typeEOSF_
FNDA:0,_ZNSt10unique_ptrIN7libMesh10Parameters5ValueESt14default_deleteIS2_EEaSINS1_9ParameterIdEES3_IS8_EEENSt9enable_ifIXsrSt6__and_IJSB_IJSt14is_convertibleINS_IT_T0_E7pointerEPS2_ESt6__not_ISt8is_arrayISD_EEEESt13is_assignableIRS4_OSE_EEE5valueERS5_E4typeEOSF_
FN:386,_ZNSt10unique_ptrIN7libMesh10Parameters5ValueESt14default_deleteIS2_EEaSINS1_9ParameterI9MooseEnumEES3_IS9_EEENSt9enable_ifIXsrSt6__and_IJSC_IJSt14is_convertibleINS_IT_T0_E7pointerEPS2_ESt6__not_ISt8is_arrayISE_EEEESt13is_assignableIRS4_OSF_EEE5valueERS5_E4typeEOSG_
FNDA:0,_ZNSt10unique_ptrIN7libMesh10Parameters5ValueESt14default_deleteIS2_EEaSINS1_9ParameterI9MooseEnumEES3_IS9_EEENSt9enable_ifIXsrSt6__and_IJSC_IJSt14is_convertibleINS_IT_T0_E7pointerEPS2_ESt6__not_ISt8is_arrayISE_EEEESt13is_assignableIRS4_OSF_EEE5valueERS5_E4typeEOSG_
FN:386,_ZNSt10unique_ptrIN7libMesh10Parameters5ValueESt14default_deleteIS2_EEaSINS1_9ParameterIjEES3_IS8_EEENSt9enable_ifIXsrSt6__and_IJSB_IJSt14is_convertibleINS_IT_T0_E7pointerEPS2_ESt6__not_ISt8is_arrayISD_EEEESt13is_assignableIRS4_OSE_EEE5valueERS5_E4typeEOSF_
FNDA:0,_ZNSt10unique_ptrIN7libMesh10Parameters5ValueESt14default_deleteIS2_EEaSINS1_9ParameterIjEES3_IS8_EEENSt9enable_ifIXsrSt6__and_IJSB_IJSt14is_convertibleINS_IT_T0_E7pointerEPS2_ESt6__not_ISt8is_arrayISD_EEEESt13is_assignableIRS4_OSE_EEE5valueERS5_E4typeEOSF_
FN:386,_ZNSt10unique_ptrIN7libMesh10Parameters5ValueESt14default_deleteIS2_EEaSINS1_9ParameterI20MaterialPropertyNameEES3_IS9_EEENSt9enable_ifIXsrSt6__and_IJSC_IJSt14is_convertibleINS_IT_T0_E7pointerEPS2_ESt6__not_ISt8is_arrayISE_EEEESt13is_assignableIRS4_OSF_EEE5valueERS5_E4typeEOSG_
FNDA:0,_ZNSt10unique_ptrIN7libMesh10Parameters5ValueESt14default_deleteIS2_EEaSINS1_9ParameterI20MaterialPropertyNameEES3_IS9_EEENSt9enable_ifIXsrSt6__and_IJSC_IJSt14is_convertibleINS_IT_T0_E7pointerEPS2_ESt6__not_ISt8is_arrayISE_EEEESt13is_assignableIRS4_OSF_EEE5valueERS5_E4typeEOSG_
FN:386,_ZNSt10unique_ptrIN7libMesh10Parameters5ValueESt14default_deleteIS2_EEaSINS1_9ParameterISt6vectorI20MaterialPropertyNameSaIS9_EEEES3_ISC_EEENSt9enable_ifIXsrSt6__and_IJSF_IJSt14is_convertibleINS_IT_T0_E7pointerEPS2_ESt6__not_ISt8is_arrayISH_EEEESt13is_assignableIRS4_OSI_EEE5valueERS5_E4typeEOSJ_
FNDA:0,_ZNSt10unique_ptrIN7libMesh10Parameters5ValueESt14default_deleteIS2_EEaSINS1_9ParameterISt6vectorI20MaterialPropertyNameSaIS9_EEEES3_ISC_EEENSt9enable_ifIXsrSt6__and_IJSF_IJSt14is_convertibleINS_IT_T0_E7pointerEPS2_ESt6__not_ISt8is_arrayISH_EEEESt13is_assignableIRS4_OSI_EEE5valueERS5_E4typeEOSJ_
FN:386,_ZNSt10unique_ptrIN7libMesh10Parameters5ValueESt14default_deleteIS2_EEaSINS1_9ParameterISt6vectorINSt7__cxx1112basic_stringIcSt11char_traitsIcESaIcEEESaISE_EEEES3_ISH_EEENSt9enable_ifIXsrSt6__and_IJSK_IJSt14is_convertibleINS_IT_T0_E7pointerEPS2_ESt6__not_ISt8is_arrayISM_EEEESt13is_assignableIRS4_OSN_EEE5valueERS5_E4typeEOSO_
FNDA:0,_ZNSt10unique_ptrIN7libMesh10Parameters5ValueESt14default_deleteIS2_EEaSINS1_9ParameterISt6vectorINSt7__cxx1112basic_stringIcSt11char_traitsIcESaIcEEESaISE_EEEES3_ISH_EEENSt9enable_ifIXsrSt6__and_IJSK_IJSt14is_convertibleINS_IT_T0_E7pointerEPS2_ESt6__not_ISt8is_arrayISM_EEEESt13is_assignableIRS4_OSN_EEE5valueERS5_E4typeEOSO_
FN:386,_ZNSt10unique_ptrIN7libMesh10Parameters5ValueESt14default_deleteIS2_EEaSINS1_9ParameterI12FunctionNameEES3_IS9_EEENSt9enable_ifIXsrSt6__and_IJSC_IJSt14is_convertibleINS_IT_T0_E7pointerEPS2_ESt6__not_ISt8is_arrayISE_EEEESt13is_assignableIRS4_OSF_EEE5valueERS5_E4typeEOSG_
FNDA:0,_ZNSt10unique_ptrIN7libMesh10Parameters5ValueESt14default_deleteIS2_EEaSINS1_9ParameterI12FunctionNameEES3_IS9_EEENSt9enable_ifIXsrSt6__and_IJSC_IJSt14is_convertibleINS_IT_T0_E7pointerEPS2_ESt6__not_ISt8is_arrayISE_EEEESt13is_assignableIRS4_OSF_EEE5valueERS5_E4typeEOSG_
FN:386,_ZNSt10unique_ptrIN7libMesh10Parameters5ValueESt14default_deleteIS2_EEaSINS1_9ParameterINSt7__cxx1112basic_stringIcSt11char_traitsIcESaIcEEEEES3_ISE_EEENSt9enable_ifIXsrSt6__and_IJSH_IJSt14is_convertibleINS_IT_T0_E7pointerEPS2_ESt6__not_ISt8is_arrayISJ_EEEESt13is_assignableIRS4_OSK_EEE5valueERS5_E4typeEOSL_
FNDA:0,_ZNSt10unique_ptrIN7libMesh10Parameters5ValueESt14default_deleteIS2_EEaSINS1_9ParameterINSt7__cxx1112basic_stringIcSt11char_traitsIcESaIcEEEEES3_ISE_EEENSt9enable_ifIXsrSt6__and_IJSH_IJSt14is_convertibleINS_IT_T0_E7pointerEPS2_ESt6__not_ISt8is_arrayISJ_EEEESt13is_assignableIRS4_OSK_EEE5valueERS5_E4typeEOSL_
FN:386,_ZNSt10unique_ptrIN7libMesh10Parameters5ValueESt14default_deleteIS2_EEaSINS1_9ParameterI12MaterialNameEES3_IS9_EEENSt9enable_ifIXsrSt6__and_IJSC_IJSt14is_convertibleINS_IT_T0_E7pointerEPS2_ESt6__not_ISt8is_arrayISE_EEEESt13is_assignableIRS4_OSF_EEE5valueERS5_E4typeEOSG_
FNDA:1460,_ZNSt10unique_ptrIN7libMesh10Parameters5ValueESt14default_deleteIS2_EEaSINS1_9ParameterI12MaterialNameEES3_IS9_EEENSt9enable_ifIXsrSt6__and_IJSC_IJSt14is_convertibleINS_IT_T0_E7pointerEPS2_ESt6__not_ISt8is_arrayISE_EEEESt13is_assignableIRS4_OSF_EEE5valueERS5_E4typeEOSG_
FN:386,_ZNSt10unique_ptrIN7libMesh10Parameters5ValueESt14default_deleteIS2_EEaSINS1_9ParameterIbEES3_IS8_EEENSt9enable_ifIXsrSt6__and_IJSB_IJSt14is_convertibleINS_IT_T0_E7pointerEPS2_ESt6__not_ISt8is_arrayISD_EEEESt13is_assignableIRS4_OSE_EEE5valueERS5_E4typeEOSF_
FNDA:0,_ZNSt10unique_ptrIN7libMesh10Parameters5ValueESt14default_deleteIS2_EEaSINS1_9ParameterIbEES3_IS8_EEENSt9enable_ifIXsrSt6__and_IJSB_IJSt14is_convertibleINS_IT_T0_E7pointerEPS2_ESt6__not_ISt8is_arrayISD_EEEESt13is_assignableIRS4_OSE_EEE5valueERS5_E4typeEOSF_
FN:608,_ZNSt10unique_ptrIA_N11MetaPhysicL10DualNumberIdNS0_28SemiDynamicSparseNumberArrayIdmNS0_8NWrapperILm64EEEEELb1EEESt14default_deleteIS7_EED2Ev
FNDA:0,_ZNSt10unique_ptrIA_N11MetaPhysicL10DualNumberIdNS0_28SemiDynamicSparseNumberArrayIdmNS0_8NWrapperILm64EEEEELb1EEESt14default_deleteIS7_EED2Ev
FN:608,_ZNSt10unique_ptrIA_18RankTwoTensorTemplIN11MetaPhysicL10DualNumberIdNS1_28SemiDynamicSparseNumberArrayIdmNS1_8NWrapperILm64EEEEELb1EEEESt14default_deleteIS9_EED2Ev
FNDA:0,_ZNSt10unique_ptrIA_18RankTwoTensorTemplIN11MetaPhysicL10DualNumberIdNS1_28SemiDynamicSparseNumberArrayIdmNS1_8NWrapperILm64EEEEELb1EEEESt14default_deleteIS9_EED2Ev
FN:608,_ZNSt10unique_ptrIA_18RankTwoTensorTemplIdESt14default_deleteIS2_EED2Ev
FNDA:0,_ZNSt10unique_ptrIA_18RankTwoTensorTemplIdESt14default_deleteIS2_EED2Ev
FN:608,_ZNSt10unique_ptrIA_N5Eigen6MatrixIdLin1ELi3ELi0ELin1ELi3EEESt14default_deleteIS3_EED2Ev
FNDA:0,_ZNSt10unique_ptrIA_N5Eigen6MatrixIdLin1ELi3ELi0ELin1ELi3EEESt14default_deleteIS3_EED2Ev
FN:608,_ZNSt10unique_ptrIA_N5Eigen6MatrixIdLin1ELi1ELi0ELin1ELi1EEESt14default_deleteIS3_EED2Ev
FNDA:0,_ZNSt10unique_ptrIA_N5Eigen6MatrixIdLin1ELi1ELi0ELin1ELi1EEESt14default_deleteIS3_EED2Ev
FN:608,_ZNSt10unique_ptrIA_N7libMesh11TensorValueIdEESt14default_deleteIS3_EED2Ev
FNDA:0,_ZNSt10unique_ptrIA_N7libMesh11TensorValueIdEESt14default_deleteIS3_EED2Ev
FN:608,_ZNSt10unique_ptrIA_N7libMesh11TensorValueIN11MetaPhysicL10DualNumberIdNS2_28SemiDynamicSparseNumberArrayIdmNS2_8NWrapperILm64EEEEELb1EEEEESt14default_deleteISA_EED2Ev
FNDA:0,_ZNSt10unique_ptrIA_N7libMesh11TensorValueIN11MetaPhysicL10DualNumberIdNS2_28SemiDynamicSparseNumberArrayIdmNS2_8NWrapperILm64EEEEELb1EEEEESt14default_deleteISA_EED2Ev
FN:608,_ZNSt10unique_ptrIA_N7libMesh11VectorValueIN11MetaPhysicL10DualNumberIdNS2_28SemiDynamicSparseNumberArrayIdmNS2_8NWrapperILm64EEEEELb1EEEEESt14default_deleteISA_EED2Ev
FNDA:0,_ZNSt10unique_ptrIA_N7libMesh11VectorValueIN11MetaPhysicL10DualNumberIdNS2_28SemiDynamicSparseNumberArrayIdmNS2_8NWrapperILm64EEEEELb1EEEEESt14default_deleteISA_EED2Ev
FN:961,_ZSt11make_uniqueI30ThinFilmInterfaceEnergyDensityJRK15InputParametersEENSt9_MakeUniqIT_E15__single_objectEDpOT0_
FNDA:0,_ZSt11make_uniqueI30ThinFilmInterfaceEnergyDensityJRK15InputParametersEENSt9_MakeUniqIT_E15__single_objectEDpOT0_
FN:961,_ZSt11make_uniqueIN7libMesh10Parameters9ParameterIbEEJEENSt9_MakeUniqIT_E15__single_objectEDpOT0_
FNDA:0,_ZSt11make_uniqueIN7libMesh10Parameters9ParameterIbEEJEENSt9_MakeUniqIT_E15__single_objectEDpOT0_
FN:961,_ZSt11make_uniqueIN7libMesh10Parameters9ParameterI12FunctionNameEEJEENSt9_MakeUniqIT_E15__single_objectEDpOT0_
FNDA:0,_ZSt11make_uniqueIN7libMesh10Parameters9ParameterI12FunctionNameEEJEENSt9_MakeUniqIT_E15__single_objectEDpOT0_
FN:961,_ZSt11make_uniqueIN7libMesh10Parameters9ParameterIdEEJEENSt9_MakeUniqIT_E15__single_objectEDpOT0_
FNDA:0,_ZSt11make_uniqueIN7libMesh10Parameters9ParameterIdEEJEENSt9_MakeUniqIT_E15__single_objectEDpOT0_
FN:961,_ZSt11make_uniqueIN7libMesh10Parameters9ParameterISt6vectorI12FunctionNameSaIS4_EEEEJEENSt9_MakeUniqIT_E15__single_objectEDpOT0_
FNDA:0,_ZSt11make_uniqueIN7libMesh10Parameters9ParameterISt6vectorI12FunctionNameSaIS4_EEEEJEENSt9_MakeUniqIT_E15__single_objectEDpOT0_
FN:961,_ZSt11make_uniqueI15PressureDensityJRK15InputParametersEENSt9_MakeUniqIT_E15__single_objectEDpOT0_
FNDA:6,_ZSt11make_uniqueI15PressureDensityJRK15InputParametersEENSt9_MakeUniqIT_E15__single_objectEDpOT0_
FN:961,_ZSt11make_uniqueIN7libMesh10Parameters9ParameterI20MaterialPropertyNameEEJEENSt9_MakeUniqIT_E15__single_objectEDpOT0_
FNDA:0,_ZSt11make_uniqueIN7libMesh10Parameters9ParameterI20MaterialPropertyNameEEJEENSt9_MakeUniqIT_E15__single_objectEDpOT0_
FN:961,_ZSt11make_uniqueI20JohnsonCookHardeningJRK15InputParametersEENSt9_MakeUniqIT_E15__single_objectEDpOT0_
FNDA:3,_ZSt11make_uniqueI20JohnsonCookHardeningJRK15InputParametersEENSt9_MakeUniqIT_E15__single_objectEDpOT0_
FN:961,_ZSt11make_uniqueI19CrackSurfaceDensityJRK15InputParametersEENSt9_MakeUniqIT_E15__single_objectEDpOT0_
FNDA:0,_ZSt11make_uniqueI19CrackSurfaceDensityJRK15InputParametersEENSt9_MakeUniqIT_E15__single_objectEDpOT0_
FN:961,_ZSt11make_uniqueIN7libMesh10Parameters9ParameterIP13FEProblemBaseEEJEENSt9_MakeUniqIT_E15__single_objectEDpOT0_
FNDA:0,_ZSt11make_uniqueIN7libMesh10Parameters9ParameterIP13FEProblemBaseEEJEENSt9_MakeUniqIT_E15__single_objectEDpOT0_
FN:961,_ZSt11make_uniqueI47ComputeThermalExpansionEigenDeformationGradientJRK15InputParametersEENSt9_MakeUniqIT_E15__single_objectEDpOT0_
FNDA:3,_ZSt11make_uniqueI47ComputeThermalExpansionEigenDeformationGradientJRK15InputParametersEENSt9_MakeUniqIT_E15__single_objectEDpOT0_
FN:961,_ZSt11make_uniqueI43ComputeEigenstrainFromFunctionInitialStressJRK15InputParametersEENSt9_MakeUniqIT_E15__single_objectEDpOT0_
FNDA:0,_ZSt11make_uniqueI43ComputeEigenstrainFromFunctionInitialStressJRK15InputParametersEENSt9_MakeUniqIT_E15__single_objectEDpOT0_
FN:961,_ZSt11make_uniqueI12ArrheniusLawJRK15InputParametersEENSt9_MakeUniqIT_E15__single_objectEDpOT0_
FNDA:12,_ZSt11make_uniqueI12ArrheniusLawJRK15InputParametersEENSt9_MakeUniqIT_E15__single_objectEDpOT0_
FN:961,_ZSt11make_uniqueI16MaterialPropertyIdEJjEENSt9_MakeUniqIT_E15__single_objectEDpOT0_
FNDA:0,_ZSt11make_uniqueI16MaterialPropertyIdEJjEENSt9_MakeUniqIT_E15__single_objectEDpOT0_
FN:961,_ZSt11make_uniqueI16MaterialPropertyI18RankTwoTensorTemplIdEEJjEENSt9_MakeUniqIT_E15__single_objectEDpOT0_
FNDA:0,_ZSt11make_uniqueI16MaterialPropertyI18RankTwoTensorTemplIdEEJjEENSt9_MakeUniqIT_E15__single_objectEDpOT0_
FN:961,_ZSt11make_uniqueI26ComputeDeformationGradientJRK15InputParametersEENSt9_MakeUniqIT_E15__single_objectEDpOT0_
FNDA:48,_ZSt11make_uniqueI26ComputeDeformationGradientJRK15InputParametersEENSt9_MakeUniqIT_E15__single_objectEDpOT0_
FN:961,_ZSt11make_uniqueI24PowerDegradationFunctionJRK15InputParametersEENSt9_MakeUniqIT_E15__single_objectEDpOT0_
FNDA:36,_ZSt11make_uniqueI24PowerDegradationFunctionJRK15InputParametersEENSt9_MakeUniqIT_E15__single_objectEDpOT0_
FN:961,_ZSt11make_uniqueI13NoDegradationJRK15InputParametersEENSt9_MakeUniqIT_E15__single_objectEDpOT0_
FNDA:21,_ZSt11make_uniqueI13NoDegradationJRK15InputParametersEENSt9_MakeUniqIT_E15__single_objectEDpOT0_
FN:961,_ZSt11make_uniqueI27RationalDegradationFunctionJRK15InputParametersEENSt9_MakeUniqIT_E15__single_objectEDpOT0_
FNDA:111,_ZSt11make_uniqueI27RationalDegradationFunctionJRK15InputParametersEENSt9_MakeUniqIT_E15__single_objectEDpOT0_
FN:961,_ZSt11make_uniqueI29ComputeSmallDeformationStressJRK15InputParametersEENSt9_MakeUniqIT_E15__single_objectEDpOT0_
FNDA:54,_ZSt11make_uniqueI29ComputeSmallDeformationStressJRK15InputParametersEENSt9_MakeUniqIT_E15__single_objectEDpOT0_
FN:961,_ZSt11make_uniqueI22CrackGeometricFunctionJRK15InputParametersEENSt9_MakeUniqIT_E15__single_objectEDpOT0_
FNDA:138,_ZSt11make_uniqueI22CrackGeometricFunctionJRK15InputParametersEENSt9_MakeUniqIT_E15__single_objectEDpOT0_
FN:961,_ZSt11make_uniqueI35SmallDeformationIsotropicElasticityJRK15InputParametersEENSt9_MakeUniqIT_E15__single_objectEDpOT0_
FNDA:54,_ZSt11make_uniqueI35SmallDeformationIsotropicElasticityJRK15InputParametersEENSt9_MakeUniqIT_E15__single_objectEDpOT0_
FN:961,_ZSt11make_uniqueI28SmallDeformationJ2PlasticityJRK15InputParametersEENSt9_MakeUniqIT_E15__single_objectEDpOT0_
FNDA:6,_ZSt11make_uniqueI28SmallDeformationJ2PlasticityJRK15InputParametersEENSt9_MakeUniqIT_E15__single_objectEDpOT0_
FN:961,_ZSt11make_uniqueI23LDLNucleationMicroForceJRK15InputParametersEENSt9_MakeUniqIT_E15__single_objectEDpOT0_
FNDA:3,_ZSt11make_uniqueI23LDLNucleationMicroForceJRK15InputParametersEENSt9_MakeUniqIT_E15__single_objectEDpOT0_
FN:961,_ZSt11make_uniqueI23KLRNucleationMicroForceJRK15InputParametersEENSt9_MakeUniqIT_E15__single_objectEDpOT0_
FNDA:3,_ZSt11make_uniqueI23KLRNucleationMicroForceJRK15InputParametersEENSt9_MakeUniqIT_E15__single_objectEDpOT0_
FN:961,_ZSt11make_uniqueI24KLBFNucleationMicroForceJRK15InputParametersEENSt9_MakeUniqIT_E15__single_objectEDpOT0_
FNDA:3,_ZSt11make_uniqueI24KLBFNucleationMicroForceJRK15InputParametersEENSt9_MakeUniqIT_E15__single_objectEDpOT0_
FN:961,_ZSt11make_uniqueI34LargeDeformationNewtonianViscosityJRK15InputParametersEENSt9_MakeUniqIT_E15__single_objectEDpOT0_
FNDA:3,_ZSt11make_uniqueI34LargeDeformationNewtonianViscosityJRK15InputParametersEENSt9_MakeUniqIT_E15__single_objectEDpOT0_
FN:961,_ZSt11make_uniqueI31LargeDeformationJ2PowerLawCreepJRK15InputParametersEENSt9_MakeUniqIT_E15__single_objectEDpOT0_
FNDA:6,_ZSt11make_uniqueI31LargeDeformationJ2PowerLawCreepJRK15InputParametersEENSt9_MakeUniqIT_E15__single_objectEDpOT0_
FN:961,_ZSt11make_uniqueI28LargeDeformationJ2PlasticityJRK15InputParametersEENSt9_MakeUniqIT_E15__single_objectEDpOT0_
FNDA:33,_ZSt11make_uniqueI28LargeDeformationJ2PlasticityJRK15InputParametersEENSt9_MakeUniqIT_E15__single_objectEDpOT0_
FN:961,_ZSt11make_uniqueI25HenckyIsotropicElasticityJRK15InputParametersEENSt9_MakeUniqIT_E15__single_objectEDpOT0_
FNDA:45,_ZSt11make_uniqueI25HenckyIsotropicElasticityJRK15InputParametersEENSt9_MakeUniqIT_E15__single_objectEDpOT0_
FN:961,_ZSt11make_uniqueI29ComputeLargeDeformationStressJRK15InputParametersEENSt9_MakeUniqIT_E15__single_objectEDpOT0_
